
C:\tien\PROJEKTY\procesory\STM\T108_V100a\gui.o:     file format elf32-littlearm
C:\tien\PROJEKTY\procesory\STM\T108_V100a\gui.o

Disassembly of section .text.Bin2String:

00000000 <Bin2String>:
Bin2String():
C:\tien\PROJEKTY\procesory\STM\T108_V100a\sources/gui.c:1894
* Input          : Source_Count - Pointer to binary count, Result - pointer to table of result, Resolution - digits after dot, Digit_Count - number of counts to convert, Zero_Blank - dont display zero at front of digit
* Output         : None
* Return         : None
*******************************************************************************/
void Bin2String ( int32_t Source_Count, uint8_t * Result, uint8_t Digits_Count, uint8_t Resolution, uint8_t Zero_Blank )
{
   0:	e92d 43f0 	stmdb	sp!, {r4, r5, r6, r7, r8, r9, lr}
   4:	4698      	mov	r8, r3
C:\tien\PROJEKTY\procesory\STM\T108_V100a\sources/gui.c:1901
    static uint8_t Result_Table[9];   
    static uint8_t Zero_Ptr;
    static uint32_t Divider;

    Divider = 100000000;
    Zero_Ptr = 0;
   6:	4b3d      	ldr	r3, [pc, #244]	(fc <Bin2String+0xfc>)
C:\tien\PROJEKTY\procesory\STM\T108_V100a\sources/gui.c:1894
* Input          : Source_Count - Pointer to binary count, Result - pointer to table of result, Resolution - digits after dot, Digit_Count - number of counts to convert, Zero_Blank - dont display zero at front of digit
* Output         : None
* Return         : None
*******************************************************************************/
void Bin2String ( int32_t Source_Count, uint8_t * Result, uint8_t Digits_Count, uint8_t Resolution, uint8_t Zero_Blank )
{
   8:	460d      	mov	r5, r1
   a:	4611      	mov	r1, r2
C:\tien\PROJEKTY\procesory\STM\T108_V100a\sources/gui.c:1901
    static uint8_t Result_Table[9];   
    static uint8_t Zero_Ptr;
    static uint32_t Divider;

    Divider = 100000000;
    Zero_Ptr = 0;
   c:	2200      	movs	r2, #0
C:\tien\PROJEKTY\procesory\STM\T108_V100a\sources/gui.c:1903
    
    if ( Source_Count < 0 )
   e:	1e04      	subs	r4, r0, #0
C:\tien\PROJEKTY\procesory\STM\T108_V100a\sources/gui.c:1894
* Input          : Source_Count - Pointer to binary count, Result - pointer to table of result, Resolution - digits after dot, Digit_Count - number of counts to convert, Zero_Blank - dont display zero at front of digit
* Output         : None
* Return         : None
*******************************************************************************/
void Bin2String ( int32_t Source_Count, uint8_t * Result, uint8_t Digits_Count, uint8_t Resolution, uint8_t Zero_Blank )
{
  10:	f89d 601c 	ldrb.w	r6, [sp, #28]
C:\tien\PROJEKTY\procesory\STM\T108_V100a\sources/gui.c:1901
    static uint8_t Result_Table[9];   
    static uint8_t Zero_Ptr;
    static uint32_t Divider;

    Divider = 100000000;
    Zero_Ptr = 0;
  14:	701a      	strb	r2, [r3, #0]
C:\tien\PROJEKTY\procesory\STM\T108_V100a\sources/gui.c:1903
    
    if ( Source_Count < 0 )
  16:	da03      	bge.n	20 <Bin2String+0x20>
C:\tien\PROJEKTY\procesory\STM\T108_V100a\sources/gui.c:1906
    {
        Source_Count *= (-1);
        *Result++ = '-';
  18:	232d      	movs	r3, #45
C:\tien\PROJEKTY\procesory\STM\T108_V100a\sources/gui.c:1905
    Divider = 100000000;
    Zero_Ptr = 0;
    
    if ( Source_Count < 0 )
    {
        Source_Count *= (-1);
  1a:	4264      	negs	r4, r4
C:\tien\PROJEKTY\procesory\STM\T108_V100a\sources/gui.c:1906
        *Result++ = '-';
  1c:	f805 3b01 	strb.w	r3, [r5], #1
C:\tien\PROJEKTY\procesory\STM\T108_V100a\sources/gui.c:1914
    if ( Digits_Count > 9 )
    {
        Digits_Count = 9;
    }

    if ( Resolution > 3 )
  20:	f1b8 0f03 	cmp.w	r8, #3	; 0x3
  24:	d901      	bls.n	2a <Bin2String+0x2a>
  26:	2703      	movs	r7, #3
  28:	e003      	b.n	32 <Bin2String+0x32>
  2a:	2909      	cmp	r1, #9
  2c:	bf34      	ite	cc
  2e:	460f      	movcc	r7, r1
  30:	2709      	movcs	r7, #9
  32:	4833      	ldr	r0, [pc, #204]	(100 <Bin2String+0x100>)
  34:	f04f 0c00 	mov.w	ip, #0	; 0x0
  38:	e00e      	b.n	58 <Bin2String+0x58>
C:\tien\PROJEKTY\procesory\STM\T108_V100a\sources/gui.c:1921
        Digits_Count = 3;
    }

    for ( i=0; i<9; i++ )
    {
        Result_Table[i] = (uint8_t)((Source_Count / Divider) | 0x30);
  3a:	fbb4 f2f0 	udiv	r2, r4, r0
  3e:	4461      	add	r1, ip
  40:	f042 0330 	orr.w	r3, r2, #48	; 0x30
  44:	704b      	strb	r3, [r1, #1]
C:\tien\PROJEKTY\procesory\STM\T108_V100a\sources/gui.c:1923
        Source_Count %= Divider;
        Divider /= 10;
  46:	230a      	movs	r3, #10
C:\tien\PROJEKTY\procesory\STM\T108_V100a\sources/gui.c:1922
    }

    for ( i=0; i<9; i++ )
    {
        Result_Table[i] = (uint8_t)((Source_Count / Divider) | 0x30);
        Source_Count %= Divider;
  48:	fb00 4412 	mls	r4, r0, r2, r4
C:\tien\PROJEKTY\procesory\STM\T108_V100a\sources/gui.c:1923
        Divider /= 10;
  4c:	fbb0 f0f3 	udiv	r0, r0, r3
  50:	f10c 0301 	add.w	r3, ip, #1	; 0x1
  54:	fa5f fc83 	uxtb.w	ip, r3
C:\tien\PROJEKTY\procesory\STM\T108_V100a\sources/gui.c:1919
    if ( Resolution > 3 )
    {
        Digits_Count = 3;
    }

    for ( i=0; i<9; i++ )
  58:	f1bc 0f08 	cmp.w	ip, #8	; 0x8
  5c:	4927      	ldr	r1, [pc, #156]	(fc <Bin2String+0xfc>)
  5e:	d9ec      	bls.n	3a <Bin2String+0x3a>
  60:	60c8      	str	r0, [r1, #12]
  62:	f881 c010 	strb.w	ip, [r1, #16]
C:\tien\PROJEKTY\procesory\STM\T108_V100a\sources/gui.c:1926
        Result_Table[i] = (uint8_t)((Source_Count / Divider) | 0x30);
        Source_Count %= Divider;
        Divider /= 10;
    }

    if ( Zero_Blank == 0 )
  66:	b9b6      	cbnz	r6, 96 <Bin2String+0x96>
C:\tien\PROJEKTY\procesory\STM\T108_V100a\sources/gui.c:1928
    {
        for ( i=(9-Digits_Count); i<9; i++ )
  68:	f1c7 0309 	rsb	r3, r7, #9	; 0x9
  6c:	e00e      	b.n	8c <Bin2String+0x8c>
C:\tien\PROJEKTY\procesory\STM\T108_V100a\sources/gui.c:1930
        {
            *Result++ = Result_Table[i];
  6e:	188b      	adds	r3, r1, r2
  70:	785b      	ldrb	r3, [r3, #1]
  72:	f805 3b01 	strb.w	r3, [r5], #1
C:\tien\PROJEKTY\procesory\STM\T108_V100a\sources/gui.c:1931
            if ( Resolution != 0 && i == (8-Resolution) )
  76:	f1b8 0f00 	cmp.w	r8, #0	; 0x0
  7a:	d006      	beq.n	8a <Bin2String+0x8a>
  7c:	f1c8 0308 	rsb	r3, r8, #8	; 0x8
  80:	429a      	cmp	r2, r3
  82:	d102      	bne.n	8a <Bin2String+0x8a>
C:\tien\PROJEKTY\procesory\STM\T108_V100a\sources/gui.c:1933
            {
                *Result++ = '.';
  84:	232e      	movs	r3, #46
  86:	f805 3b01 	strb.w	r3, [r5], #1
  8a:	1c53      	adds	r3, r2, #1
  8c:	b2da      	uxtb	r2, r3
C:\tien\PROJEKTY\procesory\STM\T108_V100a\sources/gui.c:1928
        Divider /= 10;
    }

    if ( Zero_Blank == 0 )
    {
        for ( i=(9-Digits_Count); i<9; i++ )
  8e:	2a08      	cmp	r2, #8
  90:	491a      	ldr	r1, [pc, #104]	(fc <Bin2String+0xfc>)
  92:	d9ec      	bls.n	6e <Bin2String+0x6e>
  94:	e02c      	b.n	f0 <Bin2String+0xf0>
C:\tien\PROJEKTY\procesory\STM\T108_V100a\sources/gui.c:1939
            }          
        }
    }
    else
    {
        for ( i=0; i<(8-Resolution); i++ )
  96:	2300      	movs	r3, #0
  98:	740b      	strb	r3, [r1, #16]
  9a:	461a      	mov	r2, r3
  9c:	4618      	mov	r0, r3
  9e:	e00c      	b.n	ba <Bin2String+0xba>
  a0:	1c53      	adds	r3, r2, #1
C:\tien\PROJEKTY\procesory\STM\T108_V100a\sources/gui.c:1941
        {
            if ( Result_Table[i] == '0' )
  a2:	188c      	adds	r4, r1, r2
C:\tien\PROJEKTY\procesory\STM\T108_V100a\sources/gui.c:1939
            }          
        }
    }
    else
    {
        for ( i=0; i<(8-Resolution); i++ )
  a4:	b2de      	uxtb	r6, r3
  a6:	1c43      	adds	r3, r0, #1
  a8:	fa5f fc83 	uxtb.w	ip, r3
C:\tien\PROJEKTY\procesory\STM\T108_V100a\sources/gui.c:1941
        {
            if ( Result_Table[i] == '0' )
  ac:	7863      	ldrb	r3, [r4, #1]
  ae:	2b30      	cmp	r3, #48
  b0:	d108      	bne.n	c4 <Bin2String+0xc4>
C:\tien\PROJEKTY\procesory\STM\T108_V100a\sources/gui.c:1944
            {
//Dla spacji
                Result_Table[i] = ' ';
  b2:	2320      	movs	r3, #32
  b4:	7063      	strb	r3, [r4, #1]
  b6:	4632      	mov	r2, r6
  b8:	4660      	mov	r0, ip
C:\tien\PROJEKTY\procesory\STM\T108_V100a\sources/gui.c:1939
            }          
        }
    }
    else
    {
        for ( i=0; i<(8-Resolution); i++ )
  ba:	f1c8 0908 	rsb	r9, r8, #8	; 0x8
  be:	454a      	cmp	r2, r9
  c0:	490e      	ldr	r1, [pc, #56]	(fc <Bin2String+0xfc>)
  c2:	dbed      	blt.n	a0 <Bin2String+0xa0>
  c4:	7008      	strb	r0, [r1, #0]
  c6:	740a      	strb	r2, [r1, #16]
C:\tien\PROJEKTY\procesory\STM\T108_V100a\sources/gui.c:1952
            }
            else
                break;
        }
//Dla spacji
        for ( i=(9-Digits_Count); i<9; i++ )
  c8:	f1c7 0309 	rsb	r3, r7, #9	; 0x9
  cc:	e00c      	b.n	e8 <Bin2String+0xe8>
C:\tien\PROJEKTY\procesory\STM\T108_V100a\sources/gui.c:1956
//Koniec dla spacji
//        for ( i=Zero_Ptr; i<9; i++ )
        {
            *Result++ = Result_Table[i];
  ce:	188b      	adds	r3, r1, r2
  d0:	785b      	ldrb	r3, [r3, #1]
  d2:	f805 3b01 	strb.w	r3, [r5], #1
C:\tien\PROJEKTY\procesory\STM\T108_V100a\sources/gui.c:1957
            if ( Resolution != 0 && i == (8-Resolution) )
  d6:	f1b8 0f00 	cmp.w	r8, #0	; 0x0
  da:	d004      	beq.n	e6 <Bin2String+0xe6>
  dc:	454a      	cmp	r2, r9
  de:	d102      	bne.n	e6 <Bin2String+0xe6>
C:\tien\PROJEKTY\procesory\STM\T108_V100a\sources/gui.c:1959
            {
                *Result++ = '.';
  e0:	232e      	movs	r3, #46
  e2:	f805 3b01 	strb.w	r3, [r5], #1
  e6:	1c53      	adds	r3, r2, #1
  e8:	b2da      	uxtb	r2, r3
C:\tien\PROJEKTY\procesory\STM\T108_V100a\sources/gui.c:1952
            }
            else
                break;
        }
//Dla spacji
        for ( i=(9-Digits_Count); i<9; i++ )
  ea:	2a08      	cmp	r2, #8
  ec:	4903      	ldr	r1, [pc, #12]	(fc <Bin2String+0xfc>)
  ee:	d9ee      	bls.n	ce <Bin2String+0xce>
C:\tien\PROJEKTY\procesory\STM\T108_V100a\sources/gui.c:1964
                *Result++ = '.';
            }          
        }
    }

    *Result = 0;
  f0:	2300      	movs	r3, #0
C:\tien\PROJEKTY\procesory\STM\T108_V100a\sources/gui.c:1952
            }
            else
                break;
        }
//Dla spacji
        for ( i=(9-Digits_Count); i<9; i++ )
  f2:	740a      	strb	r2, [r1, #16]
C:\tien\PROJEKTY\procesory\STM\T108_V100a\sources/gui.c:1964
                *Result++ = '.';
            }          
        }
    }

    *Result = 0;
  f4:	702b      	strb	r3, [r5, #0]
C:\tien\PROJEKTY\procesory\STM\T108_V100a\sources/gui.c:1965
}
  f6:	e8bd 83f0 	ldmia.w	sp!, {r4, r5, r6, r7, r8, r9, pc}
  fa:	46c0      	nop			(mov r8, r8)
  fc:	00000000 	.word	0x00000000
 100:	05f5e100 	.word	0x05f5e100
Disassembly of section .text.Menu_Keyboard:

00000000 <Menu_Keyboard>:
Menu_Keyboard():
C:\tien\PROJEKTY\procesory\STM\T108_V100a\sources/gui.c:1974
* Input          : None
* Output         : None
* Return         : None
*******************************************************************************/
void Menu_Keyboard ( void )
{
   0:	b510      	push	{r4, lr}
C:\tien\PROJEKTY\procesory\STM\T108_V100a\sources/gui.c:1976

        switch ( Keyboard.Keyboard_Memory )
   2:	4b24      	ldr	r3, [pc, #144]	(94 <Menu_Keyboard+0x94>)
   4:	781b      	ldrb	r3, [r3, #0]
   6:	2b08      	cmp	r3, #8
   8:	d002      	beq.n	10 <Menu_Keyboard+0x10>
   a:	2b20      	cmp	r3, #32
   c:	d140      	bne.n	90 <Menu_Keyboard+0x90>
   e:	e01e      	b.n	4e <Menu_Keyboard+0x4e>
C:\tien\PROJEKTY\procesory\STM\T108_V100a\sources/gui.c:1979
        {
            case KEY_UP:
                if ( (Menu_Keys.Active_String+1) == Screen_Lcd[Screen_Number].Screen_Objects->Menu_Ptr->Total_Lines )
  10:	4b21      	ldr	r3, [pc, #132]	(98 <Menu_Keyboard+0x98>)
  12:	4a22      	ldr	r2, [pc, #136]	(9c <Menu_Keyboard+0x9c>)
  14:	781b      	ldrb	r3, [r3, #0]
  16:	210c      	movs	r1, #12
  18:	fb01 2303 	mla	r3, r1, r3, r2
  1c:	685b      	ldr	r3, [r3, #4]
  1e:	4c20      	ldr	r4, [pc, #128]	(a0 <Menu_Keyboard+0xa0>)
  20:	6859      	ldr	r1, [r3, #4]
  22:	7ca0      	ldrb	r0, [r4, #18]
  24:	78cb      	ldrb	r3, [r1, #3]
  26:	3001      	adds	r0, #1
  28:	4298      	cmp	r0, r3
  2a:	d104      	bne.n	36 <Menu_Keyboard+0x36>
C:\tien\PROJEKTY\procesory\STM\T108_V100a\sources/gui.c:1981
                {
                    Menu_Keys.First_On_Screen = 0;
  2c:	2300      	movs	r3, #0
  2e:	7463      	strb	r3, [r4, #17]
C:\tien\PROJEKTY\procesory\STM\T108_V100a\sources/gui.c:1982
                    Menu_Keys.Active_String = 0;
  30:	74a3      	strb	r3, [r4, #18]
C:\tien\PROJEKTY\procesory\STM\T108_V100a\sources/gui.c:1983
                    Menu_Keys.Active_On_Screen = 0;
  32:	74e3      	strb	r3, [r4, #19]
  34:	e029      	b.n	8a <Menu_Keyboard+0x8a>
C:\tien\PROJEKTY\procesory\STM\T108_V100a\sources/gui.c:1988
                }
                else
                {
                    Menu_Keys.Active_String++;
                    if ( (Menu_Keys.Active_On_Screen+1) == Screen_Lcd[Screen_Number].Screen_Objects->Menu_Ptr->Lines_On_Screen )
  36:	7ce3      	ldrb	r3, [r4, #19]
C:\tien\PROJEKTY\procesory\STM\T108_V100a\sources/gui.c:1987
                    Menu_Keys.Active_String = 0;
                    Menu_Keys.Active_On_Screen = 0;
                }
                else
                {
                    Menu_Keys.Active_String++;
  38:	74a0      	strb	r0, [r4, #18]
C:\tien\PROJEKTY\procesory\STM\T108_V100a\sources/gui.c:1988
                    if ( (Menu_Keys.Active_On_Screen+1) == Screen_Lcd[Screen_Number].Screen_Objects->Menu_Ptr->Lines_On_Screen )
  3a:	1c5a      	adds	r2, r3, #1
  3c:	788b      	ldrb	r3, [r1, #2]
  3e:	429a      	cmp	r2, r3
  40:	d103      	bne.n	4a <Menu_Keyboard+0x4a>
C:\tien\PROJEKTY\procesory\STM\T108_V100a\sources/gui.c:1990
                    {
                        Menu_Keys.First_On_Screen++;
  42:	7c63      	ldrb	r3, [r4, #17]
  44:	3301      	adds	r3, #1
  46:	7463      	strb	r3, [r4, #17]
  48:	e01f      	b.n	8a <Menu_Keyboard+0x8a>
C:\tien\PROJEKTY\procesory\STM\T108_V100a\sources/gui.c:1994
                    }
                    else
                    {
                        Menu_Keys.Active_On_Screen++;
  4a:	74e2      	strb	r2, [r4, #19]
  4c:	e01d      	b.n	8a <Menu_Keyboard+0x8a>
C:\tien\PROJEKTY\procesory\STM\T108_V100a\sources/gui.c:2002
                Reload_Screen = TRUE;

            break;

            case KEY_DOWN:
                if ( Menu_Keys.Active_String == 0 )               {
  4e:	4814      	ldr	r0, [pc, #80]	(a0 <Menu_Keyboard+0xa0>)
  50:	7c83      	ldrb	r3, [r0, #18]
  52:	b983      	cbnz	r3, 76 <Menu_Keyboard+0x76>
C:\tien\PROJEKTY\procesory\STM\T108_V100a\sources/gui.c:2003
                    Menu_Keys.First_On_Screen = Screen_Lcd[Screen_Number].Screen_Objects->Menu_Ptr->Total_Lines - Screen_Lcd[Screen_Number].Screen_Objects->Menu_Ptr->Lines_On_Screen;
  54:	4b10      	ldr	r3, [pc, #64]	(98 <Menu_Keyboard+0x98>)
  56:	4a11      	ldr	r2, [pc, #68]	(9c <Menu_Keyboard+0x9c>)
  58:	781b      	ldrb	r3, [r3, #0]
  5a:	210c      	movs	r1, #12
  5c:	fb01 2303 	mla	r3, r1, r3, r2
  60:	685b      	ldr	r3, [r3, #4]
  62:	685a      	ldr	r2, [r3, #4]
  64:	78d3      	ldrb	r3, [r2, #3]
  66:	7891      	ldrb	r1, [r2, #2]
  68:	1a5a      	subs	r2, r3, r1
C:\tien\PROJEKTY\procesory\STM\T108_V100a\sources/gui.c:2004
                    Menu_Keys.Active_String = Screen_Lcd[Screen_Number].Screen_Objects->Menu_Ptr->Total_Lines-1;
  6a:	3b01      	subs	r3, #1
C:\tien\PROJEKTY\procesory\STM\T108_V100a\sources/gui.c:2005
                    Menu_Keys.Active_On_Screen = Screen_Lcd[Screen_Number].Screen_Objects->Menu_Ptr->Lines_On_Screen-1;
  6c:	3901      	subs	r1, #1
C:\tien\PROJEKTY\procesory\STM\T108_V100a\sources/gui.c:2003

            break;

            case KEY_DOWN:
                if ( Menu_Keys.Active_String == 0 )               {
                    Menu_Keys.First_On_Screen = Screen_Lcd[Screen_Number].Screen_Objects->Menu_Ptr->Total_Lines - Screen_Lcd[Screen_Number].Screen_Objects->Menu_Ptr->Lines_On_Screen;
  6e:	7442      	strb	r2, [r0, #17]
C:\tien\PROJEKTY\procesory\STM\T108_V100a\sources/gui.c:2004
                    Menu_Keys.Active_String = Screen_Lcd[Screen_Number].Screen_Objects->Menu_Ptr->Total_Lines-1;
  70:	7483      	strb	r3, [r0, #18]
C:\tien\PROJEKTY\procesory\STM\T108_V100a\sources/gui.c:2005
                    Menu_Keys.Active_On_Screen = Screen_Lcd[Screen_Number].Screen_Objects->Menu_Ptr->Lines_On_Screen-1;
  72:	74c1      	strb	r1, [r0, #19]
  74:	e009      	b.n	8a <Menu_Keyboard+0x8a>
C:\tien\PROJEKTY\procesory\STM\T108_V100a\sources/gui.c:2009
                }
                else
                {
                    Menu_Keys.Active_String--;
  76:	3b01      	subs	r3, #1
  78:	7483      	strb	r3, [r0, #18]
C:\tien\PROJEKTY\procesory\STM\T108_V100a\sources/gui.c:2010
                    if ( Menu_Keys.Active_On_Screen == 0 )
  7a:	7cc3      	ldrb	r3, [r0, #19]
  7c:	b91b      	cbnz	r3, 86 <Menu_Keyboard+0x86>
C:\tien\PROJEKTY\procesory\STM\T108_V100a\sources/gui.c:2012
                    {
                        Menu_Keys.First_On_Screen--;
  7e:	7c43      	ldrb	r3, [r0, #17]
  80:	3b01      	subs	r3, #1
  82:	7443      	strb	r3, [r0, #17]
  84:	e001      	b.n	8a <Menu_Keyboard+0x8a>
C:\tien\PROJEKTY\procesory\STM\T108_V100a\sources/gui.c:2016
                    }
                    else
                    {
                        Menu_Keys.Active_On_Screen--;
  86:	3b01      	subs	r3, #1
  88:	74c3      	strb	r3, [r0, #19]
C:\tien\PROJEKTY\procesory\STM\T108_V100a\sources/gui.c:2019
                    }
                }
                Reload_Screen = TRUE;
  8a:	4b06      	ldr	r3, [pc, #24]	(a4 <Menu_Keyboard+0xa4>)
  8c:	2201      	movs	r2, #1
  8e:	701a      	strb	r2, [r3, #0]
C:\tien\PROJEKTY\procesory\STM\T108_V100a\sources/gui.c:2023
            break;
        }

}
  90:	bd10      	pop	{r4, pc}
  92:	46c0      	nop			(mov r8, r8)
	...
Disassembly of section .text.Keyboard_Edit_Variable:

00000000 <Keyboard_Edit_Variable>:
Keyboard_Edit_Variable():
C:\tien\PROJEKTY\procesory\STM\T108_V100a\sources/gui.c:2038
{
    volatile static int32_t Edit_Variable;
    static int32_t Edit_Variable_Min;
    static int32_t Edit_Variable_Max;

    Edit_Variable_Min = Variable_Editing_Ptr->Var_Param_Ptr->Ranges->Var_min;
   0:	4b33      	ldr	r3, [pc, #204]	(d0 <Keyboard_Edit_Variable+0xd0>)
C:\tien\PROJEKTY\procesory\STM\T108_V100a\sources/gui.c:2033
* Input          : None
* Output         : None
* Return         : None
*******************************************************************************/
static void Keyboard_Edit_Variable ( void )
{
   2:	b570      	push	{r4, r5, r6, lr}
C:\tien\PROJEKTY\procesory\STM\T108_V100a\sources/gui.c:2038
    volatile static int32_t Edit_Variable;
    static int32_t Edit_Variable_Min;
    static int32_t Edit_Variable_Max;

    Edit_Variable_Min = Variable_Editing_Ptr->Var_Param_Ptr->Ranges->Var_min;
   4:	6818      	ldr	r0, [r3, #0]
   6:	4b33      	ldr	r3, [pc, #204]	(d4 <Keyboard_Edit_Variable+0xd4>)
   8:	68c1      	ldr	r1, [r0, #12]
   a:	698a      	ldr	r2, [r1, #24]
C:\tien\PROJEKTY\procesory\STM\T108_V100a\sources/gui.c:2041
    Edit_Variable_Max = Variable_Editing_Ptr->Var_Param_Ptr->Ranges->Var_max;

    switch ( Variable_Editing_Ptr->Var_Param_Ptr->Variable_Size )
   c:	f891 c001 	ldrb.w	ip, [r1, #1]
C:\tien\PROJEKTY\procesory\STM\T108_V100a\sources/gui.c:2038
{
    volatile static int32_t Edit_Variable;
    static int32_t Edit_Variable_Min;
    static int32_t Edit_Variable_Max;

    Edit_Variable_Min = Variable_Editing_Ptr->Var_Param_Ptr->Ranges->Var_min;
  10:	6816      	ldr	r6, [r2, #0]
  12:	615e      	str	r6, [r3, #20]
C:\tien\PROJEKTY\procesory\STM\T108_V100a\sources/gui.c:2039
    Edit_Variable_Max = Variable_Editing_Ptr->Var_Param_Ptr->Ranges->Var_max;
  14:	6855      	ldr	r5, [r2, #4]
  16:	619d      	str	r5, [r3, #24]
C:\tien\PROJEKTY\procesory\STM\T108_V100a\sources/gui.c:2041

    switch ( Variable_Editing_Ptr->Var_Param_Ptr->Variable_Size )
  18:	f1bc 0f05 	cmp.w	ip, #5	; 0x5
  1c:	d816      	bhi.n	4c <Keyboard_Edit_Variable+0x4c>
  1e:	e8df f00c 	tbb	[pc, ip]
  22:	0603      	.short	0x0603
  24:	11          	.byte	0x11
  25:	09          	.byte	0x09
  26:	110d      	.short	0x110d
C:\tien\PROJEKTY\procesory\STM\T108_V100a\sources/gui.c:2044
    {
        case VAR_U8:
            Edit_Variable = *(uint8_t*)(Variable_Editing_Ptr->Var_Ptr);
  28:	6843      	ldr	r3, [r0, #4]
  2a:	781a      	ldrb	r2, [r3, #0]
  2c:	e00c      	b.n	48 <Keyboard_Edit_Variable+0x48>
C:\tien\PROJEKTY\procesory\STM\T108_V100a\sources/gui.c:2048
        break;

        case VAR_U16:
            Edit_Variable = *(uint16_t*)(Variable_Editing_Ptr->Var_Ptr);
  2e:	6843      	ldr	r3, [r0, #4]
  30:	881a      	ldrh	r2, [r3, #0]
  32:	e009      	b.n	48 <Keyboard_Edit_Variable+0x48>
C:\tien\PROJEKTY\procesory\STM\T108_V100a\sources/gui.c:2056
        case VAR_U32:
            Edit_Variable = *(uint32_t*)(Variable_Editing_Ptr->Var_Ptr);
        break;

        case VAR_S8:
            Edit_Variable = *(int8_t*)(Variable_Editing_Ptr->Var_Ptr);
  34:	6843      	ldr	r3, [r0, #4]
  36:	f993 2000 	ldrsb.w	r2, [r3]
  3a:	e005      	b.n	48 <Keyboard_Edit_Variable+0x48>
C:\tien\PROJEKTY\procesory\STM\T108_V100a\sources/gui.c:2060
        break;

        case VAR_S16:
            Edit_Variable = *(int16_t*)(Variable_Editing_Ptr->Var_Ptr);
  3c:	6843      	ldr	r3, [r0, #4]
  3e:	f9b3 2000 	ldrsh.w	r2, [r3]
  42:	e001      	b.n	48 <Keyboard_Edit_Variable+0x48>
C:\tien\PROJEKTY\procesory\STM\T108_V100a\sources/gui.c:2064
        break;

        case VAR_S32:
            Edit_Variable = *(int32_t*)(Variable_Editing_Ptr->Var_Ptr);
  44:	6843      	ldr	r3, [r0, #4]
  46:	681a      	ldr	r2, [r3, #0]
  48:	4b22      	ldr	r3, [pc, #136]	(d4 <Keyboard_Edit_Variable+0xd4>)
  4a:	61da      	str	r2, [r3, #28]
C:\tien\PROJEKTY\procesory\STM\T108_V100a\sources/gui.c:2067
        break;
    }
    switch ( Keyboard.Keyboard_Memory )
  4c:	4b22      	ldr	r3, [pc, #136]	(d8 <Keyboard_Edit_Variable+0xd8>)
  4e:	781b      	ldrb	r3, [r3, #0]
  50:	2b04      	cmp	r3, #4
  52:	d012      	beq.n	7a <Keyboard_Edit_Variable+0x7a>
  54:	2b10      	cmp	r3, #16
  56:	d124      	bne.n	a2 <Keyboard_Edit_Variable+0xa2>
C:\tien\PROJEKTY\procesory\STM\T108_V100a\sources/gui.c:2070
    {
        case KEY_RIGHT:
            if ( (Edit_Variable_Max - Edit_Variable) < Add_Tab[Count_Add] )
  58:	4b20      	ldr	r3, [pc, #128]	(dc <Keyboard_Edit_Variable+0xdc>)
  5a:	4c1e      	ldr	r4, [pc, #120]	(d4 <Keyboard_Edit_Variable+0xd4>)
  5c:	7819      	ldrb	r1, [r3, #0]
  5e:	4b20      	ldr	r3, [pc, #128]	(e0 <Keyboard_Edit_Variable+0xe0>)
  60:	69e2      	ldr	r2, [r4, #28]
  62:	eb03 0381 	add.w	r3, r3, r1, lsl #2
  66:	f8d3 1288 	ldr.w	r1, [r3, #648]
  6a:	1aaa      	subs	r2, r5, r2
  6c:	428a      	cmp	r2, r1
  6e:	da01      	bge.n	74 <Keyboard_Edit_Variable+0x74>
C:\tien\PROJEKTY\procesory\STM\T108_V100a\sources/gui.c:2072
            {
                Edit_Variable = Edit_Variable_Min;
  70:	61e6      	str	r6, [r4, #28]
  72:	e013      	b.n	9c <Keyboard_Edit_Variable+0x9c>
C:\tien\PROJEKTY\procesory\STM\T108_V100a\sources/gui.c:2076
            }
            else
            {
                Edit_Variable += Add_Tab[Count_Add];
  74:	69e3      	ldr	r3, [r4, #28]
  76:	18cb      	adds	r3, r1, r3
  78:	e00f      	b.n	9a <Keyboard_Edit_Variable+0x9a>
C:\tien\PROJEKTY\procesory\STM\T108_V100a\sources/gui.c:2082
            }
            Reload_Screen = TRUE;
        break;

        case KEY_LEFT:
            if ( (Edit_Variable - Edit_Variable_Min) < Add_Tab[Count_Add] )
  7a:	4b18      	ldr	r3, [pc, #96]	(dc <Keyboard_Edit_Variable+0xdc>)
  7c:	4c15      	ldr	r4, [pc, #84]	(d4 <Keyboard_Edit_Variable+0xd4>)
  7e:	7819      	ldrb	r1, [r3, #0]
  80:	4b17      	ldr	r3, [pc, #92]	(e0 <Keyboard_Edit_Variable+0xe0>)
  82:	69e2      	ldr	r2, [r4, #28]
  84:	eb03 0381 	add.w	r3, r3, r1, lsl #2
  88:	f8d3 1288 	ldr.w	r1, [r3, #648]
  8c:	1b92      	subs	r2, r2, r6
  8e:	428a      	cmp	r2, r1
  90:	da01      	bge.n	96 <Keyboard_Edit_Variable+0x96>
C:\tien\PROJEKTY\procesory\STM\T108_V100a\sources/gui.c:2084
            {
                Edit_Variable = Edit_Variable_Max;
  92:	61e5      	str	r5, [r4, #28]
  94:	e002      	b.n	9c <Keyboard_Edit_Variable+0x9c>
C:\tien\PROJEKTY\procesory\STM\T108_V100a\sources/gui.c:2088
            }
            else
            {
                Edit_Variable -= Add_Tab[Count_Add];
  96:	69e3      	ldr	r3, [r4, #28]
  98:	1a5b      	subs	r3, r3, r1
  9a:	61e3      	str	r3, [r4, #28]
C:\tien\PROJEKTY\procesory\STM\T108_V100a\sources/gui.c:2090
            }
            Reload_Screen = TRUE;
  9c:	4b11      	ldr	r3, [pc, #68]	(e4 <Keyboard_Edit_Variable+0xe4>)
  9e:	2201      	movs	r2, #1
  a0:	701a      	strb	r2, [r3, #0]
C:\tien\PROJEKTY\procesory\STM\T108_V100a\sources/gui.c:2094
        break;
    }

    switch ( Variable_Editing_Ptr->Var_Param_Ptr->Variable_Size )
  a2:	f1bc 0f05 	cmp.w	ip, #5	; 0x5
  a6:	d812      	bhi.n	ce <Keyboard_Edit_Variable+0xce>
  a8:	e8df f00c 	tbb	[pc, ip]
  ac:	030d0803 	.word	0x030d0803
  b0:	0d08      	.short	0x0d08
C:\tien\PROJEKTY\procesory\STM\T108_V100a\sources/gui.c:2109
        case VAR_U32:
            *(uint32_t*)(Variable_Editing_Ptr->Var_Ptr) = Edit_Variable;
        break;

        case VAR_S8:
            *(int8_t*)(Variable_Editing_Ptr->Var_Ptr) = Edit_Variable;
  b2:	4b08      	ldr	r3, [pc, #32]	(d4 <Keyboard_Edit_Variable+0xd4>)
  b4:	69da      	ldr	r2, [r3, #28]
  b6:	6843      	ldr	r3, [r0, #4]
  b8:	701a      	strb	r2, [r3, #0]
  ba:	e008      	b.n	ce <Keyboard_Edit_Variable+0xce>
C:\tien\PROJEKTY\procesory\STM\T108_V100a\sources/gui.c:2113
        break;

        case VAR_S16:
            *(int16_t*)(Variable_Editing_Ptr->Var_Ptr) = Edit_Variable;
  bc:	4b05      	ldr	r3, [pc, #20]	(d4 <Keyboard_Edit_Variable+0xd4>)
  be:	69da      	ldr	r2, [r3, #28]
  c0:	6843      	ldr	r3, [r0, #4]
  c2:	801a      	strh	r2, [r3, #0]
  c4:	e003      	b.n	ce <Keyboard_Edit_Variable+0xce>
C:\tien\PROJEKTY\procesory\STM\T108_V100a\sources/gui.c:2117
        break;

        case VAR_S32:
            *(int32_t*)(Variable_Editing_Ptr->Var_Ptr) = Edit_Variable;
  c6:	4b03      	ldr	r3, [pc, #12]	(d4 <Keyboard_Edit_Variable+0xd4>)
  c8:	69da      	ldr	r2, [r3, #28]
  ca:	6843      	ldr	r3, [r0, #4]
  cc:	601a      	str	r2, [r3, #0]
C:\tien\PROJEKTY\procesory\STM\T108_V100a\sources/gui.c:2121
        break;
    }

}
  ce:	bd70      	pop	{r4, r5, r6, pc}
	...
Disassembly of section .text.First_Editable_Variable:

00000000 <First_Editable_Variable>:
First_Editable_Variable():
C:\tien\PROJEKTY\procesory\STM\T108_V100a\sources/gui.c:2149
* Output         : None
* Return         : None
*******************************************************************************/
static void First_Editable_Variable ( void )
{
    Variable_Editing_Ptr = Screen_Lcd[Screen_Number].Screen_Objects->Variable_Ptr;
   0:	4b09      	ldr	r3, [pc, #36]	(28 <First_Editable_Variable+0x28>)
   2:	4a0a      	ldr	r2, [pc, #40]	(2c <First_Editable_Variable+0x2c>)
   4:	781b      	ldrb	r3, [r3, #0]
   6:	210c      	movs	r1, #12
   8:	fb01 2303 	mla	r3, r1, r3, r2
   c:	685b      	ldr	r3, [r3, #4]
   e:	689a      	ldr	r2, [r3, #8]
  10:	4b07      	ldr	r3, [pc, #28]	(30 <First_Editable_Variable+0x30>)
  12:	601a      	str	r2, [r3, #0]
  14:	e003      	b.n	1e <First_Editable_Variable+0x1e>
C:\tien\PROJEKTY\procesory\STM\T108_V100a\sources/gui.c:2154

    while ( Variable_Editing_Ptr != NULL )
    {

        if ( Variable_Editing_Ptr->Edit_Var == TRUE )
  16:	7a13      	ldrb	r3, [r2, #8]
  18:	2b01      	cmp	r3, #1
  1a:	d002      	beq.n	22 <First_Editable_Variable+0x22>
C:\tien\PROJEKTY\procesory\STM\T108_V100a\sources/gui.c:2160
        {
            break;
        }
        else
        {
            Variable_Editing_Ptr = Variable_Editing_Ptr->Next_Variable;
  1c:	6952      	ldr	r2, [r2, #20]
C:\tien\PROJEKTY\procesory\STM\T108_V100a\sources/gui.c:2151
*******************************************************************************/
static void First_Editable_Variable ( void )
{
    Variable_Editing_Ptr = Screen_Lcd[Screen_Number].Screen_Objects->Variable_Ptr;

    while ( Variable_Editing_Ptr != NULL )
  1e:	2a00      	cmp	r2, #0
  20:	d1f9      	bne.n	16 <First_Editable_Variable+0x16>
  22:	4b03      	ldr	r3, [pc, #12]	(30 <First_Editable_Variable+0x30>)
  24:	601a      	str	r2, [r3, #0]
C:\tien\PROJEKTY\procesory\STM\T108_V100a\sources/gui.c:2163
        else
        {
            Variable_Editing_Ptr = Variable_Editing_Ptr->Next_Variable;
        }
    }
}
  26:	4770      	bx	lr
	...
Disassembly of section .text.Next_Editable_Variable:

00000000 <Next_Editable_Variable>:
Next_Editable_Variable():
C:\tien\PROJEKTY\procesory\STM\T108_V100a\sources/gui.c:2175
*******************************************************************************/
static uint8_t Next_Editable_Variable ( void )
{
//    Variable_Editing_Ptr = Screen_Lcd[Screen_Number].Screen_Objects->Variable_Ptr->Next_Variable;

    Variable_Editing_Ptr = Variable_Editing_Ptr->Next_Variable;
   0:	4a08      	ldr	r2, [pc, #32]	(24 <Next_Editable_Variable+0x24>)
   2:	6813      	ldr	r3, [r2, #0]
   4:	6958      	ldr	r0, [r3, #20]
   6:	6010      	str	r0, [r2, #0]
   8:	e007      	b.n	1a <Next_Editable_Variable+0x1a>
C:\tien\PROJEKTY\procesory\STM\T108_V100a\sources/gui.c:2179

    while ( Variable_Editing_Ptr != NULL )
    {
        if ( Variable_Editing_Ptr->Edit_Var == TRUE )
   a:	7a02      	ldrb	r2, [r0, #8]
   c:	2a01      	cmp	r2, #1
   e:	d103      	bne.n	18 <Next_Editable_Variable+0x18>
  10:	4b04      	ldr	r3, [pc, #16]	(24 <Next_Editable_Variable+0x24>)
  12:	6018      	str	r0, [r3, #0]
  14:	4610      	mov	r0, r2
  16:	e004      	b.n	22 <Next_Editable_Variable+0x22>
C:\tien\PROJEKTY\procesory\STM\T108_V100a\sources/gui.c:2185
        {
            return TRUE;
        }
        else
        {
            Variable_Editing_Ptr = Variable_Editing_Ptr->Next_Variable;
  18:	6940      	ldr	r0, [r0, #20]
C:\tien\PROJEKTY\procesory\STM\T108_V100a\sources/gui.c:2177
{
//    Variable_Editing_Ptr = Screen_Lcd[Screen_Number].Screen_Objects->Variable_Ptr->Next_Variable;

    Variable_Editing_Ptr = Variable_Editing_Ptr->Next_Variable;

    while ( Variable_Editing_Ptr != NULL )
  1a:	2800      	cmp	r0, #0
  1c:	d1f5      	bne.n	a <Next_Editable_Variable+0xa>
  1e:	4b01      	ldr	r3, [pc, #4]	(24 <Next_Editable_Variable+0x24>)
  20:	6018      	str	r0, [r3, #0]
C:\tien\PROJEKTY\procesory\STM\T108_V100a\sources/gui.c:2189
        {
            Variable_Editing_Ptr = Variable_Editing_Ptr->Next_Variable;
        }
    }
    return FALSE;
}
  22:	4770      	bx	lr
  24:	00          	.byte	0x00
  25:	00          	.byte	0x00
	...
Disassembly of section .text.Keyboard_Standby:

00000000 <Keyboard_Standby>:
Keyboard_Standby():
C:\tien\PROJEKTY\procesory\STM\T108_V100a\sources/gui.c:2447
*******************************************************************************/
static void Keyboard_Standby ( void )
{
        static uint8_t i;

    if ( Keyboard.Keyboard_Memory != 0 && Keyboard.Keyboard_Flag == 1 )
   0:	4b09      	ldr	r3, [pc, #36]	(28 <Keyboard_Standby+0x28>)
   2:	781a      	ldrb	r2, [r3, #0]
   4:	b15a      	cbz	r2, 1e <Keyboard_Standby+0x1e>
   6:	789b      	ldrb	r3, [r3, #2]
   8:	2b01      	cmp	r3, #1
   a:	d108      	bne.n	1e <Keyboard_Standby+0x1e>
C:\tien\PROJEKTY\procesory\STM\T108_V100a\sources/gui.c:2449
    {
        switch ( Keyboard.Keyboard_Memory )
   c:	2a01      	cmp	r2, #1
   e:	d103      	bne.n	18 <Keyboard_Standby+0x18>
C:\tien\PROJEKTY\procesory\STM\T108_V100a\sources/gui.c:2452
        {
            case KEY_ENTER:
                Screen_Number = CONTROLLER_ON;
  10:	4b06      	ldr	r3, [pc, #24]	(2c <Keyboard_Standby+0x2c>)
  12:	701a      	strb	r2, [r3, #0]
C:\tien\PROJEKTY\procesory\STM\T108_V100a\sources/gui.c:2453
                Reload_Screen = TRUE;         
  14:	4b06      	ldr	r3, [pc, #24]	(30 <Keyboard_Standby+0x30>)
  16:	701a      	strb	r2, [r3, #0]
C:\tien\PROJEKTY\procesory\STM\T108_V100a\sources/gui.c:2459
            break; 
                       
            default:
            break;
            }
        Keyboard.Keyboard_Flag = 0;
  18:	4b03      	ldr	r3, [pc, #12]	(28 <Keyboard_Standby+0x28>)
  1a:	2200      	movs	r2, #0
  1c:	709a      	strb	r2, [r3, #2]
C:\tien\PROJEKTY\procesory\STM\T108_V100a\sources/gui.c:2462
    }

    if ( Keyboard.Keyboard_State == 0 )
  1e:	4a02      	ldr	r2, [pc, #8]	(28 <Keyboard_Standby+0x28>)
  20:	7853      	ldrb	r3, [r2, #1]
  22:	b903      	cbnz	r3, 26 <Keyboard_Standby+0x26>
C:\tien\PROJEKTY\procesory\STM\T108_V100a\sources/gui.c:2464
    {
        Keyboard.Keyboard_Memory = 0;
  24:	7013      	strb	r3, [r2, #0]
C:\tien\PROJEKTY\procesory\STM\T108_V100a\sources/gui.c:2466
    }
}
  26:	4770      	bx	lr
	...
Disassembly of section .text.Keyboard_Enable:

00000000 <Keyboard_Enable>:
Keyboard_Enable():
C:\tien\PROJEKTY\procesory\STM\T108_V100a\sources/gui.c:2478
* Return         : None
*******************************************************************************/
static void Keyboard_Enable ( void )
{

    if ( Keyboard.Keyboard_Memory != 0 && Keyboard.Keyboard_Flag == 1 )
   0:	4b17      	ldr	r3, [pc, #92]	(60 <Keyboard_Enable+0x60>)
   2:	7819      	ldrb	r1, [r3, #0]
   4:	2900      	cmp	r1, #0
   6:	d025      	beq.n	54 <Keyboard_Enable+0x54>
   8:	7898      	ldrb	r0, [r3, #2]
   a:	2801      	cmp	r0, #1
   c:	d122      	bne.n	54 <Keyboard_Enable+0x54>
C:\tien\PROJEKTY\procesory\STM\T108_V100a\sources/gui.c:2480
    {
        switch ( Keyboard.Keyboard_Memory )
   e:	2902      	cmp	r1, #2
  10:	d008      	beq.n	24 <Keyboard_Enable+0x24>
  12:	d802      	bhi.n	1a <Keyboard_Enable+0x1a>
  14:	2901      	cmp	r1, #1
  16:	d11a      	bne.n	4e <Keyboard_Enable+0x4e>
  18:	e00f      	b.n	3a <Keyboard_Enable+0x3a>
  1a:	2908      	cmp	r1, #8
  1c:	d008      	beq.n	30 <Keyboard_Enable+0x30>
  1e:	2920      	cmp	r1, #32
  20:	d115      	bne.n	4e <Keyboard_Enable+0x4e>
  22:	e005      	b.n	30 <Keyboard_Enable+0x30>
C:\tien\PROJEKTY\procesory\STM\T108_V100a\sources/gui.c:2483
        {
            case KEY_ESCAPE:
                    Screen_Number = STANDBY_SCR;
  24:	4a0f      	ldr	r2, [pc, #60]	(64 <Keyboard_Enable+0x64>)
  26:	2300      	movs	r3, #0
  28:	7013      	strb	r3, [r2, #0]
C:\tien\PROJEKTY\procesory\STM\T108_V100a\sources/gui.c:2484
                    Reload_Screen = TRUE;
  2a:	4b0f      	ldr	r3, [pc, #60]	(68 <Keyboard_Enable+0x68>)
  2c:	7018      	strb	r0, [r3, #0]
  2e:	e00e      	b.n	4e <Keyboard_Enable+0x4e>
C:\tien\PROJEKTY\procesory\STM\T108_V100a\sources/gui.c:2492
            case KEY_UP:
                Inputs_Error_Mask = 0;
            break;
  
            case KEY_DOWN:
                Inputs_Error_Mask = 0;
  30:	4b0e      	ldr	r3, [pc, #56]	(6c <Keyboard_Enable+0x6c>)
  32:	f04f 0200 	mov.w	r2, #0	; 0x0
  36:	801a      	strh	r2, [r3, #0]
  38:	e009      	b.n	4e <Keyboard_Enable+0x4e>
C:\tien\PROJEKTY\procesory\STM\T108_V100a\sources/gui.c:2496
            break;
            
            case KEY_ENTER:
                    Menu_Keys.First_On_Screen = 0;
  3a:	4a0d      	ldr	r2, [pc, #52]	(70 <Keyboard_Enable+0x70>)
  3c:	2300      	movs	r3, #0
  3e:	7453      	strb	r3, [r2, #17]
C:\tien\PROJEKTY\procesory\STM\T108_V100a\sources/gui.c:2497
                    Menu_Keys.Active_String = 0;
  40:	7493      	strb	r3, [r2, #18]
C:\tien\PROJEKTY\procesory\STM\T108_V100a\sources/gui.c:2498
                    Menu_Keys.Active_On_Screen = 0;
  42:	74d3      	strb	r3, [r2, #19]
C:\tien\PROJEKTY\procesory\STM\T108_V100a\sources/gui.c:2499
                    Screen_Number = MENU;
  44:	4b07      	ldr	r3, [pc, #28]	(64 <Keyboard_Enable+0x64>)
  46:	2202      	movs	r2, #2
  48:	701a      	strb	r2, [r3, #0]
C:\tien\PROJEKTY\procesory\STM\T108_V100a\sources/gui.c:2500
                    Reload_Screen = TRUE;
  4a:	4b07      	ldr	r3, [pc, #28]	(68 <Keyboard_Enable+0x68>)
  4c:	7019      	strb	r1, [r3, #0]
C:\tien\PROJEKTY\procesory\STM\T108_V100a\sources/gui.c:2506
            break;

            default:
            break;
        }
        Keyboard.Keyboard_Flag = 0;
  4e:	4b04      	ldr	r3, [pc, #16]	(60 <Keyboard_Enable+0x60>)
  50:	2200      	movs	r2, #0
  52:	709a      	strb	r2, [r3, #2]
C:\tien\PROJEKTY\procesory\STM\T108_V100a\sources/gui.c:2509
    }

    if ( Keyboard.Keyboard_State == 0 )
  54:	4a02      	ldr	r2, [pc, #8]	(60 <Keyboard_Enable+0x60>)
  56:	7853      	ldrb	r3, [r2, #1]
  58:	b903      	cbnz	r3, 5c <Keyboard_Enable+0x5c>
C:\tien\PROJEKTY\procesory\STM\T108_V100a\sources/gui.c:2511
    {
        Keyboard.Keyboard_Memory = 0;
  5a:	7013      	strb	r3, [r2, #0]
C:\tien\PROJEKTY\procesory\STM\T108_V100a\sources/gui.c:2513
    }
}
  5c:	4770      	bx	lr
  5e:	46c0      	nop			(mov r8, r8)
	...
Disassembly of section .text.Keyboard_Menu:

00000000 <Keyboard_Menu>:
Keyboard_Menu():
C:\tien\PROJEKTY\procesory\STM\T108_V100a\sources/gui.c:2523
* Input          : None
* Output         : None
* Return         : None
*******************************************************************************/
static void Keyboard_Menu ( void )
{
   0:	b51f      	push	{r0, r1, r2, r3, r4, lr}
C:\tien\PROJEKTY\procesory\STM\T108_V100a\sources/gui.c:2537
        SUBMENU4,
        HASLO,
        KONTAKT,
        INFO,
        LICENCJA,
    };
   2:	220c      	movs	r2, #12
   4:	a801      	add	r0, sp, #4
   6:	4943      	ldr	r1, [pc, #268]	(114 <Keyboard_Menu+0x114>)
   8:	f7ff fffe 	bl	0 <memcpy>
C:\tien\PROJEKTY\procesory\STM\T108_V100a\sources/gui.c:2539

    if ( Keyboard.Keyboard_Memory != 0 && Keyboard.Keyboard_Flag == 1 )
   c:	4a42      	ldr	r2, [pc, #264]	(118 <Keyboard_Menu+0x118>)
   e:	7813      	ldrb	r3, [r2, #0]
  10:	2b00      	cmp	r3, #0
  12:	d07a      	beq.n	10a <Keyboard_Menu+0x10a>
  14:	7891      	ldrb	r1, [r2, #2]
  16:	2901      	cmp	r1, #1
  18:	d177      	bne.n	10a <Keyboard_Menu+0x10a>
C:\tien\PROJEKTY\procesory\STM\T108_V100a\sources/gui.c:2541
    {
        switch ( Keyboard.Keyboard_Memory )
  1a:	2b01      	cmp	r3, #1
  1c:	d009      	beq.n	32 <Keyboard_Menu+0x32>
  1e:	2b02      	cmp	r3, #2
  20:	d16e      	bne.n	100 <Keyboard_Menu+0x100>
C:\tien\PROJEKTY\procesory\STM\T108_V100a\sources/gui.c:2544
        {
            case KEY_ESCAPE:
                Variable_Editing_Ptr = NULL;
  22:	4b3e      	ldr	r3, [pc, #248]	(11c <Keyboard_Menu+0x11c>)
  24:	2200      	movs	r2, #0
  26:	601a      	str	r2, [r3, #0]
C:\tien\PROJEKTY\procesory\STM\T108_V100a\sources/gui.c:2545
                Screen_Number = CONTROLLER_ON;
  28:	4b3d      	ldr	r3, [pc, #244]	(120 <Keyboard_Menu+0x120>)
  2a:	7019      	strb	r1, [r3, #0]
C:\tien\PROJEKTY\procesory\STM\T108_V100a\sources/gui.c:2546
                Reload_Screen = TRUE;
  2c:	4b3d      	ldr	r3, [pc, #244]	(124 <Keyboard_Menu+0x124>)
  2e:	7019      	strb	r1, [r3, #0]
  30:	e068      	b.n	104 <Keyboard_Menu+0x104>
C:\tien\PROJEKTY\procesory\STM\T108_V100a\sources/gui.c:2550
            break;

            case KEY_ENTER:
                Menu_Backup_Keys = Menu_Keys;
  32:	4c3d      	ldr	r4, [pc, #244]	(128 <Keyboard_Menu+0x128>)
  34:	2203      	movs	r2, #3
  36:	f104 0111 	add.w	r1, r4, #17	; 0x11
  3a:	483c      	ldr	r0, [pc, #240]	(f4 <memcpy+0xf4>)
  3c:	f7ff fffe 	bl	0 <memcpy>
C:\tien\PROJEKTY\procesory\STM\T108_V100a\sources/gui.c:2551
                Menu_Backup_Keys_Set = Menu_Keys;
  40:	2203      	movs	r2, #3
  42:	483b      	ldr	r0, [pc, #236]	(130 <Keyboard_Menu+0x130>)
  44:	f104 0111 	add.w	r1, r4, #17	; 0x11
  48:	f7ff fffe 	bl	0 <memcpy>
C:\tien\PROJEKTY\procesory\STM\T108_V100a\sources/gui.c:2553
                
if (
  4c:	7ca3      	ldrb	r3, [r4, #18]
  4e:	2b02      	cmp	r3, #2
  50:	d90b      	bls.n	6a <Keyboard_Menu+0x6a>
  52:	2b04      	cmp	r3, #4
  54:	d009      	beq.n	6a <Keyboard_Menu+0x6a>
  56:	2b05      	cmp	r3, #5
  58:	d007      	beq.n	6a <Keyboard_Menu+0x6a>
  5a:	2b08      	cmp	r3, #8
  5c:	d005      	beq.n	6a <Keyboard_Menu+0x6a>
  5e:	2b09      	cmp	r3, #9
  60:	d003      	beq.n	6a <Keyboard_Menu+0x6a>
  62:	2b0a      	cmp	r3, #10
  64:	d001      	beq.n	6a <Keyboard_Menu+0x6a>
  66:	2b0b      	cmp	r3, #11
  68:	d146      	bne.n	f8 <Keyboard_Menu+0xf8>
C:\tien\PROJEKTY\procesory\STM\T108_V100a\sources/gui.c:2564
Menu_Keys.Active_String == 8 ||
Menu_Keys.Active_String == 9 ||
Menu_Keys.Active_String == 10 ||
Menu_Keys.Active_String == 11 )
{
                Screen_Number = Next_Screen[Menu_Keys.Active_String];
  6a:	aa04      	add	r2, sp, #16
  6c:	18d3      	adds	r3, r2, r3
  6e:	f813 2c0c 	ldrb.w	r2, [r3, #-12]
  72:	4b2b      	ldr	r3, [pc, #172]	(120 <Keyboard_Menu+0x120>)
C:\tien\PROJEKTY\procesory\STM\T108_V100a\sources/gui.c:2566

                if ( Screen_Number == SUBMENU2 )
  74:	2a04      	cmp	r2, #4
C:\tien\PROJEKTY\procesory\STM\T108_V100a\sources/gui.c:2564
Menu_Keys.Active_String == 8 ||
Menu_Keys.Active_String == 9 ||
Menu_Keys.Active_String == 10 ||
Menu_Keys.Active_String == 11 )
{
                Screen_Number = Next_Screen[Menu_Keys.Active_String];
  76:	701a      	strb	r2, [r3, #0]
C:\tien\PROJEKTY\procesory\STM\T108_V100a\sources/gui.c:2566

                if ( Screen_Number == SUBMENU2 )
  78:	d104      	bne.n	84 <Keyboard_Menu+0x84>
C:\tien\PROJEKTY\procesory\STM\T108_V100a\sources/gui.c:2568
                {
                    Count_Add = 0;
  7a:	4b2e      	ldr	r3, [pc, #184]	(134 <Keyboard_Menu+0x134>)
  7c:	2200      	movs	r2, #0
  7e:	701a      	strb	r2, [r3, #0]
C:\tien\PROJEKTY\procesory\STM\T108_V100a\sources/gui.c:2569
                    First_Editable_Variable();
  80:	f7ff fffe 	bl	0 <Keyboard_Menu>
C:\tien\PROJEKTY\procesory\STM\T108_V100a\sources/gui.c:2572
                }
            
                if ( Screen_Number == DATA_I_CZAS )
  84:	4b26      	ldr	r3, [pc, #152]	(120 <Keyboard_Menu+0x120>)
  86:	781b      	ldrb	r3, [r3, #0]
  88:	2b0d      	cmp	r3, #13
  8a:	d10e      	bne.n	aa <Keyboard_Menu+0xaa>
C:\tien\PROJEKTY\procesory\STM\T108_V100a\sources/gui.c:2574
                {
                    Time_Set = Time;
  8c:	492a      	ldr	r1, [pc, #168]	(138 <Keyboard_Menu+0x138>)
  8e:	2203      	movs	r2, #3
  90:	482a      	ldr	r0, [pc, #168]	(13c <Keyboard_Menu+0x13c>)
  92:	f7ff fffe 	bl	0 <memcpy>
C:\tien\PROJEKTY\procesory\STM\T108_V100a\sources/gui.c:2575
                    Date_Set = Date;
  96:	2206      	movs	r2, #6
  98:	4829      	ldr	r0, [pc, #164]	(140 <Keyboard_Menu+0x140>)
  9a:	492a      	ldr	r1, [pc, #168]	(144 <Keyboard_Menu+0x144>)
  9c:	f7ff fffe 	bl	0 <memcpy>
C:\tien\PROJEKTY\procesory\STM\T108_V100a\sources/gui.c:2576
                    Count_Add = 0;
  a0:	4b24      	ldr	r3, [pc, #144]	(134 <Keyboard_Menu+0x134>)
  a2:	2200      	movs	r2, #0
  a4:	701a      	strb	r2, [r3, #0]
C:\tien\PROJEKTY\procesory\STM\T108_V100a\sources/gui.c:2577
                    First_Editable_Variable();
  a6:	f7ff fffe 	bl	0 <Keyboard_Menu>
C:\tien\PROJEKTY\procesory\STM\T108_V100a\sources/gui.c:2580
                }
    
                if ( Screen_Number == FUNKCJE_DODATKOWE1 )
  aa:	4b1d      	ldr	r3, [pc, #116]	(120 <Keyboard_Menu+0x120>)
  ac:	781b      	ldrb	r3, [r3, #0]
  ae:	2b09      	cmp	r3, #9
  b0:	d104      	bne.n	bc <Keyboard_Menu+0xbc>
C:\tien\PROJEKTY\procesory\STM\T108_V100a\sources/gui.c:2582
                {
                    Count_Add = 0;
  b2:	4b20      	ldr	r3, [pc, #128]	(134 <Keyboard_Menu+0x134>)
  b4:	2200      	movs	r2, #0
  b6:	701a      	strb	r2, [r3, #0]
C:\tien\PROJEKTY\procesory\STM\T108_V100a\sources/gui.c:2583
                    First_Editable_Variable();
  b8:	f7ff fffe 	bl	0 <Keyboard_Menu>
C:\tien\PROJEKTY\procesory\STM\T108_V100a\sources/gui.c:2586
                }
            
                if ( Screen_Number == SUBMENU1 || Screen_Number == SUBMENU2 || Screen_Number == SUBMENU3 || Screen_Number == SUBMENU4 )
  bc:	4b18      	ldr	r3, [pc, #96]	(120 <Keyboard_Menu+0x120>)
  be:	7819      	ldrb	r1, [r3, #0]
  c0:	1ecb      	subs	r3, r1, #3
  c2:	b2db      	uxtb	r3, r3
  c4:	2b01      	cmp	r3, #1
  c6:	d903      	bls.n	d0 <Keyboard_Menu+0xd0>
  c8:	2908      	cmp	r1, #8
  ca:	d001      	beq.n	d0 <Keyboard_Menu+0xd0>
  cc:	290f      	cmp	r1, #15
  ce:	d104      	bne.n	da <Keyboard_Menu+0xda>
C:\tien\PROJEKTY\procesory\STM\T108_V100a\sources/gui.c:2588
                {
                    Menu_Keys.First_On_Screen = 0;
  d0:	4a15      	ldr	r2, [pc, #84]	(128 <Keyboard_Menu+0x128>)
  d2:	2300      	movs	r3, #0
  d4:	7453      	strb	r3, [r2, #17]
C:\tien\PROJEKTY\procesory\STM\T108_V100a\sources/gui.c:2589
                    Menu_Keys.Active_String = 0;
  d6:	7493      	strb	r3, [r2, #18]
C:\tien\PROJEKTY\procesory\STM\T108_V100a\sources/gui.c:2590
                    Menu_Keys.Active_On_Screen = 0;    
  d8:	74d3      	strb	r3, [r2, #19]
C:\tien\PROJEKTY\procesory\STM\T108_V100a\sources/gui.c:2593
                }
            
                if ( Screen_Number == HASLO )
  da:	2913      	cmp	r1, #19
  dc:	d10c      	bne.n	f8 <Keyboard_Menu+0xf8>
C:\tien\PROJEKTY\procesory\STM\T108_V100a\sources/gui.c:2595
                {
                   Password_Set = 0;
  de:	4b12      	ldr	r3, [pc, #72]	(128 <Keyboard_Menu+0x128>)
  e0:	2200      	movs	r2, #0
  e2:	621a      	str	r2, [r3, #32]
C:\tien\PROJEKTY\procesory\STM\T108_V100a\sources/gui.c:2596
                   Count_Add = 0;
  e4:	4b13      	ldr	r3, [pc, #76]	(134 <Keyboard_Menu+0x134>)
  e6:	701a      	strb	r2, [r3, #0]
C:\tien\PROJEKTY\procesory\STM\T108_V100a\sources/gui.c:2597
                   First_Editable_Variable();
  e8:	f7ff fffe 	bl	0 <Keyboard_Menu>
C:\tien\PROJEKTY\procesory\STM\T108_V100a\sources/gui.c:2598
                   Screen_Before_Password = MENU;
  ec:	4b16      	ldr	r3, [pc, #88]	(148 <Keyboard_Menu+0x148>)
  ee:	2202      	movs	r2, #2
  f0:	701a      	strb	r2, [r3, #0]
C:\tien\PROJEKTY\procesory\STM\T108_V100a\sources/gui.c:2599
                   Screen_After_Password = UST_FABRYCZNE;
  f2:	4b16      	ldr	r3, [pc, #88]	(14c <Keyboard_Menu+0x14c>)
  f4:	320e      	adds	r2, #14
  f6:	701a      	strb	r2, [r3, #0]
C:\tien\PROJEKTY\procesory\STM\T108_V100a\sources/gui.c:2602
                }
}            
                Reload_Screen = TRUE;  
  f8:	4b0a      	ldr	r3, [pc, #40]	(124 <Keyboard_Menu+0x124>)
  fa:	2201      	movs	r2, #1
  fc:	701a      	strb	r2, [r3, #0]
  fe:	e001      	b.n	104 <Keyboard_Menu+0x104>
C:\tien\PROJEKTY\procesory\STM\T108_V100a\sources/gui.c:2607

            break;
            
            default:
                Menu_Keyboard();
 100:	f7ff fffe 	bl	0 <Keyboard_Menu>
C:\tien\PROJEKTY\procesory\STM\T108_V100a\sources/gui.c:2610
            break;
        }
        Keyboard.Keyboard_Flag = 0;
 104:	4b04      	ldr	r3, [pc, #16]	(118 <Keyboard_Menu+0x118>)
 106:	2200      	movs	r2, #0
 108:	709a      	strb	r2, [r3, #2]
C:\tien\PROJEKTY\procesory\STM\T108_V100a\sources/gui.c:2613
    }

    if ( Keyboard.Keyboard_State == 0 )
 10a:	4a03      	ldr	r2, [pc, #12]	(118 <Keyboard_Menu+0x118>)
 10c:	7853      	ldrb	r3, [r2, #1]
 10e:	b903      	cbnz	r3, 112 <Keyboard_Menu+0x112>
C:\tien\PROJEKTY\procesory\STM\T108_V100a\sources/gui.c:2615
    {
        Keyboard.Keyboard_Memory = 0;
 110:	7013      	strb	r3, [r2, #0]
C:\tien\PROJEKTY\procesory\STM\T108_V100a\sources/gui.c:2617
    }
}
 112:	bd1f      	pop	{r0, r1, r2, r3, r4, pc}
 114:	000002a8 	.word	0x000002a8
	...
Disassembly of section .text.Keyboard_Submenu1:

00000000 <Keyboard_Submenu1>:
Keyboard_Submenu1():
C:\tien\PROJEKTY\procesory\STM\T108_V100a\sources/gui.c:2691
* Input          : None
* Output         : None
* Return         : None
*******************************************************************************/
static void Keyboard_Submenu1 ( void )
{
   0:	b530      	push	{r4, r5, lr}
   2:	b085      	sub	sp, #20
C:\tien\PROJEKTY\procesory\STM\T108_V100a\sources/gui.c:2700
        HASLO,
        HASLO,
        HASLO,
        HASLO,
        CZUJNIKI_MENU,
    };
   4:	4931      	ldr	r1, [pc, #196]	(cc <Keyboard_Submenu1+0xcc>)
   6:	2207      	movs	r2, #7
   8:	f10d 0009 	add.w	r0, sp, #9	; 0x9
   c:	f7ff fffe 	bl	0 <memcpy>
C:\tien\PROJEKTY\procesory\STM\T108_V100a\sources/gui.c:2711
        USTAW_WEWY1,
        WE_STER1,
        WY_PRZEK1,
        CZUJNIKI_MENU,

    };
  10:	f10d 0002 	add.w	r0, sp, #2	; 0x2
  14:	492e      	ldr	r1, [pc, #184]	(d0 <Keyboard_Submenu1+0xd0>)
  16:	2207      	movs	r2, #7
  18:	f7ff fffe 	bl	0 <memcpy>
C:\tien\PROJEKTY\procesory\STM\T108_V100a\sources/gui.c:2713

    if ( Keyboard.Keyboard_Memory != 0 && Keyboard.Keyboard_Flag == 1 )
  1c:	4b2d      	ldr	r3, [pc, #180]	(d4 <Keyboard_Submenu1+0xd4>)
  1e:	781c      	ldrb	r4, [r3, #0]
  20:	2c00      	cmp	r4, #0
  22:	d04c      	beq.n	be <Keyboard_Submenu1+0xbe>
  24:	789d      	ldrb	r5, [r3, #2]
  26:	2d01      	cmp	r5, #1
  28:	d149      	bne.n	be <Keyboard_Submenu1+0xbe>
C:\tien\PROJEKTY\procesory\STM\T108_V100a\sources/gui.c:2715
    {
        switch ( Keyboard.Keyboard_Memory )
  2a:	2c01      	cmp	r4, #1
  2c:	d00e      	beq.n	4c <Keyboard_Submenu1+0x4c>
  2e:	2c02      	cmp	r4, #2
  30:	d140      	bne.n	b4 <Keyboard_Submenu1+0xb4>
C:\tien\PROJEKTY\procesory\STM\T108_V100a\sources/gui.c:2718
        {
            case KEY_ESCAPE:
                Variable_Editing_Ptr = NULL;
  32:	4b29      	ldr	r3, [pc, #164]	(d8 <Keyboard_Submenu1+0xd8>)
  34:	2200      	movs	r2, #0
  36:	601a      	str	r2, [r3, #0]
C:\tien\PROJEKTY\procesory\STM\T108_V100a\sources/gui.c:2719
                Menu_Keys = Menu_Backup_Keys;
  38:	4828      	ldr	r0, [pc, #160]	(dc <Keyboard_Submenu1+0xdc>)
  3a:	4929      	ldr	r1, [pc, #164]	(e0 <Keyboard_Submenu1+0xe0>)
  3c:	3203      	adds	r2, #3
  3e:	f7ff fffe 	bl	0 <memcpy>
C:\tien\PROJEKTY\procesory\STM\T108_V100a\sources/gui.c:2720
                Screen_Number = MENU;
  42:	4b28      	ldr	r3, [pc, #160]	(e4 <Keyboard_Submenu1+0xe4>)
  44:	701c      	strb	r4, [r3, #0]
C:\tien\PROJEKTY\procesory\STM\T108_V100a\sources/gui.c:2721
                Reload_Screen = TRUE;
  46:	4b28      	ldr	r3, [pc, #160]	(e8 <Keyboard_Submenu1+0xe8>)
  48:	701d      	strb	r5, [r3, #0]
  4a:	e035      	b.n	b8 <Keyboard_Submenu1+0xb8>
C:\tien\PROJEKTY\procesory\STM\T108_V100a\sources/gui.c:2725
            break;

            case KEY_ENTER:
                Edit_Parameter_Counter = 0;
  4c:	4c27      	ldr	r4, [pc, #156]	(ec <Keyboard_Submenu1+0xec>)
  4e:	2500      	movs	r5, #0
C:\tien\PROJEKTY\procesory\STM\T108_V100a\sources/gui.c:2726
                Menu_Backup_Keys_Set = Menu_Keys;
  50:	2203      	movs	r2, #3
  52:	f104 0111 	add.w	r1, r4, #17	; 0x11
C:\tien\PROJEKTY\procesory\STM\T108_V100a\sources/gui.c:2725
                Screen_Number = MENU;
                Reload_Screen = TRUE;
            break;

            case KEY_ENTER:
                Edit_Parameter_Counter = 0;
  56:	f884 5024 	strb.w	r5, [r4, #36]
C:\tien\PROJEKTY\procesory\STM\T108_V100a\sources/gui.c:2726
                Menu_Backup_Keys_Set = Menu_Keys;
  5a:	4825      	ldr	r0, [pc, #148]	(98 <memcpy+0x98>)
  5c:	f7ff fffe 	bl	0 <memcpy>
C:\tien\PROJEKTY\procesory\STM\T108_V100a\sources/gui.c:2727
                Menu_Backup_Keys_Sensors = Menu_Keys;
  60:	2203      	movs	r2, #3
  62:	4824      	ldr	r0, [pc, #144]	(f4 <Keyboard_Submenu1+0xf4>)
  64:	f104 0111 	add.w	r1, r4, #17	; 0x11
  68:	f7ff fffe 	bl	0 <memcpy>
C:\tien\PROJEKTY\procesory\STM\T108_V100a\sources/gui.c:2729
            
                Screen_Number = Next_Param_Screen[Menu_Keys.Active_String];
  6c:	7ca3      	ldrb	r3, [r4, #18]
  6e:	aa04      	add	r2, sp, #16
  70:	18d3      	adds	r3, r2, r3
  72:	f813 2c07 	ldrb.w	r2, [r3, #-7]
  76:	4b1b      	ldr	r3, [pc, #108]	(e4 <Keyboard_Submenu1+0xe4>)
C:\tien\PROJEKTY\procesory\STM\T108_V100a\sources/gui.c:2731

                if ( Screen_Number == HASLO )
  78:	2a13      	cmp	r2, #19
C:\tien\PROJEKTY\procesory\STM\T108_V100a\sources/gui.c:2729
            case KEY_ENTER:
                Edit_Parameter_Counter = 0;
                Menu_Backup_Keys_Set = Menu_Keys;
                Menu_Backup_Keys_Sensors = Menu_Keys;
            
                Screen_Number = Next_Param_Screen[Menu_Keys.Active_String];
  7a:	701a      	strb	r2, [r3, #0]
C:\tien\PROJEKTY\procesory\STM\T108_V100a\sources/gui.c:2731

                if ( Screen_Number == HASLO )
  7c:	d101      	bne.n	82 <Keyboard_Submenu1+0x82>
C:\tien\PROJEKTY\procesory\STM\T108_V100a\sources/gui.c:2733
                {
                    Password_Set = 0;
  7e:	6225      	str	r5, [r4, #32]
  80:	e004      	b.n	8c <Keyboard_Submenu1+0x8c>
C:\tien\PROJEKTY\procesory\STM\T108_V100a\sources/gui.c:2736
                }

                if ( Screen_Number == CZUJNIKI_MENU )
  82:	2a20      	cmp	r2, #32
  84:	d102      	bne.n	8c <Keyboard_Submenu1+0x8c>
C:\tien\PROJEKTY\procesory\STM\T108_V100a\sources/gui.c:2738
                {
                    Menu_Keys.First_On_Screen = 0;
  86:	7465      	strb	r5, [r4, #17]
C:\tien\PROJEKTY\procesory\STM\T108_V100a\sources/gui.c:2739
                    Menu_Keys.Active_String = 0;
  88:	74a5      	strb	r5, [r4, #18]
C:\tien\PROJEKTY\procesory\STM\T108_V100a\sources/gui.c:2740
                    Menu_Keys.Active_On_Screen = 0;    
  8a:	74e5      	strb	r5, [r4, #19]
C:\tien\PROJEKTY\procesory\STM\T108_V100a\sources/gui.c:2743
                }
            
                Screen_Before_Password = SUBMENU1;
  8c:	4b1a      	ldr	r3, [pc, #104]	(f8 <Keyboard_Submenu1+0xf8>)
  8e:	2203      	movs	r2, #3
  90:	701a      	strb	r2, [r3, #0]
C:\tien\PROJEKTY\procesory\STM\T108_V100a\sources/gui.c:2744
                Screen_After_Password = After_Pass_Screen[Menu_Keys.Active_String];
  92:	4b16      	ldr	r3, [pc, #88]	(ec <Keyboard_Submenu1+0xec>)
  94:	aa04      	add	r2, sp, #16
  96:	7c9b      	ldrb	r3, [r3, #18]
  98:	18d3      	adds	r3, r2, r3
  9a:	f813 2c0e 	ldrb.w	r2, [r3, #-14]
  9e:	4b17      	ldr	r3, [pc, #92]	(fc <Keyboard_Submenu1+0xfc>)
  a0:	701a      	strb	r2, [r3, #0]
C:\tien\PROJEKTY\procesory\STM\T108_V100a\sources/gui.c:2745
                Count_Add = 0;
  a2:	4b17      	ldr	r3, [pc, #92]	(100 <Keyboard_Submenu1+0x100>)
  a4:	2200      	movs	r2, #0
  a6:	701a      	strb	r2, [r3, #0]
C:\tien\PROJEKTY\procesory\STM\T108_V100a\sources/gui.c:2746
                First_Editable_Variable();
  a8:	f7ff fffe 	bl	0 <Keyboard_Submenu1>
C:\tien\PROJEKTY\procesory\STM\T108_V100a\sources/gui.c:2747
                Reload_Screen = TRUE;
  ac:	4b0e      	ldr	r3, [pc, #56]	(e8 <Keyboard_Submenu1+0xe8>)
  ae:	2201      	movs	r2, #1
  b0:	701a      	strb	r2, [r3, #0]
  b2:	e001      	b.n	b8 <Keyboard_Submenu1+0xb8>
C:\tien\PROJEKTY\procesory\STM\T108_V100a\sources/gui.c:2751
            break;

            default:
                Menu_Keyboard();
  b4:	f7ff fffe 	bl	0 <Keyboard_Submenu1>
C:\tien\PROJEKTY\procesory\STM\T108_V100a\sources/gui.c:2754
            break;
        }
        Keyboard.Keyboard_Flag = 0;
  b8:	4b06      	ldr	r3, [pc, #24]	(d4 <Keyboard_Submenu1+0xd4>)
  ba:	2200      	movs	r2, #0
  bc:	709a      	strb	r2, [r3, #2]
C:\tien\PROJEKTY\procesory\STM\T108_V100a\sources/gui.c:2757
    }

    if ( Keyboard.Keyboard_State == 0 )
  be:	4a05      	ldr	r2, [pc, #20]	(d4 <Keyboard_Submenu1+0xd4>)
  c0:	7853      	ldrb	r3, [r2, #1]
  c2:	b903      	cbnz	r3, c6 <Keyboard_Submenu1+0xc6>
C:\tien\PROJEKTY\procesory\STM\T108_V100a\sources/gui.c:2759
    {
        Keyboard.Keyboard_Memory = 0;
  c4:	7013      	strb	r3, [r2, #0]
C:\tien\PROJEKTY\procesory\STM\T108_V100a\sources/gui.c:2761
    }
}
  c6:	b005      	add	sp, #20
  c8:	bd30      	pop	{r4, r5, pc}
  ca:	46c0      	nop			(mov r8, r8)
  cc:	000002b4 	.word	0x000002b4
  d0:	000002bb 	.word	0x000002bb
	...
  dc:	00000011 	.word	0x00000011
	...
Disassembly of section .text.Keyboard_Submenu3:

00000000 <Keyboard_Submenu3>:
Keyboard_Submenu3():
C:\tien\PROJEKTY\procesory\STM\T108_V100a\sources/gui.c:2839
* Input          : None
* Output         : None
* Return         : None
*******************************************************************************/
static void Keyboard_Submenu3 ( void )
{
   0:	b530      	push	{r4, r5, lr}
   2:	b085      	sub	sp, #20
C:\tien\PROJEKTY\procesory\STM\T108_V100a\sources/gui.c:2846
        WYB_JEZ,
        HASLO,
        HASLO,
        HASLO, 
        HASLO,    
    };
   4:	492e      	ldr	r1, [pc, #184]	(c0 <Keyboard_Submenu3+0xc0>)
   6:	2205      	movs	r2, #5
   8:	f10d 000b 	add.w	r0, sp, #11	; 0xb
   c:	f7ff fffe 	bl	0 <memcpy>
C:\tien\PROJEKTY\procesory\STM\T108_V100a\sources/gui.c:2854
        WYB_JEZ,
        UST_HASEL,
        UST_BLOKADY,
        KAL_RTC, 
        ZER_LICZNIKI,
    };
  10:	f10d 0006 	add.w	r0, sp, #6	; 0x6
  14:	492b      	ldr	r1, [pc, #172]	(c4 <Keyboard_Submenu3+0xc4>)
  16:	2205      	movs	r2, #5
  18:	f7ff fffe 	bl	0 <memcpy>
C:\tien\PROJEKTY\procesory\STM\T108_V100a\sources/gui.c:2858



    if ( Keyboard.Keyboard_Memory != 0 && Keyboard.Keyboard_Flag == 1 )
  1c:	4b2a      	ldr	r3, [pc, #168]	(c8 <Keyboard_Submenu3+0xc8>)
  1e:	781c      	ldrb	r4, [r3, #0]
  20:	2c00      	cmp	r4, #0
  22:	d047      	beq.n	b4 <Keyboard_Submenu3+0xb4>
  24:	789d      	ldrb	r5, [r3, #2]
  26:	2d01      	cmp	r5, #1
  28:	d144      	bne.n	b4 <Keyboard_Submenu3+0xb4>
C:\tien\PROJEKTY\procesory\STM\T108_V100a\sources/gui.c:2860
    {
        switch ( Keyboard.Keyboard_Memory )
  2a:	2c01      	cmp	r4, #1
  2c:	d00e      	beq.n	4c <Keyboard_Submenu3+0x4c>
  2e:	2c02      	cmp	r4, #2
  30:	d13b      	bne.n	aa <Keyboard_Submenu3+0xaa>
C:\tien\PROJEKTY\procesory\STM\T108_V100a\sources/gui.c:2863
        {
            case KEY_ESCAPE:
                    Variable_Editing_Ptr = NULL;
  32:	4b26      	ldr	r3, [pc, #152]	(cc <Keyboard_Submenu3+0xcc>)
  34:	2200      	movs	r2, #0
  36:	601a      	str	r2, [r3, #0]
C:\tien\PROJEKTY\procesory\STM\T108_V100a\sources/gui.c:2864
                    Menu_Keys = Menu_Backup_Keys;
  38:	4825      	ldr	r0, [pc, #148]	(d0 <Keyboard_Submenu3+0xd0>)
  3a:	4926      	ldr	r1, [pc, #152]	(d4 <Keyboard_Submenu3+0xd4>)
  3c:	3203      	adds	r2, #3
  3e:	f7ff fffe 	bl	0 <memcpy>
C:\tien\PROJEKTY\procesory\STM\T108_V100a\sources/gui.c:2865
                    Screen_Number = MENU;
  42:	4b25      	ldr	r3, [pc, #148]	(d8 <Keyboard_Submenu3+0xd8>)
  44:	701c      	strb	r4, [r3, #0]
C:\tien\PROJEKTY\procesory\STM\T108_V100a\sources/gui.c:2866
                    Reload_Screen = TRUE;
  46:	4b25      	ldr	r3, [pc, #148]	(dc <Keyboard_Submenu3+0xdc>)
  48:	701d      	strb	r5, [r3, #0]
  4a:	e030      	b.n	ae <Keyboard_Submenu3+0xae>
C:\tien\PROJEKTY\procesory\STM\T108_V100a\sources/gui.c:2870
            break;

            case KEY_ENTER:
                   Menu_Backup_Keys_Set = Menu_Keys;
  4c:	4c24      	ldr	r4, [pc, #144]	(e0 <Keyboard_Submenu3+0xe0>)
  4e:	2203      	movs	r2, #3
  50:	f104 0111 	add.w	r1, r4, #17	; 0x11
  54:	4823      	ldr	r0, [pc, #140]	(90 <memcpy+0x90>)
  56:	f7ff fffe 	bl	0 <memcpy>
C:\tien\PROJEKTY\procesory\STM\T108_V100a\sources/gui.c:2871
                   Screen_Number = Next_Set_Screen[Menu_Keys.Active_String];
  5a:	7ca1      	ldrb	r1, [r4, #18]
  5c:	aa04      	add	r2, sp, #16
  5e:	1853      	adds	r3, r2, r1
  60:	f813 2c05 	ldrb.w	r2, [r3, #-5]
  64:	4b1c      	ldr	r3, [pc, #112]	(d8 <Keyboard_Submenu3+0xd8>)
C:\tien\PROJEKTY\procesory\STM\T108_V100a\sources/gui.c:2873
            
                   if ( Screen_Number == HASLO )
  66:	2a13      	cmp	r2, #19
C:\tien\PROJEKTY\procesory\STM\T108_V100a\sources/gui.c:2871
                    Reload_Screen = TRUE;
            break;

            case KEY_ENTER:
                   Menu_Backup_Keys_Set = Menu_Keys;
                   Screen_Number = Next_Set_Screen[Menu_Keys.Active_String];
  68:	701a      	strb	r2, [r3, #0]
C:\tien\PROJEKTY\procesory\STM\T108_V100a\sources/gui.c:2873
            
                   if ( Screen_Number == HASLO )
  6a:	d101      	bne.n	70 <Keyboard_Submenu3+0x70>
C:\tien\PROJEKTY\procesory\STM\T108_V100a\sources/gui.c:2875
                   {
                       Password_Set = 0;
  6c:	2300      	movs	r3, #0
  6e:	6223      	str	r3, [r4, #32]
C:\tien\PROJEKTY\procesory\STM\T108_V100a\sources/gui.c:2878
                   }
            
                   Screen_Before_Password = SUBMENU3;
  70:	4b1d      	ldr	r3, [pc, #116]	(e8 <Keyboard_Submenu3+0xe8>)
  72:	2208      	movs	r2, #8
  74:	701a      	strb	r2, [r3, #0]
C:\tien\PROJEKTY\procesory\STM\T108_V100a\sources/gui.c:2879
                   Screen_After_Password = After_Pass_Screen[Menu_Keys.Active_String];
  76:	aa04      	add	r2, sp, #16
  78:	1853      	adds	r3, r2, r1
  7a:	f813 3c0a 	ldrb.w	r3, [r3, #-10]
  7e:	4c1b      	ldr	r4, [pc, #108]	(ec <Keyboard_Submenu3+0xec>)
C:\tien\PROJEKTY\procesory\STM\T108_V100a\sources/gui.c:2880
                   Reload_Screen = TRUE;
  80:	2201      	movs	r2, #1
C:\tien\PROJEKTY\procesory\STM\T108_V100a\sources/gui.c:2879
                   {
                       Password_Set = 0;
                   }
            
                   Screen_Before_Password = SUBMENU3;
                   Screen_After_Password = After_Pass_Screen[Menu_Keys.Active_String];
  82:	7023      	strb	r3, [r4, #0]
C:\tien\PROJEKTY\procesory\STM\T108_V100a\sources/gui.c:2880
                   Reload_Screen = TRUE;
  84:	4b15      	ldr	r3, [pc, #84]	(dc <Keyboard_Submenu3+0xdc>)
  86:	701a      	strb	r2, [r3, #0]
C:\tien\PROJEKTY\procesory\STM\T108_V100a\sources/gui.c:2881
                   Count_Add = 0;
  88:	4b19      	ldr	r3, [pc, #100]	(f0 <Keyboard_Submenu3+0xf0>)
  8a:	3a01      	subs	r2, #1
  8c:	701a      	strb	r2, [r3, #0]
C:\tien\PROJEKTY\procesory\STM\T108_V100a\sources/gui.c:2882
                   First_Editable_Variable();
  8e:	f7ff fffe 	bl	0 <Keyboard_Submenu3>
C:\tien\PROJEKTY\procesory\STM\T108_V100a\sources/gui.c:2884
            
                    if ( Screen_After_Password == UST_BLOKADY )
  92:	7823      	ldrb	r3, [r4, #0]
  94:	2b25      	cmp	r3, #37
  96:	d10a      	bne.n	ae <Keyboard_Submenu3+0xae>
C:\tien\PROJEKTY\procesory\STM\T108_V100a\sources/gui.c:2886
                    {
                        Service_Variables_Set.Serv_Vars.Blokada_rok = Date.Date_Vars.Year;
  98:	4b16      	ldr	r3, [pc, #88]	(f4 <Keyboard_Submenu3+0xf4>)
  9a:	4917      	ldr	r1, [pc, #92]	(f8 <Keyboard_Submenu3+0xf8>)
  9c:	881a      	ldrh	r2, [r3, #0]
  9e:	81ca      	strh	r2, [r1, #14]
C:\tien\PROJEKTY\procesory\STM\T108_V100a\sources/gui.c:2887
                        Service_Variables_Set.Serv_Vars.Blokada_miesiac = Date.Date_Vars.Month;
  a0:	791a      	ldrb	r2, [r3, #4]
C:\tien\PROJEKTY\procesory\STM\T108_V100a\sources/gui.c:2888
                        Service_Variables_Set.Serv_Vars.Blokada_dzien = Date.Date_Vars.Day;
  a2:	78db      	ldrb	r3, [r3, #3]
C:\tien\PROJEKTY\procesory\STM\T108_V100a\sources/gui.c:2887
                   First_Editable_Variable();
            
                    if ( Screen_After_Password == UST_BLOKADY )
                    {
                        Service_Variables_Set.Serv_Vars.Blokada_rok = Date.Date_Vars.Year;
                        Service_Variables_Set.Serv_Vars.Blokada_miesiac = Date.Date_Vars.Month;
  a4:	734a      	strb	r2, [r1, #13]
C:\tien\PROJEKTY\procesory\STM\T108_V100a\sources/gui.c:2888
                        Service_Variables_Set.Serv_Vars.Blokada_dzien = Date.Date_Vars.Day;
  a6:	730b      	strb	r3, [r1, #12]
  a8:	e001      	b.n	ae <Keyboard_Submenu3+0xae>
C:\tien\PROJEKTY\procesory\STM\T108_V100a\sources/gui.c:2893
                    }
            break;

            default:
                   Menu_Keyboard();
  aa:	f7ff fffe 	bl	0 <Keyboard_Submenu3>
C:\tien\PROJEKTY\procesory\STM\T108_V100a\sources/gui.c:2896
            break;
        }
        Keyboard.Keyboard_Flag = 0;
  ae:	4b06      	ldr	r3, [pc, #24]	(c8 <Keyboard_Submenu3+0xc8>)
  b0:	2200      	movs	r2, #0
  b2:	709a      	strb	r2, [r3, #2]
C:\tien\PROJEKTY\procesory\STM\T108_V100a\sources/gui.c:2899
    }

    if ( Keyboard.Keyboard_State == 0 )
  b4:	4a04      	ldr	r2, [pc, #16]	(c8 <Keyboard_Submenu3+0xc8>)
  b6:	7853      	ldrb	r3, [r2, #1]
  b8:	b903      	cbnz	r3, bc <Keyboard_Submenu3+0xbc>
C:\tien\PROJEKTY\procesory\STM\T108_V100a\sources/gui.c:2901
    {
        Keyboard.Keyboard_Memory = 0;
  ba:	7013      	strb	r3, [r2, #0]
C:\tien\PROJEKTY\procesory\STM\T108_V100a\sources/gui.c:2903
    }
}
  bc:	b005      	add	sp, #20
  be:	bd30      	pop	{r4, r5, pc}
  c0:	000002c2 	.word	0x000002c2
  c4:	000002c7 	.word	0x000002c7
	...
  d0:	00000011 	.word	0x00000011
	...
Disassembly of section .text.Keyboard_Licencja:

00000000 <Keyboard_Licencja>:
Keyboard_Licencja():
C:\tien\PROJEKTY\procesory\STM\T108_V100a\sources/gui.c:2981
* Input          : None
* Output         : None
* Return         : None
*******************************************************************************/
static void Keyboard_Licencja ( void )
{
   0:	b570      	push	{r4, r5, r6, lr}
C:\tien\PROJEKTY\procesory\STM\T108_V100a\sources/gui.c:2982
    if ( Keyboard.Keyboard_Memory != 0 && Keyboard.Keyboard_Flag == 1 )
   2:	4b1d      	ldr	r3, [pc, #116]	(78 <Keyboard_Licencja+0x78>)
   4:	781c      	ldrb	r4, [r3, #0]
   6:	2c00      	cmp	r4, #0
   8:	d030      	beq.n	6c <Keyboard_Licencja+0x6c>
   a:	789d      	ldrb	r5, [r3, #2]
   c:	2d01      	cmp	r5, #1
   e:	d12d      	bne.n	6c <Keyboard_Licencja+0x6c>
C:\tien\PROJEKTY\procesory\STM\T108_V100a\sources/gui.c:2984
    {
        switch ( Keyboard.Keyboard_Memory )
  10:	2c01      	cmp	r4, #1
  12:	d01a      	beq.n	4a <Keyboard_Licencja+0x4a>
  14:	2c02      	cmp	r4, #2
  16:	d126      	bne.n	66 <Keyboard_Licencja+0x66>
C:\tien\PROJEKTY\procesory\STM\T108_V100a\sources/gui.c:2987
        {
            case KEY_ESCAPE:
                    Variable_Editing_Ptr = NULL;
  18:	4b18      	ldr	r3, [pc, #96]	(7c <Keyboard_Licencja+0x7c>)
  1a:	2200      	movs	r2, #0
  1c:	601a      	str	r2, [r3, #0]
C:\tien\PROJEKTY\procesory\STM\T108_V100a\sources/gui.c:2988
                    Menu_Keys = Menu_Backup_Keys;
  1e:	4818      	ldr	r0, [pc, #96]	(80 <Keyboard_Licencja+0x80>)
  20:	3203      	adds	r2, #3
  22:	4918      	ldr	r1, [pc, #96]	(84 <Keyboard_Licencja+0x84>)
  24:	f7ff fffe 	bl	0 <memcpy>
C:\tien\PROJEKTY\procesory\STM\T108_V100a\sources/gui.c:2989
                    Screen_Number = MENU;
  28:	4b17      	ldr	r3, [pc, #92]	(88 <Keyboard_Licencja+0x88>)
  2a:	4a18      	ldr	r2, [pc, #96]	(8c <Keyboard_Licencja+0x8c>)
  2c:	701c      	strb	r4, [r3, #0]
C:\tien\PROJEKTY\procesory\STM\T108_V100a\sources/gui.c:2990
                    Reload_Screen = TRUE;
  2e:	4b18      	ldr	r3, [pc, #96]	(90 <Keyboard_Licencja+0x90>)
  30:	701d      	strb	r5, [r3, #0]
C:\tien\PROJEKTY\procesory\STM\T108_V100a\sources/gui.c:2992
            
                    if ( Controlling_Variables.Ctrl_Vars.Motor_Type == 0 ) //Freqw_Inverter
  32:	4b18      	ldr	r3, [pc, #96]	(94 <Keyboard_Licencja+0x94>)
  34:	f893 302e 	ldrb.w	r3, [r3, #46]
  38:	b90b      	cbnz	r3, 3e <Keyboard_Licencja+0x3e>
C:\tien\PROJEKTY\procesory\STM\T108_V100a\sources/gui.c:2993
                        Machine_State = INVERTER_PROG;
  3a:	3329      	adds	r3, #41
  3c:	e000      	b.n	40 <Keyboard_Licencja+0x40>
C:\tien\PROJEKTY\procesory\STM\T108_V100a\sources/gui.c:2995
                    else // 24V sliding gate
                        Machine_State = WG_POWER_ON;
  3e:	2311      	movs	r3, #17
  40:	7013      	strb	r3, [r2, #0]
C:\tien\PROJEKTY\procesory\STM\T108_V100a\sources/gui.c:2997
                    
                    WG_TIMER_FLAG = FALSE;
  42:	4b15      	ldr	r3, [pc, #84]	(98 <Keyboard_Licencja+0x98>)
  44:	2200      	movs	r2, #0
  46:	701a      	strb	r2, [r3, #0]
  48:	e00d      	b.n	66 <Keyboard_Licencja+0x66>
C:\tien\PROJEKTY\procesory\STM\T108_V100a\sources/gui.c:3001
            break;

            case KEY_ENTER:
                    if ( Service_Variables.Serv_Vars.Blokada == 0 )
  4a:	4b14      	ldr	r3, [pc, #80]	(9c <Keyboard_Licencja+0x9c>)
  4c:	7a19      	ldrb	r1, [r3, #8]
  4e:	b951      	cbnz	r1, 66 <Keyboard_Licencja+0x66>
C:\tien\PROJEKTY\procesory\STM\T108_V100a\sources/gui.c:3003
                    {
                        Screen_Number = ODBLOKUJ;
  50:	4b0d      	ldr	r3, [pc, #52]	(88 <Keyboard_Licencja+0x88>)
  52:	2234      	movs	r2, #52
  54:	701a      	strb	r2, [r3, #0]
C:\tien\PROJEKTY\procesory\STM\T108_V100a\sources/gui.c:3004
                        Count_Add = 0;
  56:	4b12      	ldr	r3, [pc, #72]	(a0 <Keyboard_Licencja+0xa0>)
  58:	7019      	strb	r1, [r3, #0]
C:\tien\PROJEKTY\procesory\STM\T108_V100a\sources/gui.c:3005
                        Screen_After_Password = CONTROLLER_ON;
  5a:	4b12      	ldr	r3, [pc, #72]	(a4 <Keyboard_Licencja+0xa4>)
  5c:	701c      	strb	r4, [r3, #0]
C:\tien\PROJEKTY\procesory\STM\T108_V100a\sources/gui.c:3006
                        First_Editable_Variable();
  5e:	f7ff fffe 	bl	0 <Keyboard_Licencja>
C:\tien\PROJEKTY\procesory\STM\T108_V100a\sources/gui.c:3007
                        Reload_Screen = TRUE;
  62:	4b0b      	ldr	r3, [pc, #44]	(90 <Keyboard_Licencja+0x90>)
  64:	701c      	strb	r4, [r3, #0]
C:\tien\PROJEKTY\procesory\STM\T108_V100a\sources/gui.c:3014
            break;

            default:
            break;
        }
        Keyboard.Keyboard_Flag = 0;
  66:	4b04      	ldr	r3, [pc, #16]	(78 <Keyboard_Licencja+0x78>)
  68:	2200      	movs	r2, #0
  6a:	709a      	strb	r2, [r3, #2]
C:\tien\PROJEKTY\procesory\STM\T108_V100a\sources/gui.c:3017
    }

    if ( Keyboard.Keyboard_State == 0 )
  6c:	4a02      	ldr	r2, [pc, #8]	(78 <Keyboard_Licencja+0x78>)
  6e:	7853      	ldrb	r3, [r2, #1]
  70:	b903      	cbnz	r3, 74 <Keyboard_Licencja+0x74>
C:\tien\PROJEKTY\procesory\STM\T108_V100a\sources/gui.c:3019
    {
        Keyboard.Keyboard_Memory = 0;
  72:	7013      	strb	r3, [r2, #0]
C:\tien\PROJEKTY\procesory\STM\T108_V100a\sources/gui.c:3021
    }
}
  74:	bd70      	pop	{r4, r5, r6, pc}
  76:	46c0      	nop			(mov r8, r8)
	...
  80:	00000011 	.word	0x00000011
	...
Disassembly of section .text.Keyboard_Czujniki_Menu:

00000000 <Keyboard_Czujniki_Menu>:
Keyboard_Czujniki_Menu():
C:\tien\PROJEKTY\procesory\STM\T108_V100a\sources/gui.c:3428
* Input          : None
* Output         : None
* Return         : None
*******************************************************************************/
static void Keyboard_Czujniki_Menu ( void )
{
   0:	b573      	push	{r0, r1, r4, r5, r6, lr}
C:\tien\PROJEKTY\procesory\STM\T108_V100a\sources/gui.c:3433
    _Screen_Number Next_Param_Screen[] = {
        HASLO,
        HASLO,

    };
   2:	2202      	movs	r2, #2
   4:	492e      	ldr	r1, [pc, #184]	(c0 <Keyboard_Czujniki_Menu+0xc0>)
   6:	f10d 0006 	add.w	r0, sp, #6	; 0x6
   a:	f7ff fffe 	bl	0 <memcpy>
C:\tien\PROJEKTY\procesory\STM\T108_V100a\sources/gui.c:3439

    _Screen_Number After_Pass_Screen[] = {
        CZUJNIKI1, 
        CZUJNIKI2,

    };
   e:	a801      	add	r0, sp, #4
  10:	492c      	ldr	r1, [pc, #176]	(c4 <Keyboard_Czujniki_Menu+0xc4>)
  12:	2202      	movs	r2, #2
  14:	f7ff fffe 	bl	0 <memcpy>
C:\tien\PROJEKTY\procesory\STM\T108_V100a\sources/gui.c:3441

    if ( Keyboard.Keyboard_Memory != 0 && Keyboard.Keyboard_Flag == 1 )
  18:	4b2b      	ldr	r3, [pc, #172]	(c8 <Keyboard_Czujniki_Menu+0xc8>)
  1a:	781c      	ldrb	r4, [r3, #0]
  1c:	2c00      	cmp	r4, #0
  1e:	d04a      	beq.n	b6 <Keyboard_Czujniki_Menu+0xb6>
  20:	789d      	ldrb	r5, [r3, #2]
  22:	2d01      	cmp	r5, #1
  24:	d147      	bne.n	b6 <Keyboard_Czujniki_Menu+0xb6>
C:\tien\PROJEKTY\procesory\STM\T108_V100a\sources/gui.c:3443
    {
        switch ( Keyboard.Keyboard_Memory )
  26:	2c01      	cmp	r4, #1
  28:	d00f      	beq.n	4a <Keyboard_Czujniki_Menu+0x4a>
  2a:	2c02      	cmp	r4, #2
  2c:	d13e      	bne.n	ac <Keyboard_Czujniki_Menu+0xac>
C:\tien\PROJEKTY\procesory\STM\T108_V100a\sources/gui.c:3446
        {
            case KEY_ESCAPE:
                    Variable_Editing_Ptr = NULL;
  2e:	4b27      	ldr	r3, [pc, #156]	(cc <Keyboard_Czujniki_Menu+0xcc>)
  30:	2200      	movs	r2, #0
C:\tien\PROJEKTY\procesory\STM\T108_V100a\sources/gui.c:3447
                    Menu_Keys = Menu_Backup_Keys_Sensors;
  32:	2403      	movs	r4, #3
C:\tien\PROJEKTY\procesory\STM\T108_V100a\sources/gui.c:3446
    if ( Keyboard.Keyboard_Memory != 0 && Keyboard.Keyboard_Flag == 1 )
    {
        switch ( Keyboard.Keyboard_Memory )
        {
            case KEY_ESCAPE:
                    Variable_Editing_Ptr = NULL;
  34:	601a      	str	r2, [r3, #0]
C:\tien\PROJEKTY\procesory\STM\T108_V100a\sources/gui.c:3447
                    Menu_Keys = Menu_Backup_Keys_Sensors;
  36:	4826      	ldr	r0, [pc, #152]	(d0 <Keyboard_Czujniki_Menu+0xd0>)
  38:	4926      	ldr	r1, [pc, #152]	(d4 <Keyboard_Czujniki_Menu+0xd4>)
  3a:	4622      	mov	r2, r4
  3c:	f7ff fffe 	bl	0 <memcpy>
C:\tien\PROJEKTY\procesory\STM\T108_V100a\sources/gui.c:3448
                    Screen_Number = SUBMENU1;
  40:	4b25      	ldr	r3, [pc, #148]	(d8 <Keyboard_Czujniki_Menu+0xd8>)
  42:	701c      	strb	r4, [r3, #0]
C:\tien\PROJEKTY\procesory\STM\T108_V100a\sources/gui.c:3449
                    Reload_Screen = TRUE;
  44:	4b25      	ldr	r3, [pc, #148]	(dc <Keyboard_Czujniki_Menu+0xdc>)
  46:	701d      	strb	r5, [r3, #0]
  48:	e032      	b.n	b0 <Keyboard_Czujniki_Menu+0xb0>
C:\tien\PROJEKTY\procesory\STM\T108_V100a\sources/gui.c:3453
            break;
               
            case KEY_ENTER:
                Machine_State = SENSOR_SETTING;
  4a:	4b25      	ldr	r3, [pc, #148]	(e0 <Keyboard_Czujniki_Menu+0xe0>)
C:\tien\PROJEKTY\procesory\STM\T108_V100a\sources/gui.c:3454
                Menu_Backup_Keys_Set = Menu_Keys;
  4c:	4d25      	ldr	r5, [pc, #148]	(e4 <Keyboard_Czujniki_Menu+0xe4>)
C:\tien\PROJEKTY\procesory\STM\T108_V100a\sources/gui.c:3453
                    Screen_Number = SUBMENU1;
                    Reload_Screen = TRUE;
            break;
               
            case KEY_ENTER:
                Machine_State = SENSOR_SETTING;
  4e:	222b      	movs	r2, #43
  50:	701a      	strb	r2, [r3, #0]
C:\tien\PROJEKTY\procesory\STM\T108_V100a\sources/gui.c:3454
                Menu_Backup_Keys_Set = Menu_Keys;
  52:	f105 0111 	add.w	r1, r5, #17	; 0x11
  56:	2203      	movs	r2, #3
  58:	4823      	ldr	r0, [pc, #140]	(e8 <Keyboard_Czujniki_Menu+0xe8>)
  5a:	f7ff fffe 	bl	0 <memcpy>
C:\tien\PROJEKTY\procesory\STM\T108_V100a\sources/gui.c:3455
                Screen_Before_Password = CZUJNIKI_MENU;
  5e:	4b23      	ldr	r3, [pc, #140]	(ec <Keyboard_Czujniki_Menu+0xec>)
  60:	2220      	movs	r2, #32
  62:	701a      	strb	r2, [r3, #0]
C:\tien\PROJEKTY\procesory\STM\T108_V100a\sources/gui.c:3456
                Screen_After_Password = After_Pass_Screen[Menu_Keys.Active_String];            Reload_Screen = TRUE;
  64:	7cab      	ldrb	r3, [r5, #18]
  66:	aa02      	add	r2, sp, #8
  68:	18d1      	adds	r1, r2, r3
  6a:	f811 2c04 	ldrb.w	r2, [r1, #-4]
  6e:	4b20      	ldr	r3, [pc, #128]	(f0 <Keyboard_Czujniki_Menu+0xf0>)
C:\tien\PROJEKTY\procesory\STM\T108_V100a\sources/gui.c:3457
                Edit_Parameter_Counter = 0;
  70:	2600      	movs	r6, #0
C:\tien\PROJEKTY\procesory\STM\T108_V100a\sources/gui.c:3456
               
            case KEY_ENTER:
                Machine_State = SENSOR_SETTING;
                Menu_Backup_Keys_Set = Menu_Keys;
                Screen_Before_Password = CZUJNIKI_MENU;
                Screen_After_Password = After_Pass_Screen[Menu_Keys.Active_String];            Reload_Screen = TRUE;
  72:	701a      	strb	r2, [r3, #0]
  74:	4b19      	ldr	r3, [pc, #100]	(dc <Keyboard_Czujniki_Menu+0xdc>)
C:\tien\PROJEKTY\procesory\STM\T108_V100a\sources/gui.c:3459
                Edit_Parameter_Counter = 0;
            
                if (Screen_After_Password == CZUJNIKI1 )
  76:	2a21      	cmp	r2, #33
C:\tien\PROJEKTY\procesory\STM\T108_V100a\sources/gui.c:3456
               
            case KEY_ENTER:
                Machine_State = SENSOR_SETTING;
                Menu_Backup_Keys_Set = Menu_Keys;
                Screen_Before_Password = CZUJNIKI_MENU;
                Screen_After_Password = After_Pass_Screen[Menu_Keys.Active_String];            Reload_Screen = TRUE;
  78:	701c      	strb	r4, [r3, #0]
C:\tien\PROJEKTY\procesory\STM\T108_V100a\sources/gui.c:3457
                Edit_Parameter_Counter = 0;
  7a:	f885 6024 	strb.w	r6, [r5, #36]
C:\tien\PROJEKTY\procesory\STM\T108_V100a\sources/gui.c:3459
            
                if (Screen_After_Password == CZUJNIKI1 )
  7e:	d117      	bne.n	b0 <Keyboard_Czujniki_Menu+0xb0>
C:\tien\PROJEKTY\procesory\STM\T108_V100a\sources/gui.c:3461
                {                
                    Screen_Number = Next_Param_Screen[Menu_Keys.Active_String];
  80:	f811 4c02 	ldrb.w	r4, [r1, #-2]
C:\tien\PROJEKTY\procesory\STM\T108_V100a\sources/gui.c:3463
      
                    Menu_Backup_Keys_Set = Menu_Keys;
  84:	2203      	movs	r2, #3
  86:	f105 0111 	add.w	r1, r5, #17	; 0x11
  8a:	4817      	ldr	r0, [pc, #92]	(60 <memcpy+0x60>)
  8c:	f7ff fffe 	bl	0 <memcpy>
C:\tien\PROJEKTY\procesory\STM\T108_V100a\sources/gui.c:3464
                    Screen_Number = Next_Param_Screen[Menu_Keys.Active_String];
  90:	4b11      	ldr	r3, [pc, #68]	(d8 <Keyboard_Czujniki_Menu+0xd8>)
C:\tien\PROJEKTY\procesory\STM\T108_V100a\sources/gui.c:3465
                    if ( Screen_Number == HASLO )
  92:	2c13      	cmp	r4, #19
C:\tien\PROJEKTY\procesory\STM\T108_V100a\sources/gui.c:3464
                if (Screen_After_Password == CZUJNIKI1 )
                {                
                    Screen_Number = Next_Param_Screen[Menu_Keys.Active_String];
      
                    Menu_Backup_Keys_Set = Menu_Keys;
                    Screen_Number = Next_Param_Screen[Menu_Keys.Active_String];
  94:	701c      	strb	r4, [r3, #0]
C:\tien\PROJEKTY\procesory\STM\T108_V100a\sources/gui.c:3469
                    if ( Screen_Number == HASLO )
                    {
                        Password_Set = 0;
                    }
                    Count_Add = 0;
  96:	4b17      	ldr	r3, [pc, #92]	(f4 <Keyboard_Czujniki_Menu+0xf4>)
C:\tien\PROJEKTY\procesory\STM\T108_V100a\sources/gui.c:3467
      
                    Menu_Backup_Keys_Set = Menu_Keys;
                    Screen_Number = Next_Param_Screen[Menu_Keys.Active_String];
                    if ( Screen_Number == HASLO )
                    {
                        Password_Set = 0;
  98:	bf08      	it	eq
  9a:	622e      	streq	r6, [r5, #32]
C:\tien\PROJEKTY\procesory\STM\T108_V100a\sources/gui.c:3469
                    }
                    Count_Add = 0;
  9c:	2200      	movs	r2, #0
  9e:	701a      	strb	r2, [r3, #0]
C:\tien\PROJEKTY\procesory\STM\T108_V100a\sources/gui.c:3470
                    First_Editable_Variable();
  a0:	f7ff fffe 	bl	0 <Keyboard_Czujniki_Menu>
C:\tien\PROJEKTY\procesory\STM\T108_V100a\sources/gui.c:3472
              
                    Reload_Screen = TRUE; 
  a4:	4b0d      	ldr	r3, [pc, #52]	(dc <Keyboard_Czujniki_Menu+0xdc>)
  a6:	2201      	movs	r2, #1
  a8:	701a      	strb	r2, [r3, #0]
  aa:	e001      	b.n	b0 <Keyboard_Czujniki_Menu+0xb0>
C:\tien\PROJEKTY\procesory\STM\T108_V100a\sources/gui.c:3478
                }
            
            break;

            default:
                    Menu_Keyboard();
  ac:	f7ff fffe 	bl	0 <Keyboard_Czujniki_Menu>
C:\tien\PROJEKTY\procesory\STM\T108_V100a\sources/gui.c:3481
            break;
        }
        Keyboard.Keyboard_Flag = 0;
  b0:	4b05      	ldr	r3, [pc, #20]	(c8 <Keyboard_Czujniki_Menu+0xc8>)
  b2:	2200      	movs	r2, #0
  b4:	709a      	strb	r2, [r3, #2]
C:\tien\PROJEKTY\procesory\STM\T108_V100a\sources/gui.c:3484
    }

    if ( Keyboard.Keyboard_State == 0 )
  b6:	4a04      	ldr	r2, [pc, #16]	(c8 <Keyboard_Czujniki_Menu+0xc8>)
  b8:	7853      	ldrb	r3, [r2, #1]
  ba:	b903      	cbnz	r3, be <Keyboard_Czujniki_Menu+0xbe>
C:\tien\PROJEKTY\procesory\STM\T108_V100a\sources/gui.c:3486
    {
        Keyboard.Keyboard_Memory = 0;
  bc:	7013      	strb	r3, [r2, #0]
C:\tien\PROJEKTY\procesory\STM\T108_V100a\sources/gui.c:3488
    }
}
  be:	bd7c      	pop	{r2, r3, r4, r5, r6, pc}
  c0:	000002cc 	.word	0x000002cc
  c4:	000002ce 	.word	0x000002ce
	...
  d0:	00000011 	.word	0x00000011
	...
Disassembly of section .text.Keyboard_Prog_Testowy:

00000000 <Keyboard_Prog_Testowy>:
Keyboard_Prog_Testowy():
C:\tien\PROJEKTY\procesory\STM\T108_V100a\sources/gui.c:4049
* Input          : None
* Output         : None
* Return         : None
*******************************************************************************/
static void Keyboard_Prog_Testowy ( void )
{
   0:	b510      	push	{r4, lr}
C:\tien\PROJEKTY\procesory\STM\T108_V100a\sources/gui.c:4050
    if ( Keyboard.Keyboard_Memory != 0 && Keyboard.Keyboard_Flag == 1 )
   2:	4b24      	ldr	r3, [pc, #144]	(94 <Keyboard_Prog_Testowy+0x94>)
   4:	781a      	ldrb	r2, [r3, #0]
   6:	2a00      	cmp	r2, #0
   8:	d03e      	beq.n	88 <Keyboard_Prog_Testowy+0x88>
   a:	789b      	ldrb	r3, [r3, #2]
   c:	2b01      	cmp	r3, #1
   e:	d13b      	bne.n	88 <Keyboard_Prog_Testowy+0x88>
C:\tien\PROJEKTY\procesory\STM\T108_V100a\sources/gui.c:4052
    {
        switch ( Keyboard.Keyboard_Memory )
  10:	2a01      	cmp	r2, #1
  12:	d01c      	beq.n	4e <Keyboard_Prog_Testowy+0x4e>
  14:	2a02      	cmp	r2, #2
  16:	d134      	bne.n	82 <Keyboard_Prog_Testowy+0x82>
C:\tien\PROJEKTY\procesory\STM\T108_V100a\sources/gui.c:4055
        {
            case KEY_ESCAPE:
                    if ( Controlling_Variables.Ctrl_Vars.Motor_Type == 0 ) //Freqw_Inverter
  18:	4b1f      	ldr	r3, [pc, #124]	(98 <Keyboard_Prog_Testowy+0x98>)
  1a:	4a20      	ldr	r2, [pc, #128]	(9c <Keyboard_Prog_Testowy+0x9c>)
  1c:	f893 302e 	ldrb.w	r3, [r3, #46]
  20:	b90b      	cbnz	r3, 26 <Keyboard_Prog_Testowy+0x26>
C:\tien\PROJEKTY\procesory\STM\T108_V100a\sources/gui.c:4056
                        Machine_State = INVERTER_PROG;
  22:	3329      	adds	r3, #41
  24:	e000      	b.n	28 <Keyboard_Prog_Testowy+0x28>
C:\tien\PROJEKTY\procesory\STM\T108_V100a\sources/gui.c:4058
                    else // 24V sliding gate
                        Machine_State = WG_POWER_ON;
  26:	2311      	movs	r3, #17
  28:	7013      	strb	r3, [r2, #0]
C:\tien\PROJEKTY\procesory\STM\T108_V100a\sources/gui.c:4060

                    WG_TIMER_FLAG = FALSE;
  2a:	4b1d      	ldr	r3, [pc, #116]	(a0 <Keyboard_Prog_Testowy+0xa0>)
  2c:	2200      	movs	r2, #0
  2e:	701a      	strb	r2, [r3, #0]
C:\tien\PROJEKTY\procesory\STM\T108_V100a\sources/gui.c:4062
                    
                    TEST_ENABLE = FALSE;
  30:	481c      	ldr	r0, [pc, #112]	(a4 <Keyboard_Prog_Testowy+0xa4>)
C:\tien\PROJEKTY\procesory\STM\T108_V100a\sources/gui.c:4063
                    Variable_Editing_Ptr = NULL;
  32:	4b1d      	ldr	r3, [pc, #116]	(a8 <Keyboard_Prog_Testowy+0xa8>)
C:\tien\PROJEKTY\procesory\STM\T108_V100a\sources/gui.c:4062
                    else // 24V sliding gate
                        Machine_State = WG_POWER_ON;

                    WG_TIMER_FLAG = FALSE;
                    
                    TEST_ENABLE = FALSE;
  34:	f880 2025 	strb.w	r2, [r0, #37]
C:\tien\PROJEKTY\procesory\STM\T108_V100a\sources/gui.c:4063
                    Variable_Editing_Ptr = NULL;
  38:	601a      	str	r2, [r3, #0]
C:\tien\PROJEKTY\procesory\STM\T108_V100a\sources/gui.c:4064
                    Menu_Keys = Menu_Backup_Keys_Set;
  3a:	3011      	adds	r0, #17
  3c:	3203      	adds	r2, #3
  3e:	491b      	ldr	r1, [pc, #108]	(ac <Keyboard_Prog_Testowy+0xac>)
  40:	f7ff fffe 	bl	0 <memcpy>
C:\tien\PROJEKTY\procesory\STM\T108_V100a\sources/gui.c:4065
                    Screen_Number = Screen_Before_Password;;
  44:	4b1a      	ldr	r3, [pc, #104]	(b0 <Keyboard_Prog_Testowy+0xb0>)
  46:	781a      	ldrb	r2, [r3, #0]
  48:	4b1a      	ldr	r3, [pc, #104]	(b4 <Keyboard_Prog_Testowy+0xb4>)
  4a:	701a      	strb	r2, [r3, #0]
  4c:	e016      	b.n	7c <Keyboard_Prog_Testowy+0x7c>
C:\tien\PROJEKTY\procesory\STM\T108_V100a\sources/gui.c:4070
                    Reload_Screen = TRUE;
            break;

            case KEY_ENTER:
                    if ( TEST_ENABLE == TRUE )
  4e:	4815      	ldr	r0, [pc, #84]	(a4 <Keyboard_Prog_Testowy+0xa4>)
  50:	4919      	ldr	r1, [pc, #100]	(b8 <Keyboard_Prog_Testowy+0xb8>)
  52:	f890 3025 	ldrb.w	r3, [r0, #37]
  56:	2b01      	cmp	r3, #1
  58:	d108      	bne.n	6c <Keyboard_Prog_Testowy+0x6c>
C:\tien\PROJEKTY\procesory\STM\T108_V100a\sources/gui.c:4072
                    {
                        Test_String_Mask = TEST_STOPPED;
  5a:	3302      	adds	r3, #2
  5c:	600b      	str	r3, [r1, #0]
C:\tien\PROJEKTY\procesory\STM\T108_V100a\sources/gui.c:4073
                        Machine_State = WG_POWER_ON;
  5e:	4b0f      	ldr	r3, [pc, #60]	(9c <Keyboard_Prog_Testowy+0x9c>)
  60:	2211      	movs	r2, #17
  62:	701a      	strb	r2, [r3, #0]
C:\tien\PROJEKTY\procesory\STM\T108_V100a\sources/gui.c:4074
                        TEST_ENABLE = FALSE;
  64:	2300      	movs	r3, #0
  66:	f880 3025 	strb.w	r3, [r0, #37]
  6a:	e007      	b.n	7c <Keyboard_Prog_Testowy+0x7c>
C:\tien\PROJEKTY\procesory\STM\T108_V100a\sources/gui.c:4078
                    }
                    else
                    {
                        Test_String_Mask = TEST_STARTED;
  6c:	2305      	movs	r3, #5
  6e:	600b      	str	r3, [r1, #0]
C:\tien\PROJEKTY\procesory\STM\T108_V100a\sources/gui.c:4079
                        Controller_Variables.Controller_Vars.Test_Counter = 0;
  70:	4b12      	ldr	r3, [pc, #72]	(bc <Keyboard_Prog_Testowy+0xbc>)
  72:	f04f 0100 	mov.w	r1, #0	; 0x0
  76:	8499      	strh	r1, [r3, #36]
C:\tien\PROJEKTY\procesory\STM\T108_V100a\sources/gui.c:4081
                        //Machine_State = TEST_START;
                        TEST_ENABLE = TRUE;
  78:	f880 2025 	strb.w	r2, [r0, #37]
C:\tien\PROJEKTY\procesory\STM\T108_V100a\sources/gui.c:4083
                    }
                    Reload_Screen = TRUE;
  7c:	4b10      	ldr	r3, [pc, #64]	(c0 <Keyboard_Prog_Testowy+0xc0>)
  7e:	2201      	movs	r2, #1
  80:	701a      	strb	r2, [r3, #0]
C:\tien\PROJEKTY\procesory\STM\T108_V100a\sources/gui.c:4089
            break;

           default:
           break;
        }
        Keyboard.Keyboard_Flag = 0;
  82:	4b04      	ldr	r3, [pc, #16]	(94 <Keyboard_Prog_Testowy+0x94>)
  84:	2200      	movs	r2, #0
  86:	709a      	strb	r2, [r3, #2]
C:\tien\PROJEKTY\procesory\STM\T108_V100a\sources/gui.c:4092
    }

    if ( Keyboard.Keyboard_State == 0 )
  88:	4a02      	ldr	r2, [pc, #8]	(94 <Keyboard_Prog_Testowy+0x94>)
  8a:	7853      	ldrb	r3, [r2, #1]
  8c:	b903      	cbnz	r3, 90 <Keyboard_Prog_Testowy+0x90>
C:\tien\PROJEKTY\procesory\STM\T108_V100a\sources/gui.c:4094
    {
        Keyboard.Keyboard_Memory = 0;
  8e:	7013      	strb	r3, [r2, #0]
C:\tien\PROJEKTY\procesory\STM\T108_V100a\sources/gui.c:4096
    }
}
  90:	bd10      	pop	{r4, pc}
  92:	46c0      	nop			(mov r8, r8)
	...
Disassembly of section .text.Keyboard_Ster_Blokowany:

00000000 <Keyboard_Ster_Blokowany>:
Keyboard_Ster_Blokowany():
C:\tien\PROJEKTY\procesory\STM\T108_V100a\sources/gui.c:4106
* Input          : None
* Output         : None
* Return         : None
*******************************************************************************/
static void Keyboard_Ster_Blokowany ( void )
{
   0:	b510      	push	{r4, lr}
C:\tien\PROJEKTY\procesory\STM\T108_V100a\sources/gui.c:4107
    if ( Keyboard.Keyboard_Memory != 0 && Keyboard.Keyboard_Flag == 1 )
   2:	4b0d      	ldr	r3, [pc, #52]	(38 <Keyboard_Ster_Blokowany+0x38>)
   4:	781c      	ldrb	r4, [r3, #0]
   6:	b18c      	cbz	r4, 2c <Keyboard_Ster_Blokowany+0x2c>
   8:	789b      	ldrb	r3, [r3, #2]
   a:	2b01      	cmp	r3, #1
   c:	d10e      	bne.n	2c <Keyboard_Ster_Blokowany+0x2c>
C:\tien\PROJEKTY\procesory\STM\T108_V100a\sources/gui.c:4109
    {
        switch ( Keyboard.Keyboard_Memory )
   e:	2c01      	cmp	r4, #1
  10:	d109      	bne.n	26 <Keyboard_Ster_Blokowany+0x26>
C:\tien\PROJEKTY\procesory\STM\T108_V100a\sources/gui.c:4112
        {
            case KEY_ENTER:
                   Screen_Number = ODBLOKUJ;
  12:	4b0a      	ldr	r3, [pc, #40]	(3c <Keyboard_Ster_Blokowany+0x3c>)
  14:	2234      	movs	r2, #52
  16:	701a      	strb	r2, [r3, #0]
C:\tien\PROJEKTY\procesory\STM\T108_V100a\sources/gui.c:4113
                   Count_Add = 0;
  18:	4b09      	ldr	r3, [pc, #36]	(40 <Keyboard_Ster_Blokowany+0x40>)
  1a:	2200      	movs	r2, #0
  1c:	701a      	strb	r2, [r3, #0]
C:\tien\PROJEKTY\procesory\STM\T108_V100a\sources/gui.c:4114
                   First_Editable_Variable();
  1e:	f7ff fffe 	bl	0 <Keyboard_Ster_Blokowany>
C:\tien\PROJEKTY\procesory\STM\T108_V100a\sources/gui.c:4115
                   Reload_Screen = TRUE;
  22:	4b08      	ldr	r3, [pc, #32]	(44 <Keyboard_Ster_Blokowany+0x44>)
  24:	701c      	strb	r4, [r3, #0]
C:\tien\PROJEKTY\procesory\STM\T108_V100a\sources/gui.c:4121
            break;

            default:
            break;
        }
        Keyboard.Keyboard_Flag = 0;
  26:	4b04      	ldr	r3, [pc, #16]	(38 <Keyboard_Ster_Blokowany+0x38>)
  28:	2200      	movs	r2, #0
  2a:	709a      	strb	r2, [r3, #2]
C:\tien\PROJEKTY\procesory\STM\T108_V100a\sources/gui.c:4124
    }

    if ( Keyboard.Keyboard_State == 0 )
  2c:	4a02      	ldr	r2, [pc, #8]	(38 <Keyboard_Ster_Blokowany+0x38>)
  2e:	7853      	ldrb	r3, [r2, #1]
  30:	b903      	cbnz	r3, 34 <Keyboard_Ster_Blokowany+0x34>
C:\tien\PROJEKTY\procesory\STM\T108_V100a\sources/gui.c:4126
    {
        Keyboard.Keyboard_Memory = 0;
  32:	7013      	strb	r3, [r2, #0]
C:\tien\PROJEKTY\procesory\STM\T108_V100a\sources/gui.c:4128
    }
}
  34:	bd10      	pop	{r4, pc}
  36:	46c0      	nop			(mov r8, r8)
	...
Disassembly of section .text.Keyboard_Odczyt_Serwisowy:

00000000 <Keyboard_Odczyt_Serwisowy>:
Keyboard_Odczyt_Serwisowy():
C:\tien\PROJEKTY\procesory\STM\T108_V100a\sources/gui.c:4418
* Input          : None
* Output         : None
* Return         : None
*******************************************************************************/
static void Keyboard_Odczyt_Serwisowy ( void )
{
   0:	b510      	push	{r4, lr}
C:\tien\PROJEKTY\procesory\STM\T108_V100a\sources/gui.c:4419
    if ( Keyboard.Keyboard_Memory != 0 && Keyboard.Keyboard_Flag == 1 )
   2:	4a16      	ldr	r2, [pc, #88]	(5c <Keyboard_Odczyt_Serwisowy+0x5c>)
   4:	7813      	ldrb	r3, [r2, #0]
   6:	b31b      	cbz	r3, 50 <Keyboard_Odczyt_Serwisowy+0x50>
   8:	7894      	ldrb	r4, [r2, #2]
   a:	2c01      	cmp	r4, #1
   c:	d120      	bne.n	50 <Keyboard_Odczyt_Serwisowy+0x50>
C:\tien\PROJEKTY\procesory\STM\T108_V100a\sources/gui.c:4421
    {
        switch ( Keyboard.Keyboard_Memory )
   e:	2b01      	cmp	r3, #1
  10:	d00d      	beq.n	2e <Keyboard_Odczyt_Serwisowy+0x2e>
  12:	2b02      	cmp	r3, #2
  14:	d119      	bne.n	4a <Keyboard_Odczyt_Serwisowy+0x4a>
C:\tien\PROJEKTY\procesory\STM\T108_V100a\sources/gui.c:4424
        {
            case KEY_ESCAPE:
                    Menu_Keys = Menu_Backup_Keys_Set;
  16:	2203      	movs	r2, #3
  18:	4811      	ldr	r0, [pc, #68]	(60 <Keyboard_Odczyt_Serwisowy+0x60>)
  1a:	4912      	ldr	r1, [pc, #72]	(64 <Keyboard_Odczyt_Serwisowy+0x64>)
  1c:	f7ff fffe 	bl	0 <memcpy>
C:\tien\PROJEKTY\procesory\STM\T108_V100a\sources/gui.c:4425
                    Screen_Number = Screen_Before_Password;
  20:	4b11      	ldr	r3, [pc, #68]	(68 <Keyboard_Odczyt_Serwisowy+0x68>)
  22:	781a      	ldrb	r2, [r3, #0]
  24:	4b11      	ldr	r3, [pc, #68]	(6c <Keyboard_Odczyt_Serwisowy+0x6c>)
  26:	701a      	strb	r2, [r3, #0]
C:\tien\PROJEKTY\procesory\STM\T108_V100a\sources/gui.c:4426
                    Reload_Screen = TRUE;
  28:	4b11      	ldr	r3, [pc, #68]	(70 <Keyboard_Odczyt_Serwisowy+0x70>)
  2a:	701c      	strb	r4, [r3, #0]
  2c:	e00d      	b.n	4a <Keyboard_Odczyt_Serwisowy+0x4a>
C:\tien\PROJEKTY\procesory\STM\T108_V100a\sources/gui.c:4430
            break;

            case KEY_ENTER:
                   if ( ++Screen_Number > ODCZYT_SERWISOWY3 )
  2e:	4a0f      	ldr	r2, [pc, #60]	(6c <Keyboard_Odczyt_Serwisowy+0x6c>)
  30:	7813      	ldrb	r3, [r2, #0]
  32:	3301      	adds	r3, #1
  34:	b2db      	uxtb	r3, r3
  36:	2b31      	cmp	r3, #49
  38:	7013      	strb	r3, [r2, #0]
  3a:	d901      	bls.n	40 <Keyboard_Odczyt_Serwisowy+0x40>
C:\tien\PROJEKTY\procesory\STM\T108_V100a\sources/gui.c:4432
                   {
                       Screen_Number = ODCZYT_SERWISOWY1;
  3c:	232f      	movs	r3, #47
  3e:	7013      	strb	r3, [r2, #0]
C:\tien\PROJEKTY\procesory\STM\T108_V100a\sources/gui.c:4434
                   }
                   First_Editable_Variable();
  40:	f7ff fffe 	bl	0 <Keyboard_Odczyt_Serwisowy>
C:\tien\PROJEKTY\procesory\STM\T108_V100a\sources/gui.c:4435
                   Reload_Screen = TRUE;
  44:	4b0a      	ldr	r3, [pc, #40]	(70 <Keyboard_Odczyt_Serwisowy+0x70>)
  46:	2201      	movs	r2, #1
  48:	701a      	strb	r2, [r3, #0]
C:\tien\PROJEKTY\procesory\STM\T108_V100a\sources/gui.c:4453
            break;              
               
            default:
            break;
        }
        Keyboard.Keyboard_Flag = 0;
  4a:	4b04      	ldr	r3, [pc, #16]	(5c <Keyboard_Odczyt_Serwisowy+0x5c>)
  4c:	2200      	movs	r2, #0
  4e:	709a      	strb	r2, [r3, #2]
C:\tien\PROJEKTY\procesory\STM\T108_V100a\sources/gui.c:4456
    }

    if ( Keyboard.Keyboard_State == 0 )
  50:	4a02      	ldr	r2, [pc, #8]	(5c <Keyboard_Odczyt_Serwisowy+0x5c>)
  52:	7853      	ldrb	r3, [r2, #1]
  54:	b903      	cbnz	r3, 58 <Keyboard_Odczyt_Serwisowy+0x58>
C:\tien\PROJEKTY\procesory\STM\T108_V100a\sources/gui.c:4458
    {
        Keyboard.Keyboard_Memory = 0;
  56:	7013      	strb	r3, [r2, #0]
C:\tien\PROJEKTY\procesory\STM\T108_V100a\sources/gui.c:4460
    }
}
  58:	bd10      	pop	{r4, pc}
  5a:	46c0      	nop			(mov r8, r8)
  5c:	00000000 	.word	0x00000000
  60:	00000011 	.word	0x00000011
	...
Disassembly of section .text.Keyboard_Kontakt:

00000000 <Keyboard_Kontakt>:
Keyboard_Kontakt():
C:\tien\PROJEKTY\procesory\STM\T108_V100a\sources/gui.c:4472
* Input          : None
* Output         : None
* Return         : None
*******************************************************************************/
static void Keyboard_Kontakt ( void )
{
   0:	b570      	push	{r4, r5, r6, lr}
C:\tien\PROJEKTY\procesory\STM\T108_V100a\sources/gui.c:4473
    if ( Keyboard.Keyboard_Memory != 0 && Keyboard.Keyboard_Flag == 1 )
   2:	4b0e      	ldr	r3, [pc, #56]	(3c <Keyboard_Kontakt+0x3c>)
   4:	781c      	ldrb	r4, [r3, #0]
   6:	b19c      	cbz	r4, 30 <Keyboard_Kontakt+0x30>
   8:	789d      	ldrb	r5, [r3, #2]
   a:	2d01      	cmp	r5, #1
   c:	d110      	bne.n	30 <Keyboard_Kontakt+0x30>
C:\tien\PROJEKTY\procesory\STM\T108_V100a\sources/gui.c:4475
    {
        switch ( Keyboard.Keyboard_Memory )
   e:	2c02      	cmp	r4, #2
  10:	d10b      	bne.n	2a <Keyboard_Kontakt+0x2a>
C:\tien\PROJEKTY\procesory\STM\T108_V100a\sources/gui.c:4478
        {
            case KEY_ESCAPE:
                    Variable_Editing_Ptr = NULL;
  12:	4b0b      	ldr	r3, [pc, #44]	(40 <Keyboard_Kontakt+0x40>)
  14:	2200      	movs	r2, #0
  16:	601a      	str	r2, [r3, #0]
C:\tien\PROJEKTY\procesory\STM\T108_V100a\sources/gui.c:4479
                    Menu_Keys = Menu_Backup_Keys;
  18:	480a      	ldr	r0, [pc, #40]	(44 <Keyboard_Kontakt+0x44>)
  1a:	490b      	ldr	r1, [pc, #44]	(48 <Keyboard_Kontakt+0x48>)
  1c:	3203      	adds	r2, #3
  1e:	f7ff fffe 	bl	0 <memcpy>
C:\tien\PROJEKTY\procesory\STM\T108_V100a\sources/gui.c:4480
                    Screen_Number = MENU;
  22:	4b0a      	ldr	r3, [pc, #40]	(4c <Keyboard_Kontakt+0x4c>)
  24:	701c      	strb	r4, [r3, #0]
C:\tien\PROJEKTY\procesory\STM\T108_V100a\sources/gui.c:4481
                    Reload_Screen = TRUE;
  26:	4b0a      	ldr	r3, [pc, #40]	(50 <Keyboard_Kontakt+0x50>)
  28:	701d      	strb	r5, [r3, #0]
C:\tien\PROJEKTY\procesory\STM\T108_V100a\sources/gui.c:4487
            break;

            default:
            break;
        }
        Keyboard.Keyboard_Flag = 0;
  2a:	4b04      	ldr	r3, [pc, #16]	(3c <Keyboard_Kontakt+0x3c>)
  2c:	2200      	movs	r2, #0
  2e:	709a      	strb	r2, [r3, #2]
C:\tien\PROJEKTY\procesory\STM\T108_V100a\sources/gui.c:4490
    }

    if ( Keyboard.Keyboard_State == 0 )
  30:	4a02      	ldr	r2, [pc, #8]	(3c <Keyboard_Kontakt+0x3c>)
  32:	7853      	ldrb	r3, [r2, #1]
  34:	b903      	cbnz	r3, 38 <Keyboard_Kontakt+0x38>
C:\tien\PROJEKTY\procesory\STM\T108_V100a\sources/gui.c:4492
    {
        Keyboard.Keyboard_Memory = 0;
  36:	7013      	strb	r3, [r2, #0]
C:\tien\PROJEKTY\procesory\STM\T108_V100a\sources/gui.c:4494
    }
}
  38:	bd70      	pop	{r4, r5, r6, pc}
  3a:	46c0      	nop			(mov r8, r8)
	...
  44:	00000011 	.word	0x00000011
	...
Disassembly of section .text.Keyboard_Info:

00000000 <Keyboard_Info>:
Keyboard_Info():
C:\tien\PROJEKTY\procesory\STM\T108_V100a\sources/gui.c:4504
* Input          : None
* Output         : None
* Return         : None
*******************************************************************************/
static void Keyboard_Info ( void )
{
   0:	b570      	push	{r4, r5, r6, lr}
C:\tien\PROJEKTY\procesory\STM\T108_V100a\sources/gui.c:4505
    if ( Keyboard.Keyboard_Memory != 0 && Keyboard.Keyboard_Flag == 1 )
   2:	4b0e      	ldr	r3, [pc, #56]	(3c <Keyboard_Info+0x3c>)
   4:	781c      	ldrb	r4, [r3, #0]
   6:	b19c      	cbz	r4, 30 <Keyboard_Info+0x30>
   8:	789d      	ldrb	r5, [r3, #2]
   a:	2d01      	cmp	r5, #1
   c:	d110      	bne.n	30 <Keyboard_Info+0x30>
C:\tien\PROJEKTY\procesory\STM\T108_V100a\sources/gui.c:4507
    {
        switch ( Keyboard.Keyboard_Memory )
   e:	2c02      	cmp	r4, #2
  10:	d10b      	bne.n	2a <Keyboard_Info+0x2a>
C:\tien\PROJEKTY\procesory\STM\T108_V100a\sources/gui.c:4510
        {
            case KEY_ESCAPE:
                    Variable_Editing_Ptr = NULL;
  12:	4b0b      	ldr	r3, [pc, #44]	(40 <Keyboard_Info+0x40>)
  14:	2200      	movs	r2, #0
  16:	601a      	str	r2, [r3, #0]
C:\tien\PROJEKTY\procesory\STM\T108_V100a\sources/gui.c:4511
                    Menu_Keys = Menu_Backup_Keys;
  18:	480a      	ldr	r0, [pc, #40]	(44 <Keyboard_Info+0x44>)
  1a:	490b      	ldr	r1, [pc, #44]	(48 <Keyboard_Info+0x48>)
  1c:	3203      	adds	r2, #3
  1e:	f7ff fffe 	bl	0 <memcpy>
C:\tien\PROJEKTY\procesory\STM\T108_V100a\sources/gui.c:4512
                    Screen_Number = MENU;
  22:	4b0a      	ldr	r3, [pc, #40]	(4c <Keyboard_Info+0x4c>)
  24:	701c      	strb	r4, [r3, #0]
C:\tien\PROJEKTY\procesory\STM\T108_V100a\sources/gui.c:4513
                    Reload_Screen = TRUE;
  26:	4b0a      	ldr	r3, [pc, #40]	(50 <Keyboard_Info+0x50>)
  28:	701d      	strb	r5, [r3, #0]
C:\tien\PROJEKTY\procesory\STM\T108_V100a\sources/gui.c:4519
            break;

            default:
            break;
        }
        Keyboard.Keyboard_Flag = 0;
  2a:	4b04      	ldr	r3, [pc, #16]	(3c <Keyboard_Info+0x3c>)
  2c:	2200      	movs	r2, #0
  2e:	709a      	strb	r2, [r3, #2]
C:\tien\PROJEKTY\procesory\STM\T108_V100a\sources/gui.c:4522
    }

    if ( Keyboard.Keyboard_State == 0 )
  30:	4a02      	ldr	r2, [pc, #8]	(3c <Keyboard_Info+0x3c>)
  32:	7853      	ldrb	r3, [r2, #1]
  34:	b903      	cbnz	r3, 38 <Keyboard_Info+0x38>
C:\tien\PROJEKTY\procesory\STM\T108_V100a\sources/gui.c:4524
    {
        Keyboard.Keyboard_Memory = 0;
  36:	7013      	strb	r3, [r2, #0]
C:\tien\PROJEKTY\procesory\STM\T108_V100a\sources/gui.c:4526
    }
}
  38:	bd70      	pop	{r4, r5, r6, pc}
  3a:	46c0      	nop			(mov r8, r8)
	...
  44:	00000011 	.word	0x00000011
	...
Disassembly of section .text.Keyboard_Alert_Error:

00000000 <Keyboard_Alert_Error>:
Keyboard_Alert_Error():
C:\tien\PROJEKTY\procesory\STM\T108_V100a\sources/gui.c:4537
* Output         : None
* Return         : None
*******************************************************************************/
static void Keyboard_Alert_Error ( void )
{
    if ( Keyboard.Keyboard_Memory != 0 && Keyboard.Keyboard_Flag == 1 )
   0:	4a0b      	ldr	r2, [pc, #44]	(30 <Keyboard_Alert_Error+0x30>)
   2:	7813      	ldrb	r3, [r2, #0]
   4:	b173      	cbz	r3, 24 <Keyboard_Alert_Error+0x24>
   6:	7891      	ldrb	r1, [r2, #2]
   8:	2901      	cmp	r1, #1
   a:	d10b      	bne.n	24 <Keyboard_Alert_Error+0x24>
C:\tien\PROJEKTY\procesory\STM\T108_V100a\sources/gui.c:4539
    {
        switch ( Keyboard.Keyboard_Memory )
   c:	2b02      	cmp	r3, #2
   e:	d106      	bne.n	1e <Keyboard_Alert_Error+0x1e>
C:\tien\PROJEKTY\procesory\STM\T108_V100a\sources/gui.c:4542
        {
            case KEY_ESCAPE:
                    Variable_Editing_Ptr = NULL;
  10:	4b08      	ldr	r3, [pc, #32]	(34 <Keyboard_Alert_Error+0x34>)
  12:	2200      	movs	r2, #0
  14:	601a      	str	r2, [r3, #0]
C:\tien\PROJEKTY\procesory\STM\T108_V100a\sources/gui.c:4543
                    Screen_Number = CONTROLLER_ON;
  16:	4b08      	ldr	r3, [pc, #32]	(38 <Keyboard_Alert_Error+0x38>)
  18:	7019      	strb	r1, [r3, #0]
C:\tien\PROJEKTY\procesory\STM\T108_V100a\sources/gui.c:4544
                    Reload_Screen = TRUE;
  1a:	4b08      	ldr	r3, [pc, #32]	(3c <Keyboard_Alert_Error+0x3c>)
  1c:	7019      	strb	r1, [r3, #0]
C:\tien\PROJEKTY\procesory\STM\T108_V100a\sources/gui.c:4550
            break;

            default:
            break;
        }
        Keyboard.Keyboard_Flag = 0;
  1e:	4b04      	ldr	r3, [pc, #16]	(30 <Keyboard_Alert_Error+0x30>)
  20:	2200      	movs	r2, #0
  22:	709a      	strb	r2, [r3, #2]
C:\tien\PROJEKTY\procesory\STM\T108_V100a\sources/gui.c:4553
    }

    if ( Keyboard.Keyboard_State == 0 )
  24:	4a02      	ldr	r2, [pc, #8]	(30 <Keyboard_Alert_Error+0x30>)
  26:	7853      	ldrb	r3, [r2, #1]
  28:	b903      	cbnz	r3, 2c <Keyboard_Alert_Error+0x2c>
C:\tien\PROJEKTY\procesory\STM\T108_V100a\sources/gui.c:4555
    {
        Keyboard.Keyboard_Memory = 0;
  2a:	7013      	strb	r3, [r2, #0]
C:\tien\PROJEKTY\procesory\STM\T108_V100a\sources/gui.c:4557
    }
}
  2c:	4770      	bx	lr
  2e:	46c0      	nop			(mov r8, r8)
	...
Disassembly of section .text.Lock_Init:

00000000 <Lock_Init>:
Lock_Init():
C:\tien\PROJEKTY\procesory\STM\T108_V100a\sources/gui.c:4789
* Output         : None
* Return         : None
*******************************************************************************/
void Lock_Init ( void )
{
    if ( Service_Variables.Serv_Vars.Marker_Blokady == STER_ODBLOKOWANY )
   0:	4b08      	ldr	r3, [pc, #32]	(24 <Lock_Init+0x24>)
   2:	7c5b      	ldrb	r3, [r3, #17]
   4:	b10b      	cbz	r3, a <Lock_Init+0xa>
C:\tien\PROJEKTY\procesory\STM\T108_V100a\sources/gui.c:4793
    {
        Screen_Number = CONTROLLER_ON;  
    }
    else if ( Service_Variables.Serv_Vars.Marker_Blokady == STER_BLOKOWANY )
   6:	2b03      	cmp	r3, #3
   8:	d101      	bne.n	e <Lock_Init+0xe>
C:\tien\PROJEKTY\procesory\STM\T108_V100a\sources/gui.c:4795
    {
        Screen_Number = CONTROLLER_ON;      
   a:	2201      	movs	r2, #1
   c:	e006      	b.n	1c <Lock_Init+0x1c>
C:\tien\PROJEKTY\procesory\STM\T108_V100a\sources/gui.c:4797
    }
    else if ( Service_Variables.Serv_Vars.Marker_Blokady == STER_ZABLOKOWANY )
   e:	2b01      	cmp	r3, #1
  10:	d101      	bne.n	16 <Lock_Init+0x16>
C:\tien\PROJEKTY\procesory\STM\T108_V100a\sources/gui.c:4799
    {
        Screen_Number = STEROWNIK_BLOKOWANY;  
  12:	2233      	movs	r2, #51
  14:	e002      	b.n	1c <Lock_Init+0x1c>
C:\tien\PROJEKTY\procesory\STM\T108_V100a\sources/gui.c:4801
    }
    else if ( Service_Variables.Serv_Vars.Marker_Blokady == STER_BLOKADA_CALKOWITA )
  16:	2b02      	cmp	r3, #2
  18:	d102      	bne.n	20 <Lock_Init+0x20>
C:\tien\PROJEKTY\procesory\STM\T108_V100a\sources/gui.c:4803
    {
        Screen_Number = BLOK_CALKOWITA;
  1a:	2232      	movs	r2, #50
  1c:	4b02      	ldr	r3, [pc, #8]	(28 <Lock_Init+0x28>)
  1e:	701a      	strb	r2, [r3, #0]
C:\tien\PROJEKTY\procesory\STM\T108_V100a\sources/gui.c:4809
    }

//Screen_Number = ODCZYT_SERWISOWY1;
//Screen_Number = CZUJNIKI1;

}
  20:	4770      	bx	lr
  22:	46c0      	nop			(mov r8, r8)
	...
Disassembly of section .text.Keyboard_Test_WeWy:

00000000 <Keyboard_Test_WeWy>:
Keyboard_Test_WeWy():
C:\tien\PROJEKTY\procesory\STM\T108_V100a\sources/gui.c:4598
* Input          : None
* Output         : None
* Return         : None
*******************************************************************************/
static void Keyboard_Test_WeWy ( void )
{
   0:	b510      	push	{r4, lr}
C:\tien\PROJEKTY\procesory\STM\T108_V100a\sources/gui.c:4599
    if ( Keyboard.Keyboard_Memory != 0 && Keyboard.Keyboard_Flag == 1 )
   2:	4a12      	ldr	r2, [pc, #72]	(4c <Keyboard_Test_WeWy+0x4c>)
   4:	7813      	ldrb	r3, [r2, #0]
   6:	b1e3      	cbz	r3, 42 <Keyboard_Test_WeWy+0x42>
   8:	7894      	ldrb	r4, [r2, #2]
   a:	2c01      	cmp	r4, #1
   c:	d119      	bne.n	42 <Keyboard_Test_WeWy+0x42>
C:\tien\PROJEKTY\procesory\STM\T108_V100a\sources/gui.c:4601
    {
        switch ( Keyboard.Keyboard_Memory )
   e:	2b02      	cmp	r3, #2
  10:	d110      	bne.n	34 <Keyboard_Test_WeWy+0x34>
C:\tien\PROJEKTY\procesory\STM\T108_V100a\sources/gui.c:4604
        {
            case KEY_ESCAPE:
                    WG_TIMER_FLAG = FALSE;
  12:	4b0f      	ldr	r3, [pc, #60]	(50 <Keyboard_Test_WeWy+0x50>)
  14:	2200      	movs	r2, #0
  16:	701a      	strb	r2, [r3, #0]
C:\tien\PROJEKTY\procesory\STM\T108_V100a\sources/gui.c:4606

                    Menu_Keys = Menu_Backup_Keys_Set;
  18:	490e      	ldr	r1, [pc, #56]	(54 <Keyboard_Test_WeWy+0x54>)
  1a:	3203      	adds	r2, #3
  1c:	480e      	ldr	r0, [pc, #56]	(58 <Keyboard_Test_WeWy+0x58>)
  1e:	f7ff fffe 	bl	0 <memcpy>
C:\tien\PROJEKTY\procesory\STM\T108_V100a\sources/gui.c:4607
                    Screen_Number = Screen_Before_Password;
  22:	4b0e      	ldr	r3, [pc, #56]	(5c <Keyboard_Test_WeWy+0x5c>)
  24:	781a      	ldrb	r2, [r3, #0]
  26:	4b0e      	ldr	r3, [pc, #56]	(60 <Keyboard_Test_WeWy+0x60>)
  28:	701a      	strb	r2, [r3, #0]
C:\tien\PROJEKTY\procesory\STM\T108_V100a\sources/gui.c:4608
                    Reload_Screen = TRUE;
  2a:	4b0e      	ldr	r3, [pc, #56]	(64 <Keyboard_Test_WeWy+0x64>)
  2c:	701c      	strb	r4, [r3, #0]
C:\tien\PROJEKTY\procesory\STM\T108_V100a\sources/gui.c:4609
                    Disable_Manual_Control();
  2e:	f7ff fffe 	bl	0 <Disable_Manual_Control>
  32:	e003      	b.n	a <Disable_Manual_Values+0xa>
C:\tien\PROJEKTY\procesory\STM\T108_V100a\sources/gui.c:4613
            break;

            default:
                Disable_Manual_Values();
  34:	f7ff fffe 	bl	0 <Disable_Manual_Values>
C:\tien\PROJEKTY\procesory\STM\T108_V100a\sources/gui.c:4614
                Keyboard_Edit_Variable();
  38:	f7ff fffe 	bl	0 <Keyboard_Test_WeWy>
C:\tien\PROJEKTY\procesory\STM\T108_V100a\sources/gui.c:4617
            break;
        }
        Keyboard.Keyboard_Flag = 0;
  3c:	4b03      	ldr	r3, [pc, #12]	(4c <Keyboard_Test_WeWy+0x4c>)
  3e:	2200      	movs	r2, #0
  40:	709a      	strb	r2, [r3, #2]
C:\tien\PROJEKTY\procesory\STM\T108_V100a\sources/gui.c:4620
    }

    if ( Keyboard.Keyboard_State == 0 )
  42:	4a02      	ldr	r2, [pc, #8]	(4c <Keyboard_Test_WeWy+0x4c>)
  44:	7853      	ldrb	r3, [r2, #1]
  46:	b903      	cbnz	r3, 4a <Keyboard_Test_WeWy+0x4a>
C:\tien\PROJEKTY\procesory\STM\T108_V100a\sources/gui.c:4622
    {
        Keyboard.Keyboard_Memory = 0;
  48:	7013      	strb	r3, [r2, #0]
C:\tien\PROJEKTY\procesory\STM\T108_V100a\sources/gui.c:4624
    }
}
  4a:	bd10      	pop	{r4, pc}
	...
  58:	00000011 	.word	0x00000011
	...
Disassembly of section .text.Keyboard_Submenu4:

00000000 <Keyboard_Submenu4>:
Keyboard_Submenu4():
C:\tien\PROJEKTY\procesory\STM\T108_V100a\sources/gui.c:3031
* Input          : None
* Output         : None
* Return         : None
*******************************************************************************/
static void Keyboard_Submenu4 ( void )
{
   0:	b530      	push	{r4, r5, lr}
   2:	b085      	sub	sp, #20
C:\tien\PROJEKTY\procesory\STM\T108_V100a\sources/gui.c:3038
        HASLO,
        HASLO,
        HASLO,
        HASLO,
        ODCZYT_SERWISOWY1,
    };
   4:	4937      	ldr	r1, [pc, #220]	(e4 <Keyboard_Submenu4+0xe4>)
   6:	2205      	movs	r2, #5
   8:	f10d 000b 	add.w	r0, sp, #11	; 0xb
   c:	f7ff fffe 	bl	0 <memcpy>
C:\tien\PROJEKTY\procesory\STM\T108_V100a\sources/gui.c:3046
        LICZNIK_PRACY, 
        PROG_TESTOWY,
        TEST_WEWY,
        UST_SERWISOWE1,
        ODCZYT_SERWISOWY1,
    };
  10:	f10d 0006 	add.w	r0, sp, #6	; 0x6
  14:	4934      	ldr	r1, [pc, #208]	(e8 <Keyboard_Submenu4+0xe8>)
  16:	2205      	movs	r2, #5
  18:	f7ff fffe 	bl	0 <memcpy>
C:\tien\PROJEKTY\procesory\STM\T108_V100a\sources/gui.c:3048

    if ( Keyboard.Keyboard_Memory != 0 && Keyboard.Keyboard_Flag == 1 )
  1c:	4b33      	ldr	r3, [pc, #204]	(ec <Keyboard_Submenu4+0xec>)
  1e:	781c      	ldrb	r4, [r3, #0]
  20:	2c00      	cmp	r4, #0
  22:	d058      	beq.n	d6 <Keyboard_Submenu4+0xd6>
  24:	789d      	ldrb	r5, [r3, #2]
  26:	2d01      	cmp	r5, #1
  28:	d155      	bne.n	d6 <Keyboard_Submenu4+0xd6>
C:\tien\PROJEKTY\procesory\STM\T108_V100a\sources/gui.c:3050
    {
        switch ( Keyboard.Keyboard_Memory )
  2a:	2c01      	cmp	r4, #1
  2c:	d00e      	beq.n	4c <Keyboard_Submenu4+0x4c>
  2e:	2c02      	cmp	r4, #2
  30:	d14c      	bne.n	cc <Keyboard_Submenu4+0xcc>
C:\tien\PROJEKTY\procesory\STM\T108_V100a\sources/gui.c:3053
        {
            case KEY_ESCAPE:
                    Variable_Editing_Ptr = NULL;
  32:	4b2f      	ldr	r3, [pc, #188]	(f0 <Keyboard_Submenu4+0xf0>)
  34:	2200      	movs	r2, #0
  36:	601a      	str	r2, [r3, #0]
C:\tien\PROJEKTY\procesory\STM\T108_V100a\sources/gui.c:3054
                    Menu_Keys = Menu_Backup_Keys;
  38:	482e      	ldr	r0, [pc, #184]	(f4 <Keyboard_Submenu4+0xf4>)
  3a:	492f      	ldr	r1, [pc, #188]	(f8 <Keyboard_Submenu4+0xf8>)
  3c:	3203      	adds	r2, #3
  3e:	f7ff fffe 	bl	0 <memcpy>
C:\tien\PROJEKTY\procesory\STM\T108_V100a\sources/gui.c:3055
                    Screen_Number = MENU;
  42:	4b2e      	ldr	r3, [pc, #184]	(fc <Keyboard_Submenu4+0xfc>)
  44:	701c      	strb	r4, [r3, #0]
C:\tien\PROJEKTY\procesory\STM\T108_V100a\sources/gui.c:3056
                    Reload_Screen = TRUE;
  46:	4b2e      	ldr	r3, [pc, #184]	(100 <Keyboard_Submenu4+0x100>)
  48:	701d      	strb	r5, [r3, #0]
  4a:	e041      	b.n	d0 <Keyboard_Submenu4+0xd0>
C:\tien\PROJEKTY\procesory\STM\T108_V100a\sources/gui.c:3060
            break;

            case KEY_ENTER:
                    Menu_Backup_Keys_Set = Menu_Keys;
  4c:	4c2d      	ldr	r4, [pc, #180]	(104 <Keyboard_Submenu4+0x104>)
  4e:	2203      	movs	r2, #3
  50:	f104 0111 	add.w	r1, r4, #17	; 0x11
  54:	482c      	ldr	r0, [pc, #176]	(b4 <memcpy+0xb4>)
  56:	f7ff fffe 	bl	0 <memcpy>
C:\tien\PROJEKTY\procesory\STM\T108_V100a\sources/gui.c:3061
                    Screen_Number = Next_Param_Screen[Menu_Keys.Active_String];
  5a:	7ca1      	ldrb	r1, [r4, #18]
  5c:	aa04      	add	r2, sp, #16
  5e:	1853      	adds	r3, r2, r1
  60:	f813 2c05 	ldrb.w	r2, [r3, #-5]
  64:	4b25      	ldr	r3, [pc, #148]	(fc <Keyboard_Submenu4+0xfc>)
C:\tien\PROJEKTY\procesory\STM\T108_V100a\sources/gui.c:3062
                    if ( Screen_Number == HASLO )
  66:	2a13      	cmp	r2, #19
C:\tien\PROJEKTY\procesory\STM\T108_V100a\sources/gui.c:3061
                    Reload_Screen = TRUE;
            break;

            case KEY_ENTER:
                    Menu_Backup_Keys_Set = Menu_Keys;
                    Screen_Number = Next_Param_Screen[Menu_Keys.Active_String];
  68:	701a      	strb	r2, [r3, #0]
C:\tien\PROJEKTY\procesory\STM\T108_V100a\sources/gui.c:3062
                    if ( Screen_Number == HASLO )
  6a:	d101      	bne.n	70 <Keyboard_Submenu4+0x70>
C:\tien\PROJEKTY\procesory\STM\T108_V100a\sources/gui.c:3064
                    {
                        Password_Set = 0;
  6c:	2300      	movs	r3, #0
  6e:	6223      	str	r3, [r4, #32]
C:\tien\PROJEKTY\procesory\STM\T108_V100a\sources/gui.c:3066
                    }
                    Screen_Before_Password = SUBMENU4;
  70:	4b26      	ldr	r3, [pc, #152]	(10c <Keyboard_Submenu4+0x10c>)
  72:	220f      	movs	r2, #15
  74:	701a      	strb	r2, [r3, #0]
C:\tien\PROJEKTY\procesory\STM\T108_V100a\sources/gui.c:3067
                    Screen_After_Password = After_Pass_Screen[Menu_Keys.Active_String];            Reload_Screen = TRUE;
  76:	aa04      	add	r2, sp, #16
  78:	1853      	adds	r3, r2, r1
  7a:	f813 3c0a 	ldrb.w	r3, [r3, #-10]
  7e:	4c24      	ldr	r4, [pc, #144]	(110 <Keyboard_Submenu4+0x110>)
  80:	2201      	movs	r2, #1
  82:	7023      	strb	r3, [r4, #0]
  84:	4b1e      	ldr	r3, [pc, #120]	(100 <Keyboard_Submenu4+0x100>)
C:\tien\PROJEKTY\procesory\STM\T108_V100a\sources/gui.c:3068
                    Count_Add = 0;
  86:	2500      	movs	r5, #0
C:\tien\PROJEKTY\procesory\STM\T108_V100a\sources/gui.c:3067
                    if ( Screen_Number == HASLO )
                    {
                        Password_Set = 0;
                    }
                    Screen_Before_Password = SUBMENU4;
                    Screen_After_Password = After_Pass_Screen[Menu_Keys.Active_String];            Reload_Screen = TRUE;
  88:	701a      	strb	r2, [r3, #0]
C:\tien\PROJEKTY\procesory\STM\T108_V100a\sources/gui.c:3068
                    Count_Add = 0;
  8a:	4b22      	ldr	r3, [pc, #136]	(114 <Keyboard_Submenu4+0x114>)
  8c:	701d      	strb	r5, [r3, #0]
C:\tien\PROJEKTY\procesory\STM\T108_V100a\sources/gui.c:3069
                    First_Editable_Variable();
  8e:	f7ff fffe 	bl	0 <Keyboard_Submenu4>
C:\tien\PROJEKTY\procesory\STM\T108_V100a\sources/gui.c:3071
            
                    if ( Screen_After_Password == PROG_TESTOWY )
  92:	7823      	ldrb	r3, [r4, #0]
  94:	2b29      	cmp	r3, #41
  96:	d103      	bne.n	a0 <Keyboard_Submenu4+0xa0>
C:\tien\PROJEKTY\procesory\STM\T108_V100a\sources/gui.c:3073
                    {
                       Test_String_Mask = TEST_STOPPED;
  98:	4b1f      	ldr	r3, [pc, #124]	(118 <Keyboard_Submenu4+0x118>)
  9a:	2203      	movs	r2, #3
  9c:	601a      	str	r2, [r3, #0]
  9e:	e017      	b.n	d0 <Keyboard_Submenu4+0xd0>
C:\tien\PROJEKTY\procesory\STM\T108_V100a\sources/gui.c:3076
                    ;
                    }
                    if ( Screen_After_Password == LICZNIK_PRACY )
  a0:	2b28      	cmp	r3, #40
  a2:	d109      	bne.n	b8 <Keyboard_Submenu4+0xb8>
C:\tien\PROJEKTY\procesory\STM\T108_V100a\sources/gui.c:3078
                    {
                        Service_Variables_Set.Serv_Vars.Insp_Year = Date.Date_Vars.Year;
  a4:	4b1d      	ldr	r3, [pc, #116]	(11c <Keyboard_Submenu4+0x11c>)
  a6:	491e      	ldr	r1, [pc, #120]	(120 <Keyboard_Submenu4+0x120>)
  a8:	881a      	ldrh	r2, [r3, #0]
  aa:	f8a1 204c 	strh.w	r2, [r1, #76]
C:\tien\PROJEKTY\procesory\STM\T108_V100a\sources/gui.c:3079
                        Service_Variables_Set.Serv_Vars.Insp_Month = Date.Date_Vars.Month;
  ae:	791a      	ldrb	r2, [r3, #4]
C:\tien\PROJEKTY\procesory\STM\T108_V100a\sources/gui.c:3080
                        Service_Variables_Set.Serv_Vars.Insp_Day = Date.Date_Vars.Day;
  b0:	78db      	ldrb	r3, [r3, #3]
C:\tien\PROJEKTY\procesory\STM\T108_V100a\sources/gui.c:3079
                    ;
                    }
                    if ( Screen_After_Password == LICZNIK_PRACY )
                    {
                        Service_Variables_Set.Serv_Vars.Insp_Year = Date.Date_Vars.Year;
                        Service_Variables_Set.Serv_Vars.Insp_Month = Date.Date_Vars.Month;
  b2:	768a      	strb	r2, [r1, #26]
C:\tien\PROJEKTY\procesory\STM\T108_V100a\sources/gui.c:3080
                        Service_Variables_Set.Serv_Vars.Insp_Day = Date.Date_Vars.Day;
  b4:	764b      	strb	r3, [r1, #25]
  b6:	e00b      	b.n	d0 <Keyboard_Submenu4+0xd0>
C:\tien\PROJEKTY\procesory\STM\T108_V100a\sources/gui.c:3083
                    }
                
                    if ( Screen_After_Password == TEST_WEWY )
  b8:	2b2a      	cmp	r3, #42
  ba:	d109      	bne.n	d0 <Keyboard_Submenu4+0xd0>
C:\tien\PROJEKTY\procesory\STM\T108_V100a\sources/gui.c:3085
                    {
                        Controller_Variables.Controller_Vars.Test_Status = 0;
  bc:	4b19      	ldr	r3, [pc, #100]	(124 <Keyboard_Submenu4+0x124>)
C:\tien\PROJEKTY\procesory\STM\T108_V100a\sources/gui.c:3086
                        Machine_State = MANUAL_TEST;
  be:	220e      	movs	r2, #14
C:\tien\PROJEKTY\procesory\STM\T108_V100a\sources/gui.c:3085
                        Service_Variables_Set.Serv_Vars.Insp_Day = Date.Date_Vars.Day;
                    }
                
                    if ( Screen_After_Password == TEST_WEWY )
                    {
                        Controller_Variables.Controller_Vars.Test_Status = 0;
  c0:	739d      	strb	r5, [r3, #14]
C:\tien\PROJEKTY\procesory\STM\T108_V100a\sources/gui.c:3086
                        Machine_State = MANUAL_TEST;
  c2:	4b19      	ldr	r3, [pc, #100]	(128 <Keyboard_Submenu4+0x128>)
  c4:	701a      	strb	r2, [r3, #0]
C:\tien\PROJEKTY\procesory\STM\T108_V100a\sources/gui.c:3087
                        Enable_Manual_Control();
  c6:	f7ff fffe 	bl	0 <Enable_Manual_Control>
  ca:	e001      	b.n	6 <Keyboard_Submenu4+0x6>
C:\tien\PROJEKTY\procesory\STM\T108_V100a\sources/gui.c:3093
                    }

            break;

            default:
                    Menu_Keyboard();
  cc:	f7ff fffe 	bl	0 <Keyboard_Submenu4>
C:\tien\PROJEKTY\procesory\STM\T108_V100a\sources/gui.c:3096
            break;
        }
        Keyboard.Keyboard_Flag = 0;
  d0:	4b06      	ldr	r3, [pc, #24]	(ec <Keyboard_Submenu4+0xec>)
  d2:	2200      	movs	r2, #0
  d4:	709a      	strb	r2, [r3, #2]
C:\tien\PROJEKTY\procesory\STM\T108_V100a\sources/gui.c:3099
    }

    if ( Keyboard.Keyboard_State == 0 )
  d6:	4a05      	ldr	r2, [pc, #20]	(ec <Keyboard_Submenu4+0xec>)
  d8:	7853      	ldrb	r3, [r2, #1]
  da:	b903      	cbnz	r3, de <Keyboard_Submenu4+0xde>
C:\tien\PROJEKTY\procesory\STM\T108_V100a\sources/gui.c:3101
    {
        Keyboard.Keyboard_Memory = 0;
  dc:	7013      	strb	r3, [r2, #0]
C:\tien\PROJEKTY\procesory\STM\T108_V100a\sources/gui.c:3103
    }
}
  de:	b005      	add	sp, #20
  e0:	bd30      	pop	{r4, r5, pc}
  e2:	46c0      	nop			(mov r8, r8)
  e4:	000002d0 	.word	0x000002d0
  e8:	000002d5 	.word	0x000002d5
	...
  f4:	00000011 	.word	0x00000011
	...
Disassembly of section .text.Keyboard_Data:

00000000 <Keyboard_Data>:
Keyboard_Data():
C:\tien\PROJEKTY\procesory\STM\T108_V100a\sources/gui.c:2627
* Input          : None
* Output         : None
* Return         : None
*******************************************************************************/
static void Keyboard_Data ( void )
{
   0:	b570      	push	{r4, r5, r6, lr}
C:\tien\PROJEKTY\procesory\STM\T108_V100a\sources/gui.c:2629

    if ( Keyboard.Keyboard_Memory != 0 && Keyboard.Keyboard_Flag == 1 )
   2:	4b24      	ldr	r3, [pc, #144]	(94 <Keyboard_Data+0x94>)
   4:	781c      	ldrb	r4, [r3, #0]
   6:	2c00      	cmp	r4, #0
   8:	d03f      	beq.n	8a <Keyboard_Data+0x8a>
   a:	789d      	ldrb	r5, [r3, #2]
   c:	2d01      	cmp	r5, #1
   e:	d13c      	bne.n	8a <Keyboard_Data+0x8a>
C:\tien\PROJEKTY\procesory\STM\T108_V100a\sources/gui.c:2631
    {
        switch ( Keyboard.Keyboard_Memory )
  10:	2c02      	cmp	r4, #2
  12:	d008      	beq.n	26 <Keyboard_Data+0x26>
  14:	d802      	bhi.n	1c <Keyboard_Data+0x1c>
  16:	2c01      	cmp	r4, #1
  18:	d132      	bne.n	80 <Keyboard_Data+0x80>
  1a:	e033      	b.n	84 <Keyboard_Data+0x84>
  1c:	2c08      	cmp	r4, #8
  1e:	d023      	beq.n	68 <Keyboard_Data+0x68>
  20:	2c20      	cmp	r4, #32
  22:	d12d      	bne.n	80 <Keyboard_Data+0x80>
  24:	e012      	b.n	4c <Keyboard_Data+0x4c>
C:\tien\PROJEKTY\procesory\STM\T108_V100a\sources/gui.c:2634
        {
            case KEY_ESCAPE:
                    Variable_Editing_Ptr = NULL;
  26:	4b1c      	ldr	r3, [pc, #112]	(98 <Keyboard_Data+0x98>)
  28:	2200      	movs	r2, #0
  2a:	601a      	str	r2, [r3, #0]
C:\tien\PROJEKTY\procesory\STM\T108_V100a\sources/gui.c:2635
                    Write_Date ( &Date_Set );
  2c:	481b      	ldr	r0, [pc, #108]	(9c <Keyboard_Data+0x9c>)
  2e:	f7ff fffe 	bl	0 <Write_Date>
C:\tien\PROJEKTY\procesory\STM\T108_V100a\sources/gui.c:2636
                    Update_Time ( &Time_Set );
  32:	481b      	ldr	r0, [pc, #108]	(70 <Update_Time+0x70>)
  34:	f7ff fffe 	bl	0 <Update_Time>
C:\tien\PROJEKTY\procesory\STM\T108_V100a\sources/gui.c:2637
                    Menu_Keys = Menu_Backup_Keys;
  38:	481a      	ldr	r0, [pc, #104]	(a4 <Keyboard_Data+0xa4>)
  3a:	491b      	ldr	r1, [pc, #108]	(a8 <Keyboard_Data+0xa8>)
  3c:	2203      	movs	r2, #3
  3e:	f7ff fffe 	bl	0 <memcpy>
C:\tien\PROJEKTY\procesory\STM\T108_V100a\sources/gui.c:2638
                    Screen_Number = MENU;
  42:	4b1a      	ldr	r3, [pc, #104]	(ac <Keyboard_Data+0xac>)
  44:	701c      	strb	r4, [r3, #0]
C:\tien\PROJEKTY\procesory\STM\T108_V100a\sources/gui.c:2639
                    Reload_Screen = TRUE;
  46:	4b1a      	ldr	r3, [pc, #104]	(b0 <Keyboard_Data+0xb0>)
  48:	701d      	strb	r5, [r3, #0]
  4a:	e01b      	b.n	84 <Keyboard_Data+0x84>
C:\tien\PROJEKTY\procesory\STM\T108_V100a\sources/gui.c:2654
                   Reload_Screen = TRUE;
*/
            break;

            case KEY_DOWN:
              if ( ++Count_Add == Variable_Editing_Ptr->Var_Param_Ptr->Variable_Digits_Count )
  4c:	4919      	ldr	r1, [pc, #100]	(b4 <Keyboard_Data+0xb4>)
  4e:	4b12      	ldr	r3, [pc, #72]	(98 <Keyboard_Data+0x98>)
  50:	780a      	ldrb	r2, [r1, #0]
  52:	681b      	ldr	r3, [r3, #0]
  54:	3201      	adds	r2, #1
  56:	b2d2      	uxtb	r2, r2
  58:	700a      	strb	r2, [r1, #0]
  5a:	68db      	ldr	r3, [r3, #12]
  5c:	789b      	ldrb	r3, [r3, #2]
  5e:	4293      	cmp	r3, r2
  60:	d10a      	bne.n	78 <Keyboard_Data+0x78>
C:\tien\PROJEKTY\procesory\STM\T108_V100a\sources/gui.c:2656
              {
                  Count_Add = 0;
  62:	2300      	movs	r3, #0
  64:	700b      	strb	r3, [r1, #0]
  66:	e007      	b.n	78 <Keyboard_Data+0x78>
C:\tien\PROJEKTY\procesory\STM\T108_V100a\sources/gui.c:2662
              }
              Reload_Screen = TRUE;  
            break;
          
            case KEY_UP:
              Count_Add = 0;
  68:	4b12      	ldr	r3, [pc, #72]	(b4 <Keyboard_Data+0xb4>)
  6a:	2200      	movs	r2, #0
  6c:	701a      	strb	r2, [r3, #0]
C:\tien\PROJEKTY\procesory\STM\T108_V100a\sources/gui.c:2663
              if ( Next_Editable_Variable() == FALSE )
  6e:	f7ff fffe 	bl	0 <Keyboard_Data>
  72:	b908      	cbnz	r0, 6 <Keyboard_Data+0x6>
C:\tien\PROJEKTY\procesory\STM\T108_V100a\sources/gui.c:2665
              {
                  First_Editable_Variable();
  74:	f7ff fffe 	bl	0 <Keyboard_Data>
C:\tien\PROJEKTY\procesory\STM\T108_V100a\sources/gui.c:2667
              }
              Reload_Screen = TRUE;
  78:	4b0d      	ldr	r3, [pc, #52]	(b0 <Keyboard_Data+0xb0>)
  7a:	2201      	movs	r2, #1
  7c:	701a      	strb	r2, [r3, #0]
  7e:	e001      	b.n	84 <Keyboard_Data+0x84>
C:\tien\PROJEKTY\procesory\STM\T108_V100a\sources/gui.c:2671
            break;

            default:
                Keyboard_Edit_Variable();
  80:	f7ff fffe 	bl	0 <Keyboard_Data>
C:\tien\PROJEKTY\procesory\STM\T108_V100a\sources/gui.c:2674
            break;
        }
        Keyboard.Keyboard_Flag = 0;
  84:	4b03      	ldr	r3, [pc, #12]	(94 <Keyboard_Data+0x94>)
  86:	2200      	movs	r2, #0
  88:	709a      	strb	r2, [r3, #2]
C:\tien\PROJEKTY\procesory\STM\T108_V100a\sources/gui.c:2677
    }

    if ( Keyboard.Keyboard_State == 0 )
  8a:	4a02      	ldr	r2, [pc, #8]	(94 <Keyboard_Data+0x94>)
  8c:	7853      	ldrb	r3, [r2, #1]
  8e:	b903      	cbnz	r3, 92 <Keyboard_Data+0x92>
C:\tien\PROJEKTY\procesory\STM\T108_V100a\sources/gui.c:2679
    {
        Keyboard.Keyboard_Memory = 0;
  90:	7013      	strb	r3, [r2, #0]
C:\tien\PROJEKTY\procesory\STM\T108_V100a\sources/gui.c:2681
    }
}
  92:	bd70      	pop	{r4, r5, r6, pc}
	...
  a4:	00000011 	.word	0x00000011
	...
Disassembly of section .text.Update_Counters:

00000000 <Update_Counters>:
Update_Counters():
C:\tien\PROJEKTY\procesory\STM\T108_V100a\sources/gui.c:4751
* Input          : None
* Output         : None
* Return         : None
*******************************************************************************/
void Update_Counters ( void )
{
   0:	b510      	push	{r4, lr}
C:\tien\PROJEKTY\procesory\STM\T108_V100a\sources/gui.c:4755
    uint32_t Bkp_Tmp;

    Bkp_Tmp = (Counters_Variables.Counters_Vars.Service_Counter >> 16);
    BKP_WriteBackupRegister(BKP_DR5, Bkp_Tmp);
   2:	4c05      	ldr	r4, [pc, #20]	(18 <Update_Counters+0x18>)
   4:	2014      	movs	r0, #20
   6:	8861      	ldrh	r1, [r4, #2]
   8:	f7ff fffe 	bl	0 <BKP_WriteBackupRegister>
C:\tien\PROJEKTY\procesory\STM\T108_V100a\sources/gui.c:4757
    Bkp_Tmp = Counters_Variables.Counters_Vars.Service_Counter;
    BKP_WriteBackupRegister(BKP_DR6, Bkp_Tmp);
   c:	2018      	movs	r0, #24
   e:	8821      	ldrh	r1, [r4, #0]
  10:	f7ff fffe 	bl	0 <BKP_WriteBackupRegister>
C:\tien\PROJEKTY\procesory\STM\T108_V100a\sources/gui.c:4762
//    Bkp_Tmp = (Counters_Variables.Counters_Vars.No_Goout >> 16);
//    BKP_WriteBackupRegister(BKP_DR7, Bkp_Tmp);
//    Bkp_Tmp = Counters_Variables.Counters_Vars.No_Goout;
//    BKP_WriteBackupRegister(BKP_DR8, Bkp_Tmp);
}
  14:	bd10      	pop	{r4, pc}
  16:	46c0      	nop			(mov r8, r8)
  18:	00000000 	.word	0x00000000
Disassembly of section .text.Write_Settings:

00000000 <Write_Settings>:
Write_Settings():
C:\tien\PROJEKTY\procesory\STM\T108_V100a\sources/gui.c:4634
* Input          : None
* Output         : None
* Return         : None
*******************************************************************************/
void Write_Settings ( void )
{
   0:	e92d 41f0 	stmdb	sp!, {r4, r5, r6, r7, r8, lr}
C:\tien\PROJEKTY\procesory\STM\T108_V100a\sources/gui.c:4638
    uint32_t i;
    uint32_t NoOfWords;

    Flash_Address = EEPROM_BASE_ADDRESS;
   4:	4b1e      	ldr	r3, [pc, #120]	(80 <Write_Settings+0x80>)
   6:	4c1f      	ldr	r4, [pc, #124]	(84 <Write_Settings+0x84>)
C:\tien\PROJEKTY\procesory\STM\T108_V100a\sources/gui.c:4640

    FLASH_ClearFlag(FLASH_FLAG_BSY | FLASH_FLAG_EOP | FLASH_FLAG_PGERR | FLASH_FLAG_WRPRTERR);	
   8:	2035      	movs	r0, #53
C:\tien\PROJEKTY\procesory\STM\T108_V100a\sources/gui.c:4638
void Write_Settings ( void )
{
    uint32_t i;
    uint32_t NoOfWords;

    Flash_Address = EEPROM_BASE_ADDRESS;
   a:	6023      	str	r3, [r4, #0]
C:\tien\PROJEKTY\procesory\STM\T108_V100a\sources/gui.c:4640

    FLASH_ClearFlag(FLASH_FLAG_BSY | FLASH_FLAG_EOP | FLASH_FLAG_PGERR | FLASH_FLAG_WRPRTERR);	
   c:	f7ff fffe 	bl	0 <FLASH_ClearFlag>
C:\tien\PROJEKTY\procesory\STM\T108_V100a\sources/gui.c:4641
    FLASH_ErasePage(Flash_Address);
  10:	6820      	ldr	r0, [r4, #0]
  12:	f7ff fffe 	bl	0 <FLASH_ErasePage>
  16:	2400      	movs	r4, #0
C:\tien\PROJEKTY\procesory\STM\T108_V100a\sources/gui.c:4647

    NoOfWords = (sizeof ( Service_Variables_Set.Service_Tab )>>2);

    for ( i = 0; i < NoOfWords; i++ )
    {
        FLASH_ProgramWord(Flash_Address, Service_Variables_Set.Service_Tab[i] );
  18:	4d1a      	ldr	r5, [pc, #104]	(84 <Write_Settings+0x84>)
  1a:	4b1b      	ldr	r3, [pc, #108]	(88 <Write_Settings+0x88>)
  1c:	6828      	ldr	r0, [r5, #0]
  1e:	5919      	ldr	r1, [r3, r4]
  20:	f7ff fffe 	bl	0 <FLASH_ProgramWord>
C:\tien\PROJEKTY\procesory\STM\T108_V100a\sources/gui.c:4648
        Flash_Address+=4;    
  24:	682b      	ldr	r3, [r5, #0]
  26:	3404      	adds	r4, #4
  28:	3304      	adds	r3, #4
C:\tien\PROJEKTY\procesory\STM\T108_V100a\sources/gui.c:4645
    FLASH_ClearFlag(FLASH_FLAG_BSY | FLASH_FLAG_EOP | FLASH_FLAG_PGERR | FLASH_FLAG_WRPRTERR);	
    FLASH_ErasePage(Flash_Address);

    NoOfWords = (sizeof ( Service_Variables_Set.Service_Tab )>>2);

    for ( i = 0; i < NoOfWords; i++ )
  2a:	2c80      	cmp	r4, #128
C:\tien\PROJEKTY\procesory\STM\T108_V100a\sources/gui.c:4648
    {
        FLASH_ProgramWord(Flash_Address, Service_Variables_Set.Service_Tab[i] );
        Flash_Address+=4;    
  2c:	602b      	str	r3, [r5, #0]
C:\tien\PROJEKTY\procesory\STM\T108_V100a\sources/gui.c:4645
    FLASH_ClearFlag(FLASH_FLAG_BSY | FLASH_FLAG_EOP | FLASH_FLAG_PGERR | FLASH_FLAG_WRPRTERR);	
    FLASH_ErasePage(Flash_Address);

    NoOfWords = (sizeof ( Service_Variables_Set.Service_Tab )>>2);

    for ( i = 0; i < NoOfWords; i++ )
  2e:	d1f3      	bne.n	18 <Write_Settings+0x18>
C:\tien\PROJEKTY\procesory\STM\T108_V100a\sources/gui.c:4651
    {
        FLASH_ProgramWord(Flash_Address, Service_Variables_Set.Service_Tab[i] );
        Flash_Address+=4;    
    }

    Flash_Address = EEPROM_BASE_ADDRESS + sizeof ( Service_Variables.Service_Tab );
  30:	4b16      	ldr	r3, [pc, #88]	(8c <Write_Settings+0x8c>)
  32:	602b      	str	r3, [r5, #0]
  34:	2500      	movs	r5, #0
C:\tien\PROJEKTY\procesory\STM\T108_V100a\sources/gui.c:4656
    NoOfWords = (sizeof ( Controlling_Variables_Set.Variables_Tab ) >> 2);

    for ( i = 0; i < NoOfWords; i++ )
    {
        FLASH_ProgramWord(Flash_Address, Controlling_Variables_Set.Variables_Tab[i] );
  36:	4c13      	ldr	r4, [pc, #76]	(84 <Write_Settings+0x84>)
  38:	4f15      	ldr	r7, [pc, #84]	(90 <Write_Settings+0x90>)
  3a:	6820      	ldr	r0, [r4, #0]
  3c:	5979      	ldr	r1, [r7, r5]
  3e:	f7ff fffe 	bl	0 <FLASH_ProgramWord>
C:\tien\PROJEKTY\procesory\STM\T108_V100a\sources/gui.c:4657
        Flash_Address += 4;
  42:	6823      	ldr	r3, [r4, #0]
  44:	3504      	adds	r5, #4
  46:	3304      	adds	r3, #4
C:\tien\PROJEKTY\procesory\STM\T108_V100a\sources/gui.c:4654
    }

    Flash_Address = EEPROM_BASE_ADDRESS + sizeof ( Service_Variables.Service_Tab );
    NoOfWords = (sizeof ( Controlling_Variables_Set.Variables_Tab ) >> 2);

    for ( i = 0; i < NoOfWords; i++ )
  48:	2d40      	cmp	r5, #64
C:\tien\PROJEKTY\procesory\STM\T108_V100a\sources/gui.c:4657
    {
        FLASH_ProgramWord(Flash_Address, Controlling_Variables_Set.Variables_Tab[i] );
        Flash_Address += 4;
  4a:	6023      	str	r3, [r4, #0]
C:\tien\PROJEKTY\procesory\STM\T108_V100a\sources/gui.c:4654
    }

    Flash_Address = EEPROM_BASE_ADDRESS + sizeof ( Service_Variables.Service_Tab );
    NoOfWords = (sizeof ( Controlling_Variables_Set.Variables_Tab ) >> 2);

    for ( i = 0; i < NoOfWords; i++ )
  4c:	d1f3      	bne.n	36 <Write_Settings+0x36>
C:\tien\PROJEKTY\procesory\STM\T108_V100a\sources/gui.c:4660
    {
        FLASH_ProgramWord(Flash_Address, Controlling_Variables_Set.Variables_Tab[i] );
        Flash_Address += 4;
    }

    Controlling_Variables = Controlling_Variables_Set;
  4e:	4e11      	ldr	r6, [pc, #68]	(94 <Write_Settings+0x94>)
  50:	463c      	mov	r4, r7
  52:	4635      	mov	r5, r6
  54:	cc0f      	ldmia	r4!, {r0, r1, r2, r3}
  56:	c50f      	stmia	r5!, {r0, r1, r2, r3}
  58:	cc0f      	ldmia	r4!, {r0, r1, r2, r3}
  5a:	c50f      	stmia	r5!, {r0, r1, r2, r3}
  5c:	cc0f      	ldmia	r4!, {r0, r1, r2, r3}
  5e:	c50f      	stmia	r5!, {r0, r1, r2, r3}
  60:	e894 000f 	ldmia.w	r4, {r0, r1, r2, r3}
C:\tien\PROJEKTY\procesory\STM\T108_V100a\sources/gui.c:4661
    Service_Variables = Service_Variables_Set;
  64:	4c0c      	ldr	r4, [pc, #48]	(98 <Write_Settings+0x98>)
C:\tien\PROJEKTY\procesory\STM\T108_V100a\sources/gui.c:4660
    {
        FLASH_ProgramWord(Flash_Address, Controlling_Variables_Set.Variables_Tab[i] );
        Flash_Address += 4;
    }

    Controlling_Variables = Controlling_Variables_Set;
  66:	e885 000f 	stmia.w	r5, {r0, r1, r2, r3}
C:\tien\PROJEKTY\procesory\STM\T108_V100a\sources/gui.c:4661
    Service_Variables = Service_Variables_Set;
  6a:	2280      	movs	r2, #128
  6c:	4620      	mov	r0, r4
  6e:	4906      	ldr	r1, [pc, #24]	(88 <Write_Settings+0x88>)
  70:	f7ff fffe 	bl	0 <memcpy>
C:\tien\PROJEKTY\procesory\STM\T108_V100a\sources/gui.c:4663

     Language_Num = Service_Variables.Serv_Vars.Jezyk;
  74:	7ae2      	ldrb	r2, [r4, #11]
  76:	4b09      	ldr	r3, [pc, #36]	(9c <Write_Settings+0x9c>)
  78:	701a      	strb	r2, [r3, #0]
C:\tien\PROJEKTY\procesory\STM\T108_V100a\sources/gui.c:4664
}
  7a:	e8bd 81f0 	ldmia.w	sp!, {r4, r5, r6, r7, r8, pc}
  7e:	46c0      	nop			(mov r8, r8)
  80:	0801fc00 	.word	0x0801fc00
	...
  8c:	0801fc80 	.word	0x0801fc80
	...
Disassembly of section .text.Keyboard_Odblokuj:

00000000 <Keyboard_Odblokuj>:
Keyboard_Odblokuj():
C:\tien\PROJEKTY\procesory\STM\T108_V100a\sources/gui.c:4138
* Input          : None
* Output         : None
* Return         : None
*******************************************************************************/
static void Keyboard_Odblokuj ( void )
{
   0:	b510      	push	{r4, lr}
C:\tien\PROJEKTY\procesory\STM\T108_V100a\sources/gui.c:4139
    if ( Keyboard.Keyboard_Memory != 0 && Keyboard.Keyboard_Flag == 1 )
   2:	4b3e      	ldr	r3, [pc, #248]	(fc <Keyboard_Odblokuj+0xfc>)
   4:	781a      	ldrb	r2, [r3, #0]
   6:	2a00      	cmp	r2, #0
   8:	d073      	beq.n	f2 <Keyboard_Odblokuj+0xf2>
   a:	789b      	ldrb	r3, [r3, #2]
   c:	2b01      	cmp	r3, #1
   e:	d170      	bne.n	f2 <Keyboard_Odblokuj+0xf2>
C:\tien\PROJEKTY\procesory\STM\T108_V100a\sources/gui.c:4141
    {
        switch ( Keyboard.Keyboard_Memory )
  10:	2a02      	cmp	r2, #2
  12:	d008      	beq.n	26 <Keyboard_Odblokuj+0x26>
  14:	d802      	bhi.n	1c <Keyboard_Odblokuj+0x1c>
  16:	2a01      	cmp	r2, #1
  18:	d166      	bne.n	e8 <Keyboard_Odblokuj+0xe8>
  1a:	e015      	b.n	48 <Keyboard_Odblokuj+0x48>
  1c:	2a08      	cmp	r2, #8
  1e:	d059      	beq.n	d4 <Keyboard_Odblokuj+0xd4>
  20:	2a20      	cmp	r2, #32
  22:	d161      	bne.n	e8 <Keyboard_Odblokuj+0xe8>
  24:	e048      	b.n	b8 <Keyboard_Odblokuj+0xb8>
C:\tien\PROJEKTY\procesory\STM\T108_V100a\sources/gui.c:4144
        {
            case KEY_ESCAPE:
                    if ( Service_Variables.Serv_Vars.Marker_Blokady == STER_BLOKOWANY || Service_Variables.Serv_Vars.Marker_Blokady == STER_ODBLOKOWANY )
  26:	4b36      	ldr	r3, [pc, #216]	(100 <Keyboard_Odblokuj+0x100>)
  28:	7c5b      	ldrb	r3, [r3, #17]
  2a:	2b03      	cmp	r3, #3
  2c:	d000      	beq.n	30 <Keyboard_Odblokuj+0x30>
  2e:	b90b      	cbnz	r3, 34 <Keyboard_Odblokuj+0x34>
C:\tien\PROJEKTY\procesory\STM\T108_V100a\sources/gui.c:4146
                    {
                        Screen_Number = LICENCJA;
  30:	220e      	movs	r2, #14
  32:	e002      	b.n	3a <Keyboard_Odblokuj+0x3a>
C:\tien\PROJEKTY\procesory\STM\T108_V100a\sources/gui.c:4148
                    }
                    else if ( Service_Variables.Serv_Vars.Marker_Blokady == STER_ZABLOKOWANY )
  34:	2b01      	cmp	r3, #1
  36:	d102      	bne.n	3e <Keyboard_Odblokuj+0x3e>
C:\tien\PROJEKTY\procesory\STM\T108_V100a\sources/gui.c:4150
                    {
                        Screen_Number = STEROWNIK_BLOKOWANY;
  38:	2233      	movs	r2, #51
  3a:	4b32      	ldr	r3, [pc, #200]	(104 <Keyboard_Odblokuj+0x104>)
  3c:	701a      	strb	r2, [r3, #0]
C:\tien\PROJEKTY\procesory\STM\T108_V100a\sources/gui.c:4152
                    }
                    Variable_Editing_Ptr = NULL;
  3e:	4b32      	ldr	r3, [pc, #200]	(108 <Keyboard_Odblokuj+0x108>)
  40:	2200      	movs	r2, #0
  42:	601a      	str	r2, [r3, #0]
C:\tien\PROJEKTY\procesory\STM\T108_V100a\sources/gui.c:4153
                    Reload_Screen = TRUE;
  44:	3201      	adds	r2, #1
  46:	e034      	b.n	b2 <Keyboard_Odblokuj+0xb2>
C:\tien\PROJEKTY\procesory\STM\T108_V100a\sources/gui.c:4157
            break;

            case KEY_ENTER:
                   if ( Service_Variables.Serv_Vars.Haslo_Blokady == Password_Set || Password_Set == SERVICE_PASSWORD )
  48:	4930      	ldr	r1, [pc, #192]	(10c <Keyboard_Odblokuj+0x10c>)
  4a:	4b2d      	ldr	r3, [pc, #180]	(100 <Keyboard_Odblokuj+0x100>)
  4c:	6a0a      	ldr	r2, [r1, #32]
  4e:	685b      	ldr	r3, [r3, #4]
  50:	4293      	cmp	r3, r2
  52:	d002      	beq.n	5a <Keyboard_Odblokuj+0x5a>
  54:	f5b2 6f72 	cmp.w	r2, #3872	; 0xf20
  58:	d119      	bne.n	8e <Keyboard_Odblokuj+0x8e>
C:\tien\PROJEKTY\procesory\STM\T108_V100a\sources/gui.c:4159
                   {
                        Password_Set = 0;
  5a:	4b2c      	ldr	r3, [pc, #176]	(10c <Keyboard_Odblokuj+0x10c>)
  5c:	2200      	movs	r2, #0
  5e:	621a      	str	r2, [r3, #32]
C:\tien\PROJEKTY\procesory\STM\T108_V100a\sources/gui.c:4161
                   
                        if ( Controlling_Variables.Ctrl_Vars.Motor_Type == 0 ) //Freqw_Inverter
  60:	4b2b      	ldr	r3, [pc, #172]	(110 <Keyboard_Odblokuj+0x110>)
  62:	4a2c      	ldr	r2, [pc, #176]	(114 <Keyboard_Odblokuj+0x114>)
  64:	f893 302e 	ldrb.w	r3, [r3, #46]
  68:	b90b      	cbnz	r3, 6e <Keyboard_Odblokuj+0x6e>
C:\tien\PROJEKTY\procesory\STM\T108_V100a\sources/gui.c:4162
                            Machine_State = INVERTER_PROG;
  6a:	3329      	adds	r3, #41
  6c:	e000      	b.n	70 <Keyboard_Odblokuj+0x70>
C:\tien\PROJEKTY\procesory\STM\T108_V100a\sources/gui.c:4164
                        else // 24V sliding gate
                            Machine_State = WG_POWER_ON;
  6e:	2311      	movs	r3, #17
  70:	7013      	strb	r3, [r2, #0]
C:\tien\PROJEKTY\procesory\STM\T108_V100a\sources/gui.c:4166

                        WG_TIMER_FLAG = FALSE;
  72:	4b29      	ldr	r3, [pc, #164]	(118 <Keyboard_Odblokuj+0x118>)
  74:	2100      	movs	r1, #0
  76:	7019      	strb	r1, [r3, #0]
C:\tien\PROJEKTY\procesory\STM\T108_V100a\sources/gui.c:4168
                        
                        Service_Variables_Set.Serv_Vars.Blok_Prog_Pozostalo = Service_Variables_Set.Serv_Vars.Ilosc_Prob_Blokady;                  
  78:	4b28      	ldr	r3, [pc, #160]	(11c <Keyboard_Odblokuj+0x11c>)
  7a:	7a9a      	ldrb	r2, [r3, #10]
C:\tien\PROJEKTY\procesory\STM\T108_V100a\sources/gui.c:4169
                        Service_Variables_Set.Serv_Vars.Marker_Blokady = STER_ODBLOKOWANY;
  7c:	7459      	strb	r1, [r3, #17]
C:\tien\PROJEKTY\procesory\STM\T108_V100a\sources/gui.c:4168
                        else // 24V sliding gate
                            Machine_State = WG_POWER_ON;

                        WG_TIMER_FLAG = FALSE;
                        
                        Service_Variables_Set.Serv_Vars.Blok_Prog_Pozostalo = Service_Variables_Set.Serv_Vars.Ilosc_Prob_Blokady;                  
  7e:	74da      	strb	r2, [r3, #19]
C:\tien\PROJEKTY\procesory\STM\T108_V100a\sources/gui.c:4170
                        Service_Variables_Set.Serv_Vars.Marker_Blokady = STER_ODBLOKOWANY;
                        Service_Variables_Set.Serv_Vars.Blokada = 1;
  80:	2201      	movs	r2, #1
  82:	721a      	strb	r2, [r3, #8]
C:\tien\PROJEKTY\procesory\STM\T108_V100a\sources/gui.c:4171
                        Variable_Editing_Ptr = NULL;                   
  84:	4b20      	ldr	r3, [pc, #128]	(108 <Keyboard_Odblokuj+0x108>)
  86:	6019      	str	r1, [r3, #0]
C:\tien\PROJEKTY\procesory\STM\T108_V100a\sources/gui.c:4172
                        Screen_Number = Screen_After_Password;
  88:	4b25      	ldr	r3, [pc, #148]	(120 <Keyboard_Odblokuj+0x120>)
  8a:	781a      	ldrb	r2, [r3, #0]
  8c:	e00c      	b.n	a8 <Keyboard_Odblokuj+0xa8>
C:\tien\PROJEKTY\procesory\STM\T108_V100a\sources/gui.c:4177
                   }
                   else
                   {
                        Password_Set = 0;
                        Count_Add = 0; 
  8e:	4b25      	ldr	r3, [pc, #148]	(124 <Keyboard_Odblokuj+0x124>)
C:\tien\PROJEKTY\procesory\STM\T108_V100a\sources/gui.c:4176
                        Variable_Editing_Ptr = NULL;                   
                        Screen_Number = Screen_After_Password;
                   }
                   else
                   {
                        Password_Set = 0;
  90:	2200      	movs	r2, #0
C:\tien\PROJEKTY\procesory\STM\T108_V100a\sources/gui.c:4177
                        Count_Add = 0; 
  92:	701a      	strb	r2, [r3, #0]
C:\tien\PROJEKTY\procesory\STM\T108_V100a\sources/gui.c:4176
                        Variable_Editing_Ptr = NULL;                   
                        Screen_Number = Screen_After_Password;
                   }
                   else
                   {
                        Password_Set = 0;
  94:	620a      	str	r2, [r1, #32]
C:\tien\PROJEKTY\procesory\STM\T108_V100a\sources/gui.c:4179
                        Count_Add = 0; 
               
                        if ( --Service_Variables_Set.Serv_Vars.Blok_Prog_Pozostalo == 0 )
  96:	4a21      	ldr	r2, [pc, #132]	(11c <Keyboard_Odblokuj+0x11c>)
  98:	7cd3      	ldrb	r3, [r2, #19]
  9a:	3b01      	subs	r3, #1
  9c:	b2db      	uxtb	r3, r3
  9e:	74d3      	strb	r3, [r2, #19]
  a0:	b923      	cbnz	r3, ac <Keyboard_Odblokuj+0xac>
C:\tien\PROJEKTY\procesory\STM\T108_V100a\sources/gui.c:4181
                        {
                            Service_Variables_Set.Serv_Vars.Marker_Blokady = STER_BLOKADA_CALKOWITA;
  a2:	3302      	adds	r3, #2
  a4:	7453      	strb	r3, [r2, #17]
C:\tien\PROJEKTY\procesory\STM\T108_V100a\sources/gui.c:4182
                            Screen_Number = BLOK_CALKOWITA;
  a6:	2232      	movs	r2, #50
  a8:	4b16      	ldr	r3, [pc, #88]	(104 <Keyboard_Odblokuj+0x104>)
  aa:	701a      	strb	r2, [r3, #0]
C:\tien\PROJEKTY\procesory\STM\T108_V100a\sources/gui.c:4186
                        }
                   }
               
                   Write_Settings();  
  ac:	f7ff fffe 	bl	0 <Keyboard_Odblokuj>
C:\tien\PROJEKTY\procesory\STM\T108_V100a\sources/gui.c:4187
                   Reload_Screen = TRUE;
  b0:	2201      	movs	r2, #1
  b2:	4b1d      	ldr	r3, [pc, #116]	(128 <Keyboard_Odblokuj+0x128>)
  b4:	701a      	strb	r2, [r3, #0]
  b6:	e019      	b.n	ec <Keyboard_Odblokuj+0xec>
C:\tien\PROJEKTY\procesory\STM\T108_V100a\sources/gui.c:4191
            break;

            case KEY_DOWN:
              if ( ++Count_Add == Variable_Editing_Ptr->Var_Param_Ptr->Variable_Digits_Count )
  b8:	491a      	ldr	r1, [pc, #104]	(124 <Keyboard_Odblokuj+0x124>)
  ba:	4b13      	ldr	r3, [pc, #76]	(108 <Keyboard_Odblokuj+0x108>)
  bc:	780a      	ldrb	r2, [r1, #0]
  be:	681b      	ldr	r3, [r3, #0]
  c0:	3201      	adds	r2, #1
  c2:	b2d2      	uxtb	r2, r2
  c4:	700a      	strb	r2, [r1, #0]
  c6:	68db      	ldr	r3, [r3, #12]
  c8:	789b      	ldrb	r3, [r3, #2]
  ca:	4293      	cmp	r3, r2
  cc:	d1f0      	bne.n	b0 <Keyboard_Odblokuj+0xb0>
C:\tien\PROJEKTY\procesory\STM\T108_V100a\sources/gui.c:4193
              {
                  Count_Add = 0;
  ce:	2300      	movs	r3, #0
  d0:	700b      	strb	r3, [r1, #0]
  d2:	e7ed      	b.n	b0 <Keyboard_Odblokuj+0xb0>
C:\tien\PROJEKTY\procesory\STM\T108_V100a\sources/gui.c:4199
              }
              Reload_Screen = TRUE;  
            break;
          
            case KEY_UP:
              Count_Add = 0;
  d4:	4b13      	ldr	r3, [pc, #76]	(124 <Keyboard_Odblokuj+0x124>)
  d6:	2200      	movs	r2, #0
  d8:	701a      	strb	r2, [r3, #0]
C:\tien\PROJEKTY\procesory\STM\T108_V100a\sources/gui.c:4200
              if ( Next_Editable_Variable() == FALSE )
  da:	f7ff fffe 	bl	0 <Keyboard_Odblokuj>
  de:	2800      	cmp	r0, #0
  e0:	d1e6      	bne.n	b0 <Keyboard_Odblokuj+0xb0>
C:\tien\PROJEKTY\procesory\STM\T108_V100a\sources/gui.c:4202
              {
                  First_Editable_Variable();
  e2:	f7ff fffe 	bl	0 <Keyboard_Odblokuj>
  e6:	e7e3      	b.n	ffffffca <Screen_Alert_Error+0xffffd286>
C:\tien\PROJEKTY\procesory\STM\T108_V100a\sources/gui.c:4208
              }
              Reload_Screen = TRUE;
            break;

            default:
                Keyboard_Edit_Variable();
  e8:	f7ff fffe 	bl	0 <Keyboard_Odblokuj>
C:\tien\PROJEKTY\procesory\STM\T108_V100a\sources/gui.c:4211
            break;
        }
        Keyboard.Keyboard_Flag = 0;
  ec:	4b03      	ldr	r3, [pc, #12]	(fc <Keyboard_Odblokuj+0xfc>)
  ee:	2200      	movs	r2, #0
  f0:	709a      	strb	r2, [r3, #2]
C:\tien\PROJEKTY\procesory\STM\T108_V100a\sources/gui.c:4214
    }

    if ( Keyboard.Keyboard_State == 0 )
  f2:	4a02      	ldr	r2, [pc, #8]	(fc <Keyboard_Odblokuj+0xfc>)
  f4:	7853      	ldrb	r3, [r2, #1]
  f6:	b903      	cbnz	r3, fa <Keyboard_Odblokuj+0xfa>
C:\tien\PROJEKTY\procesory\STM\T108_V100a\sources/gui.c:4216
    {
        Keyboard.Keyboard_Memory = 0;
  f8:	7013      	strb	r3, [r2, #0]
C:\tien\PROJEKTY\procesory\STM\T108_V100a\sources/gui.c:4218
    }
}
  fa:	bd10      	pop	{r4, pc}
	...
Disassembly of section .text.Keyboard_Ust_Serwisowe:

00000000 <Keyboard_Ust_Serwisowe>:
Keyboard_Ust_Serwisowe():
C:\tien\PROJEKTY\procesory\STM\T108_V100a\sources/gui.c:4348
* Input          : None
* Output         : None
* Return         : None
*******************************************************************************/
static void Keyboard_Ust_Serwisowe ( void )
{
   0:	b510      	push	{r4, lr}
C:\tien\PROJEKTY\procesory\STM\T108_V100a\sources/gui.c:4349
    if ( Keyboard.Keyboard_Memory != 0 && Keyboard.Keyboard_Flag == 1 )
   2:	4a2e      	ldr	r2, [pc, #184]	(bc <Keyboard_Ust_Serwisowe+0xbc>)
   4:	7813      	ldrb	r3, [r2, #0]
   6:	2b00      	cmp	r3, #0
   8:	d053      	beq.n	b2 <Keyboard_Ust_Serwisowe+0xb2>
   a:	7894      	ldrb	r4, [r2, #2]
   c:	2c01      	cmp	r4, #1
   e:	d150      	bne.n	b2 <Keyboard_Ust_Serwisowe+0xb2>
C:\tien\PROJEKTY\procesory\STM\T108_V100a\sources/gui.c:4351
    {
        switch ( Keyboard.Keyboard_Memory )
  10:	2b02      	cmp	r3, #2
  12:	d008      	beq.n	26 <Keyboard_Ust_Serwisowe+0x26>
  14:	d802      	bhi.n	1c <Keyboard_Ust_Serwisowe+0x1c>
  16:	2b01      	cmp	r3, #1
  18:	d146      	bne.n	a8 <Keyboard_Ust_Serwisowe+0xa8>
  1a:	e020      	b.n	5e <Keyboard_Ust_Serwisowe+0x5e>
  1c:	2b08      	cmp	r3, #8
  1e:	d03b      	beq.n	98 <Keyboard_Ust_Serwisowe+0x98>
  20:	2b20      	cmp	r3, #32
  22:	d141      	bne.n	a8 <Keyboard_Ust_Serwisowe+0xa8>
  24:	e02a      	b.n	7c <Keyboard_Ust_Serwisowe+0x7c>
C:\tien\PROJEKTY\procesory\STM\T108_V100a\sources/gui.c:4354
        {
            case KEY_ESCAPE:
                    Variable_Editing_Ptr = NULL;
  26:	4b26      	ldr	r3, [pc, #152]	(c0 <Keyboard_Ust_Serwisowe+0xc0>)
  28:	2200      	movs	r2, #0
  2a:	601a      	str	r2, [r3, #0]
C:\tien\PROJEKTY\procesory\STM\T108_V100a\sources/gui.c:4355
                    Write_Settings();
  2c:	f7ff fffe 	bl	0 <Keyboard_Ust_Serwisowe>
C:\tien\PROJEKTY\procesory\STM\T108_V100a\sources/gui.c:4356
                    Menu_Keys = Menu_Backup_Keys_Set;
  30:	2203      	movs	r2, #3
  32:	4824      	ldr	r0, [pc, #144]	(c4 <Keyboard_Ust_Serwisowe+0xc4>)
  34:	4924      	ldr	r1, [pc, #144]	(c8 <Keyboard_Ust_Serwisowe+0xc8>)
  36:	f7ff fffe 	bl	0 <memcpy>
C:\tien\PROJEKTY\procesory\STM\T108_V100a\sources/gui.c:4357
                    Screen_Number = Screen_Before_Password;
  3a:	4b24      	ldr	r3, [pc, #144]	(cc <Keyboard_Ust_Serwisowe+0xcc>)
  3c:	781a      	ldrb	r2, [r3, #0]
  3e:	4b24      	ldr	r3, [pc, #144]	(d0 <Keyboard_Ust_Serwisowe+0xd0>)
  40:	701a      	strb	r2, [r3, #0]
C:\tien\PROJEKTY\procesory\STM\T108_V100a\sources/gui.c:4358
                    Reload_Screen = TRUE;
  42:	4b24      	ldr	r3, [pc, #144]	(d4 <Keyboard_Ust_Serwisowe+0xd4>)
  44:	4a24      	ldr	r2, [pc, #144]	(d8 <Keyboard_Ust_Serwisowe+0xd8>)
  46:	701c      	strb	r4, [r3, #0]
C:\tien\PROJEKTY\procesory\STM\T108_V100a\sources/gui.c:4360

                    if ( Controlling_Variables.Ctrl_Vars.Motor_Type == 0 ) //Freqw_Inverter
  48:	4b24      	ldr	r3, [pc, #144]	(dc <Keyboard_Ust_Serwisowe+0xdc>)
  4a:	f893 302e 	ldrb.w	r3, [r3, #46]
  4e:	b90b      	cbnz	r3, 54 <Keyboard_Ust_Serwisowe+0x54>
C:\tien\PROJEKTY\procesory\STM\T108_V100a\sources/gui.c:4361
                        Machine_State = INVERTER_PROG;
  50:	3329      	adds	r3, #41
  52:	e000      	b.n	56 <Keyboard_Ust_Serwisowe+0x56>
C:\tien\PROJEKTY\procesory\STM\T108_V100a\sources/gui.c:4363
                    else // 24V sliding gate
                        Machine_State = WG_POWER_ON;
  54:	2311      	movs	r3, #17
  56:	7013      	strb	r3, [r2, #0]
C:\tien\PROJEKTY\procesory\STM\T108_V100a\sources/gui.c:4365
                    
                    WG_TIMER_FLAG = FALSE;
  58:	2200      	movs	r2, #0
  5a:	4b21      	ldr	r3, [pc, #132]	(e0 <Keyboard_Ust_Serwisowe+0xe0>)
  5c:	e00c      	b.n	78 <Keyboard_Ust_Serwisowe+0x78>
C:\tien\PROJEKTY\procesory\STM\T108_V100a\sources/gui.c:4370

            break;

            case KEY_ENTER:
                   if ( ++Screen_Number > UST_SERWISOWE4 )
  5e:	4a1c      	ldr	r2, [pc, #112]	(d0 <Keyboard_Ust_Serwisowe+0xd0>)
  60:	7813      	ldrb	r3, [r2, #0]
  62:	3301      	adds	r3, #1
  64:	b2db      	uxtb	r3, r3
  66:	2b2e      	cmp	r3, #46
  68:	7013      	strb	r3, [r2, #0]
  6a:	d901      	bls.n	70 <Keyboard_Ust_Serwisowe+0x70>
C:\tien\PROJEKTY\procesory\STM\T108_V100a\sources/gui.c:4372
                   {
                       Screen_Number = UST_SERWISOWE1;
  6c:	232b      	movs	r3, #43
  6e:	7013      	strb	r3, [r2, #0]
C:\tien\PROJEKTY\procesory\STM\T108_V100a\sources/gui.c:4374
                   }
                   First_Editable_Variable();
  70:	f7ff fffe 	bl	0 <Keyboard_Ust_Serwisowe>
C:\tien\PROJEKTY\procesory\STM\T108_V100a\sources/gui.c:4375
                   Reload_Screen = TRUE;
  74:	4b17      	ldr	r3, [pc, #92]	(d4 <Keyboard_Ust_Serwisowe+0xd4>)
  76:	2201      	movs	r2, #1
  78:	701a      	strb	r2, [r3, #0]
  7a:	e017      	b.n	ac <Keyboard_Ust_Serwisowe+0xac>
C:\tien\PROJEKTY\procesory\STM\T108_V100a\sources/gui.c:4379
            break;

            case KEY_DOWN:
              if ( ++Count_Add == Variable_Editing_Ptr->Var_Param_Ptr->Variable_Digits_Count )
  7c:	4919      	ldr	r1, [pc, #100]	(e4 <Keyboard_Ust_Serwisowe+0xe4>)
  7e:	4b10      	ldr	r3, [pc, #64]	(c0 <Keyboard_Ust_Serwisowe+0xc0>)
  80:	780a      	ldrb	r2, [r1, #0]
  82:	681b      	ldr	r3, [r3, #0]
  84:	3201      	adds	r2, #1
  86:	b2d2      	uxtb	r2, r2
  88:	700a      	strb	r2, [r1, #0]
  8a:	68db      	ldr	r3, [r3, #12]
  8c:	789b      	ldrb	r3, [r3, #2]
  8e:	4293      	cmp	r3, r2
  90:	d1f0      	bne.n	74 <Keyboard_Ust_Serwisowe+0x74>
C:\tien\PROJEKTY\procesory\STM\T108_V100a\sources/gui.c:4381
              {
                  Count_Add = 0;
  92:	2300      	movs	r3, #0
  94:	700b      	strb	r3, [r1, #0]
  96:	e7ed      	b.n	74 <Keyboard_Ust_Serwisowe+0x74>
C:\tien\PROJEKTY\procesory\STM\T108_V100a\sources/gui.c:4387
              }
              Reload_Screen = TRUE;  
            break;
          
            case KEY_UP:
              Count_Add = 0;
  98:	4b12      	ldr	r3, [pc, #72]	(e4 <Keyboard_Ust_Serwisowe+0xe4>)
  9a:	2200      	movs	r2, #0
  9c:	701a      	strb	r2, [r3, #0]
C:\tien\PROJEKTY\procesory\STM\T108_V100a\sources/gui.c:4388
              if ( Next_Editable_Variable() == FALSE )
  9e:	f7ff fffe 	bl	0 <Keyboard_Ust_Serwisowe>
  a2:	2800      	cmp	r0, #0
  a4:	d1e6      	bne.n	74 <Keyboard_Ust_Serwisowe+0x74>
  a6:	e7e3      	b.n	70 <Keyboard_Ust_Serwisowe+0x70>
C:\tien\PROJEKTY\procesory\STM\T108_V100a\sources/gui.c:4396
              }
              Reload_Screen = TRUE;
            break;

            default:
                Keyboard_Edit_Variable();
  a8:	f7ff fffe 	bl	0 <Keyboard_Ust_Serwisowe>
C:\tien\PROJEKTY\procesory\STM\T108_V100a\sources/gui.c:4399
            break;
        }
        Keyboard.Keyboard_Flag = 0;
  ac:	4b03      	ldr	r3, [pc, #12]	(bc <Keyboard_Ust_Serwisowe+0xbc>)
  ae:	2200      	movs	r2, #0
  b0:	709a      	strb	r2, [r3, #2]
C:\tien\PROJEKTY\procesory\STM\T108_V100a\sources/gui.c:4402
    }

    if ( Keyboard.Keyboard_State == 0 )
  b2:	4a02      	ldr	r2, [pc, #8]	(bc <Keyboard_Ust_Serwisowe+0xbc>)
  b4:	7853      	ldrb	r3, [r2, #1]
  b6:	b903      	cbnz	r3, ba <Keyboard_Ust_Serwisowe+0xba>
C:\tien\PROJEKTY\procesory\STM\T108_V100a\sources/gui.c:4404
    {
        Keyboard.Keyboard_Memory = 0;
  b8:	7013      	strb	r3, [r2, #0]
C:\tien\PROJEKTY\procesory\STM\T108_V100a\sources/gui.c:4406
    }
}
  ba:	bd10      	pop	{r4, pc}
	...
  c4:	00000011 	.word	0x00000011
	...
Disassembly of section .text.Keyboard_Licznik_Pracy:

00000000 <Keyboard_Licznik_Pracy>:
Keyboard_Licznik_Pracy():
C:\tien\PROJEKTY\procesory\STM\T108_V100a\sources/gui.c:3997
* Input          : None
* Output         : None
* Return         : None
*******************************************************************************/
static void Keyboard_Licznik_Pracy ( void )
{
   0:	b510      	push	{r4, lr}
C:\tien\PROJEKTY\procesory\STM\T108_V100a\sources/gui.c:3998
    if ( Keyboard.Keyboard_Memory != 0 && Keyboard.Keyboard_Flag == 1 )
   2:	4a21      	ldr	r2, [pc, #132]	(88 <Keyboard_Licznik_Pracy+0x88>)
   4:	7813      	ldrb	r3, [r2, #0]
   6:	2b00      	cmp	r3, #0
   8:	d038      	beq.n	7c <Keyboard_Licznik_Pracy+0x7c>
   a:	7894      	ldrb	r4, [r2, #2]
   c:	2c01      	cmp	r4, #1
   e:	d135      	bne.n	7c <Keyboard_Licznik_Pracy+0x7c>
C:\tien\PROJEKTY\procesory\STM\T108_V100a\sources/gui.c:4000
    {
        switch ( Keyboard.Keyboard_Memory )
  10:	2b08      	cmp	r3, #8
  12:	d022      	beq.n	5a <Keyboard_Licznik_Pracy+0x5a>
  14:	2b20      	cmp	r3, #32
  16:	d012      	beq.n	3e <Keyboard_Licznik_Pracy+0x3e>
  18:	2b02      	cmp	r3, #2
  1a:	d12a      	bne.n	72 <Keyboard_Licznik_Pracy+0x72>
C:\tien\PROJEKTY\procesory\STM\T108_V100a\sources/gui.c:4003
        {
            case KEY_ESCAPE:
                    Write_Settings();           
  1c:	f7ff fffe 	bl	0 <Keyboard_Licznik_Pracy>
C:\tien\PROJEKTY\procesory\STM\T108_V100a\sources/gui.c:4004
                    Variable_Editing_Ptr = NULL;
  20:	4b1a      	ldr	r3, [pc, #104]	(8c <Keyboard_Licznik_Pracy+0x8c>)
  22:	2200      	movs	r2, #0
  24:	601a      	str	r2, [r3, #0]
C:\tien\PROJEKTY\procesory\STM\T108_V100a\sources/gui.c:4005
                    Menu_Keys = Menu_Backup_Keys_Set;
  26:	481a      	ldr	r0, [pc, #104]	(90 <Keyboard_Licznik_Pracy+0x90>)
  28:	3203      	adds	r2, #3
  2a:	491a      	ldr	r1, [pc, #104]	(94 <Keyboard_Licznik_Pracy+0x94>)
  2c:	f7ff fffe 	bl	0 <memcpy>
C:\tien\PROJEKTY\procesory\STM\T108_V100a\sources/gui.c:4006
                    Screen_Number = Screen_Before_Password;;
  30:	4b19      	ldr	r3, [pc, #100]	(98 <Keyboard_Licznik_Pracy+0x98>)
  32:	781a      	ldrb	r2, [r3, #0]
  34:	4b19      	ldr	r3, [pc, #100]	(9c <Keyboard_Licznik_Pracy+0x9c>)
  36:	701a      	strb	r2, [r3, #0]
C:\tien\PROJEKTY\procesory\STM\T108_V100a\sources/gui.c:4007
                    Reload_Screen = TRUE;
  38:	4b19      	ldr	r3, [pc, #100]	(a0 <Keyboard_Licznik_Pracy+0xa0>)
  3a:	701c      	strb	r4, [r3, #0]
  3c:	e01b      	b.n	76 <Keyboard_Licznik_Pracy+0x76>
C:\tien\PROJEKTY\procesory\STM\T108_V100a\sources/gui.c:4011
            break;

            case KEY_DOWN:
              if ( ++Count_Add == Variable_Editing_Ptr->Var_Param_Ptr->Variable_Digits_Count )
  3e:	4919      	ldr	r1, [pc, #100]	(a4 <Keyboard_Licznik_Pracy+0xa4>)
  40:	4b12      	ldr	r3, [pc, #72]	(8c <Keyboard_Licznik_Pracy+0x8c>)
  42:	780a      	ldrb	r2, [r1, #0]
  44:	681b      	ldr	r3, [r3, #0]
  46:	3201      	adds	r2, #1
  48:	b2d2      	uxtb	r2, r2
  4a:	700a      	strb	r2, [r1, #0]
  4c:	68db      	ldr	r3, [r3, #12]
  4e:	789b      	ldrb	r3, [r3, #2]
  50:	4293      	cmp	r3, r2
  52:	d10a      	bne.n	6a <Keyboard_Licznik_Pracy+0x6a>
C:\tien\PROJEKTY\procesory\STM\T108_V100a\sources/gui.c:4013
              {
                  Count_Add = 0;
  54:	2300      	movs	r3, #0
  56:	700b      	strb	r3, [r1, #0]
  58:	e007      	b.n	6a <Keyboard_Licznik_Pracy+0x6a>
C:\tien\PROJEKTY\procesory\STM\T108_V100a\sources/gui.c:4019
              }
              Reload_Screen = TRUE;  
            break;
          
            case KEY_UP:
              Count_Add = 0;
  5a:	4b12      	ldr	r3, [pc, #72]	(a4 <Keyboard_Licznik_Pracy+0xa4>)
  5c:	2200      	movs	r2, #0
  5e:	701a      	strb	r2, [r3, #0]
C:\tien\PROJEKTY\procesory\STM\T108_V100a\sources/gui.c:4020
              if ( Next_Editable_Variable() == FALSE )
  60:	f7ff fffe 	bl	0 <Keyboard_Licznik_Pracy>
  64:	b908      	cbnz	r0, 6 <Keyboard_Licznik_Pracy+0x6>
C:\tien\PROJEKTY\procesory\STM\T108_V100a\sources/gui.c:4022
              {
                  First_Editable_Variable();
  66:	f7ff fffe 	bl	0 <Keyboard_Licznik_Pracy>
C:\tien\PROJEKTY\procesory\STM\T108_V100a\sources/gui.c:4024
              }
              Reload_Screen = TRUE;
  6a:	4b0d      	ldr	r3, [pc, #52]	(a0 <Keyboard_Licznik_Pracy+0xa0>)
  6c:	2201      	movs	r2, #1
  6e:	701a      	strb	r2, [r3, #0]
  70:	e001      	b.n	76 <Keyboard_Licznik_Pracy+0x76>
C:\tien\PROJEKTY\procesory\STM\T108_V100a\sources/gui.c:4028
            break;

            default:
                Keyboard_Edit_Variable();
  72:	f7ff fffe 	bl	0 <Keyboard_Licznik_Pracy>
C:\tien\PROJEKTY\procesory\STM\T108_V100a\sources/gui.c:4031
            break;
        }
        Keyboard.Keyboard_Flag = 0;
  76:	4b04      	ldr	r3, [pc, #16]	(88 <Keyboard_Licznik_Pracy+0x88>)
  78:	2200      	movs	r2, #0
  7a:	709a      	strb	r2, [r3, #2]
C:\tien\PROJEKTY\procesory\STM\T108_V100a\sources/gui.c:4034
    }

    if ( Keyboard.Keyboard_State == 0 )
  7c:	4a02      	ldr	r2, [pc, #8]	(88 <Keyboard_Licznik_Pracy+0x88>)
  7e:	7853      	ldrb	r3, [r2, #1]
  80:	b903      	cbnz	r3, 84 <Keyboard_Licznik_Pracy+0x84>
C:\tien\PROJEKTY\procesory\STM\T108_V100a\sources/gui.c:4036
    {
        Keyboard.Keyboard_Memory = 0;
  82:	7013      	strb	r3, [r2, #0]
C:\tien\PROJEKTY\procesory\STM\T108_V100a\sources/gui.c:4038
    }
}
  84:	bd10      	pop	{r4, pc}
  86:	46c0      	nop			(mov r8, r8)
	...
  90:	00000011 	.word	0x00000011
	...
Disassembly of section .text.Keyboard_RTC:

00000000 <Keyboard_RTC>:
Keyboard_RTC():
C:\tien\PROJEKTY\procesory\STM\T108_V100a\sources/gui.c:3945
* Input          : None
* Output         : None
* Return         : None
*******************************************************************************/
static void Keyboard_RTC ( void )
{
   0:	b510      	push	{r4, lr}
C:\tien\PROJEKTY\procesory\STM\T108_V100a\sources/gui.c:3946
    if ( Keyboard.Keyboard_Memory != 0 && Keyboard.Keyboard_Flag == 1 )
   2:	4a20      	ldr	r2, [pc, #128]	(84 <Keyboard_RTC+0x84>)
   4:	7813      	ldrb	r3, [r2, #0]
   6:	2b00      	cmp	r3, #0
   8:	d037      	beq.n	7a <Keyboard_RTC+0x7a>
   a:	7894      	ldrb	r4, [r2, #2]
   c:	2c01      	cmp	r4, #1
   e:	d134      	bne.n	7a <Keyboard_RTC+0x7a>
C:\tien\PROJEKTY\procesory\STM\T108_V100a\sources/gui.c:3948
    {
        switch ( Keyboard.Keyboard_Memory )
  10:	2b08      	cmp	r3, #8
  12:	d021      	beq.n	58 <Keyboard_RTC+0x58>
  14:	2b20      	cmp	r3, #32
  16:	d011      	beq.n	3c <Keyboard_RTC+0x3c>
  18:	2b02      	cmp	r3, #2
  1a:	d129      	bne.n	70 <Keyboard_RTC+0x70>
C:\tien\PROJEKTY\procesory\STM\T108_V100a\sources/gui.c:3951
        {
            case KEY_ESCAPE:
                    Write_Settings();
  1c:	f7ff fffe 	bl	0 <Keyboard_RTC>
C:\tien\PROJEKTY\procesory\STM\T108_V100a\sources/gui.c:3952
                    Variable_Editing_Ptr = NULL;
  20:	4b19      	ldr	r3, [pc, #100]	(88 <Keyboard_RTC+0x88>)
  22:	2200      	movs	r2, #0
  24:	601a      	str	r2, [r3, #0]
C:\tien\PROJEKTY\procesory\STM\T108_V100a\sources/gui.c:3953
                    Menu_Keys = Menu_Backup_Keys_Set;
  26:	4819      	ldr	r0, [pc, #100]	(8c <Keyboard_RTC+0x8c>)
  28:	3203      	adds	r2, #3
  2a:	4919      	ldr	r1, [pc, #100]	(90 <Keyboard_RTC+0x90>)
  2c:	f7ff fffe 	bl	0 <memcpy>
C:\tien\PROJEKTY\procesory\STM\T108_V100a\sources/gui.c:3954
                    Screen_Number = SUBMENU3;
  30:	4b18      	ldr	r3, [pc, #96]	(94 <Keyboard_RTC+0x94>)
  32:	2208      	movs	r2, #8
  34:	701a      	strb	r2, [r3, #0]
C:\tien\PROJEKTY\procesory\STM\T108_V100a\sources/gui.c:3955
                    Reload_Screen = TRUE;
  36:	4b18      	ldr	r3, [pc, #96]	(98 <Keyboard_RTC+0x98>)
  38:	701c      	strb	r4, [r3, #0]
  3a:	e01b      	b.n	74 <Keyboard_RTC+0x74>
C:\tien\PROJEKTY\procesory\STM\T108_V100a\sources/gui.c:3959
            break;

            case KEY_DOWN:
              if ( ++Count_Add == Variable_Editing_Ptr->Var_Param_Ptr->Variable_Digits_Count )
  3c:	4917      	ldr	r1, [pc, #92]	(9c <Keyboard_RTC+0x9c>)
  3e:	4b12      	ldr	r3, [pc, #72]	(88 <Keyboard_RTC+0x88>)
  40:	780a      	ldrb	r2, [r1, #0]
  42:	681b      	ldr	r3, [r3, #0]
  44:	3201      	adds	r2, #1
  46:	b2d2      	uxtb	r2, r2
  48:	700a      	strb	r2, [r1, #0]
  4a:	68db      	ldr	r3, [r3, #12]
  4c:	789b      	ldrb	r3, [r3, #2]
  4e:	4293      	cmp	r3, r2
  50:	d10a      	bne.n	68 <Keyboard_RTC+0x68>
C:\tien\PROJEKTY\procesory\STM\T108_V100a\sources/gui.c:3961
              {
                  Count_Add = 0;
  52:	2300      	movs	r3, #0
  54:	700b      	strb	r3, [r1, #0]
  56:	e007      	b.n	68 <Keyboard_RTC+0x68>
C:\tien\PROJEKTY\procesory\STM\T108_V100a\sources/gui.c:3967
              }
              Reload_Screen = TRUE;  
            break;
          
            case KEY_UP:
              Count_Add = 0;
  58:	4b10      	ldr	r3, [pc, #64]	(9c <Keyboard_RTC+0x9c>)
  5a:	2200      	movs	r2, #0
  5c:	701a      	strb	r2, [r3, #0]
C:\tien\PROJEKTY\procesory\STM\T108_V100a\sources/gui.c:3968
              if ( Next_Editable_Variable() == FALSE )
  5e:	f7ff fffe 	bl	0 <Keyboard_RTC>
  62:	b908      	cbnz	r0, 6 <Keyboard_RTC+0x6>
C:\tien\PROJEKTY\procesory\STM\T108_V100a\sources/gui.c:3970
              {
                  First_Editable_Variable();
  64:	f7ff fffe 	bl	0 <Keyboard_RTC>
C:\tien\PROJEKTY\procesory\STM\T108_V100a\sources/gui.c:3972
              }
              Reload_Screen = TRUE;
  68:	4b0b      	ldr	r3, [pc, #44]	(98 <Keyboard_RTC+0x98>)
  6a:	2201      	movs	r2, #1
  6c:	701a      	strb	r2, [r3, #0]
  6e:	e001      	b.n	74 <Keyboard_RTC+0x74>
C:\tien\PROJEKTY\procesory\STM\T108_V100a\sources/gui.c:3976
            break;

            default:
                Keyboard_Edit_Variable();
  70:	f7ff fffe 	bl	0 <Keyboard_RTC>
C:\tien\PROJEKTY\procesory\STM\T108_V100a\sources/gui.c:3979
            break;
        }
        Keyboard.Keyboard_Flag = 0;
  74:	4b03      	ldr	r3, [pc, #12]	(84 <Keyboard_RTC+0x84>)
  76:	2200      	movs	r2, #0
  78:	709a      	strb	r2, [r3, #2]
C:\tien\PROJEKTY\procesory\STM\T108_V100a\sources/gui.c:3982
    }

    if ( Keyboard.Keyboard_State == 0 )
  7a:	4a02      	ldr	r2, [pc, #8]	(84 <Keyboard_RTC+0x84>)
  7c:	7853      	ldrb	r3, [r2, #1]
  7e:	b903      	cbnz	r3, 82 <Keyboard_RTC+0x82>
C:\tien\PROJEKTY\procesory\STM\T108_V100a\sources/gui.c:3984
    {
        Keyboard.Keyboard_Memory = 0;
  80:	7013      	strb	r3, [r2, #0]
C:\tien\PROJEKTY\procesory\STM\T108_V100a\sources/gui.c:3986
    }
}
  82:	bd10      	pop	{r4, pc}
	...
  8c:	00000011 	.word	0x00000011
	...
Disassembly of section .text.Keyboard_Zer_Licznikow:

00000000 <Keyboard_Zer_Licznikow>:
Keyboard_Zer_Licznikow():
C:\tien\PROJEKTY\procesory\STM\T108_V100a\sources/gui.c:4305
* Input          : None
* Output         : None
* Return         : None
*******************************************************************************/
static void Keyboard_Zer_Licznikow ( void )
{
   0:	b570      	push	{r4, r5, r6, lr}
C:\tien\PROJEKTY\procesory\STM\T108_V100a\sources/gui.c:4306
    if ( Keyboard.Keyboard_Memory != 0 && Keyboard.Keyboard_Flag == 1 )
   2:	4b15      	ldr	r3, [pc, #84]	(58 <Keyboard_Zer_Licznikow+0x58>)
   4:	781c      	ldrb	r4, [r3, #0]
   6:	b314      	cbz	r4, 4e <Keyboard_Zer_Licznikow+0x4e>
   8:	789d      	ldrb	r5, [r3, #2]
   a:	2d01      	cmp	r5, #1
   c:	d11f      	bne.n	4e <Keyboard_Zer_Licznikow+0x4e>
C:\tien\PROJEKTY\procesory\STM\T108_V100a\sources/gui.c:4308
    {
        switch ( Keyboard.Keyboard_Memory )
   e:	2c01      	cmp	r4, #1
  10:	d011      	beq.n	36 <Keyboard_Zer_Licznikow+0x36>
  12:	2c02      	cmp	r4, #2
  14:	d118      	bne.n	48 <Keyboard_Zer_Licznikow+0x48>
C:\tien\PROJEKTY\procesory\STM\T108_V100a\sources/gui.c:4311
        {
            case KEY_ESCAPE:
                    Write_Settings();
  16:	f7ff fffe 	bl	0 <Keyboard_Zer_Licznikow>
C:\tien\PROJEKTY\procesory\STM\T108_V100a\sources/gui.c:4312
                    Variable_Editing_Ptr = NULL;
  1a:	4b10      	ldr	r3, [pc, #64]	(5c <Keyboard_Zer_Licznikow+0x5c>)
  1c:	2200      	movs	r2, #0
  1e:	601a      	str	r2, [r3, #0]
C:\tien\PROJEKTY\procesory\STM\T108_V100a\sources/gui.c:4313
                    Menu_Keys = Menu_Backup_Keys_Set;
  20:	480f      	ldr	r0, [pc, #60]	(60 <Keyboard_Zer_Licznikow+0x60>)
  22:	3203      	adds	r2, #3
  24:	490f      	ldr	r1, [pc, #60]	(64 <Keyboard_Zer_Licznikow+0x64>)
  26:	f7ff fffe 	bl	0 <memcpy>
C:\tien\PROJEKTY\procesory\STM\T108_V100a\sources/gui.c:4314
                    Screen_Number = SUBMENU3;
  2a:	4b0f      	ldr	r3, [pc, #60]	(68 <Keyboard_Zer_Licznikow+0x68>)
  2c:	2208      	movs	r2, #8
  2e:	701a      	strb	r2, [r3, #0]
C:\tien\PROJEKTY\procesory\STM\T108_V100a\sources/gui.c:4315
                    Reload_Screen = TRUE;
  30:	4b0e      	ldr	r3, [pc, #56]	(6c <Keyboard_Zer_Licznikow+0x6c>)
  32:	701d      	strb	r5, [r3, #0]
  34:	e008      	b.n	48 <Keyboard_Zer_Licznikow+0x48>
C:\tien\PROJEKTY\procesory\STM\T108_V100a\sources/gui.c:4319
            break;
            
            case KEY_ENTER:
                   Counters_Variables.Counters_Vars.Service_Counter = 0;
  36:	4b0e      	ldr	r3, [pc, #56]	(70 <Keyboard_Zer_Licznikow+0x70>)
  38:	2200      	movs	r2, #0
  3a:	601a      	str	r2, [r3, #0]
C:\tien\PROJEKTY\procesory\STM\T108_V100a\sources/gui.c:4320
                   Update_Counters();
  3c:	f7ff fffe 	bl	0 <Keyboard_Zer_Licznikow>
C:\tien\PROJEKTY\procesory\STM\T108_V100a\sources/gui.c:4321
                   Screen_Number = CONTROLLER_ON;
  40:	4b09      	ldr	r3, [pc, #36]	(68 <Keyboard_Zer_Licznikow+0x68>)
  42:	701c      	strb	r4, [r3, #0]
C:\tien\PROJEKTY\procesory\STM\T108_V100a\sources/gui.c:4322
                   Reload_Screen = TRUE;
  44:	4b09      	ldr	r3, [pc, #36]	(6c <Keyboard_Zer_Licznikow+0x6c>)
  46:	701c      	strb	r4, [r3, #0]
C:\tien\PROJEKTY\procesory\STM\T108_V100a\sources/gui.c:4328
            break;

            default:
            break;
        }
        Keyboard.Keyboard_Flag = 0;
  48:	4b03      	ldr	r3, [pc, #12]	(58 <Keyboard_Zer_Licznikow+0x58>)
  4a:	2200      	movs	r2, #0
  4c:	709a      	strb	r2, [r3, #2]
C:\tien\PROJEKTY\procesory\STM\T108_V100a\sources/gui.c:4331
    }

    if ( Keyboard.Keyboard_State == 0 )
  4e:	4a02      	ldr	r2, [pc, #8]	(58 <Keyboard_Zer_Licznikow+0x58>)
  50:	7853      	ldrb	r3, [r2, #1]
  52:	b903      	cbnz	r3, 56 <Keyboard_Zer_Licznikow+0x56>
C:\tien\PROJEKTY\procesory\STM\T108_V100a\sources/gui.c:4333
    {
        Keyboard.Keyboard_Memory = 0;
  54:	7013      	strb	r3, [r2, #0]
C:\tien\PROJEKTY\procesory\STM\T108_V100a\sources/gui.c:4335
    }
}
  56:	bd70      	pop	{r4, r5, r6, pc}
	...
  60:	00000011 	.word	0x00000011
	...
Disassembly of section .text.Keyboard_Ust_Blokady:

00000000 <Keyboard_Ust_Blokady>:
Keyboard_Ust_Blokady():
C:\tien\PROJEKTY\procesory\STM\T108_V100a\sources/gui.c:3878
* Input          : None
* Output         : None
* Return         : None
*******************************************************************************/
static void Keyboard_Ust_Blokady ( void )
{
   0:	b570      	push	{r4, r5, r6, lr}
C:\tien\PROJEKTY\procesory\STM\T108_V100a\sources/gui.c:3879
    if ( Keyboard.Keyboard_Memory != 0 && Keyboard.Keyboard_Flag == 1 )
   2:	4a2e      	ldr	r2, [pc, #184]	(bc <Keyboard_Ust_Blokady+0xbc>)
   4:	7813      	ldrb	r3, [r2, #0]
   6:	2b00      	cmp	r3, #0
   8:	d053      	beq.n	b2 <Keyboard_Ust_Blokady+0xb2>
   a:	7896      	ldrb	r6, [r2, #2]
   c:	2e01      	cmp	r6, #1
   e:	d150      	bne.n	b2 <Keyboard_Ust_Blokady+0xb2>
C:\tien\PROJEKTY\procesory\STM\T108_V100a\sources/gui.c:3881
    {
        switch ( Keyboard.Keyboard_Memory )
  10:	2b08      	cmp	r3, #8
  12:	d03d      	beq.n	90 <Keyboard_Ust_Blokady+0x90>
  14:	2b20      	cmp	r3, #32
  16:	d02d      	beq.n	74 <Keyboard_Ust_Blokady+0x74>
  18:	2b02      	cmp	r3, #2
  1a:	d145      	bne.n	a8 <Keyboard_Ust_Blokady+0xa8>
C:\tien\PROJEKTY\procesory\STM\T108_V100a\sources/gui.c:3884
        {
            case KEY_ESCAPE:
                    Lock_Date_Now_Tmp = Date_2_Days ( Date.Date_Vars.Year, Date.Date_Vars.Month, Date.Date_Vars.Day );
  1c:	4b28      	ldr	r3, [pc, #160]	(c0 <Keyboard_Ust_Blokady+0xc0>)
  1e:	4c29      	ldr	r4, [pc, #164]	(c4 <Keyboard_Ust_Blokady+0xc4>)
  20:	7919      	ldrb	r1, [r3, #4]
  22:	78da      	ldrb	r2, [r3, #3]
  24:	8818      	ldrh	r0, [r3, #0]
  26:	f7ff fffe 	bl	0 <Date_2_Days>
C:\tien\PROJEKTY\procesory\STM\T108_V100a\sources/gui.c:3885
                    Lock_Date_Set_Tmp = Date_2_Days ( Service_Variables_Set.Serv_Vars.Blokada_rok, Service_Variables_Set.Serv_Vars.Blokada_miesiac, Service_Variables_Set.Serv_Vars.Blokada_dzien );
  2a:	4d27      	ldr	r5, [pc, #156]	(c8 <Keyboard_Ust_Blokady+0xc8>)
C:\tien\PROJEKTY\procesory\STM\T108_V100a\sources/gui.c:3884
    if ( Keyboard.Keyboard_Memory != 0 && Keyboard.Keyboard_Flag == 1 )
    {
        switch ( Keyboard.Keyboard_Memory )
        {
            case KEY_ESCAPE:
                    Lock_Date_Now_Tmp = Date_2_Days ( Date.Date_Vars.Year, Date.Date_Vars.Month, Date.Date_Vars.Day );
  2c:	62a0      	str	r0, [r4, #40]
C:\tien\PROJEKTY\procesory\STM\T108_V100a\sources/gui.c:3885
                    Lock_Date_Set_Tmp = Date_2_Days ( Service_Variables_Set.Serv_Vars.Blokada_rok, Service_Variables_Set.Serv_Vars.Blokada_miesiac, Service_Variables_Set.Serv_Vars.Blokada_dzien );
  2e:	7b2a      	ldrb	r2, [r5, #12]
  30:	89e8      	ldrh	r0, [r5, #14]
  32:	7b69      	ldrb	r1, [r5, #13]
  34:	f7ff fffe 	bl	0 <Date_2_Days>
C:\tien\PROJEKTY\procesory\STM\T108_V100a\sources/gui.c:3886
                    Lock_Interval_Tmp = Lock_Date_Set_Tmp - Lock_Date_Now_Tmp;; 
  38:	6aa3      	ldr	r3, [r4, #40]
C:\tien\PROJEKTY\procesory\STM\T108_V100a\sources/gui.c:3885
    {
        switch ( Keyboard.Keyboard_Memory )
        {
            case KEY_ESCAPE:
                    Lock_Date_Now_Tmp = Date_2_Days ( Date.Date_Vars.Year, Date.Date_Vars.Month, Date.Date_Vars.Day );
                    Lock_Date_Set_Tmp = Date_2_Days ( Service_Variables_Set.Serv_Vars.Blokada_rok, Service_Variables_Set.Serv_Vars.Blokada_miesiac, Service_Variables_Set.Serv_Vars.Blokada_dzien );
  3a:	62e0      	str	r0, [r4, #44]
C:\tien\PROJEKTY\procesory\STM\T108_V100a\sources/gui.c:3886
                    Lock_Interval_Tmp = Lock_Date_Set_Tmp - Lock_Date_Now_Tmp;; 
  3c:	1ac2      	subs	r2, r0, r3
C:\tien\PROJEKTY\procesory\STM\T108_V100a\sources/gui.c:3888

                    if ( Lock_Date_Set_Tmp < Lock_Date_Now_Tmp )
  3e:	4298      	cmp	r0, r3
C:\tien\PROJEKTY\procesory\STM\T108_V100a\sources/gui.c:3886
        switch ( Keyboard.Keyboard_Memory )
        {
            case KEY_ESCAPE:
                    Lock_Date_Now_Tmp = Date_2_Days ( Date.Date_Vars.Year, Date.Date_Vars.Month, Date.Date_Vars.Day );
                    Lock_Date_Set_Tmp = Date_2_Days ( Service_Variables_Set.Serv_Vars.Blokada_rok, Service_Variables_Set.Serv_Vars.Blokada_miesiac, Service_Variables_Set.Serv_Vars.Blokada_dzien );
                    Lock_Interval_Tmp = Lock_Date_Set_Tmp - Lock_Date_Now_Tmp;; 
  40:	6322      	str	r2, [r4, #48]
C:\tien\PROJEKTY\procesory\STM\T108_V100a\sources/gui.c:3888

                    if ( Lock_Date_Set_Tmp < Lock_Date_Now_Tmp )
  42:	d203      	bcs.n	4c <Keyboard_Ust_Blokady+0x4c>
C:\tien\PROJEKTY\procesory\STM\T108_V100a\sources/gui.c:3890
                    {
                        Service_Variables_Set.Serv_Vars.Marker_Blokady = STER_ODBLOKOWANY;
  44:	2300      	movs	r3, #0
  46:	746b      	strb	r3, [r5, #17]
C:\tien\PROJEKTY\procesory\STM\T108_V100a\sources/gui.c:3891
                        Service_Variables_Set.Serv_Vars.Blokada = 1;
  48:	722e      	strb	r6, [r5, #8]
  4a:	e005      	b.n	58 <Keyboard_Ust_Blokady+0x58>
C:\tien\PROJEKTY\procesory\STM\T108_V100a\sources/gui.c:3895
                    }
                    else
                    {
                        Service_Variables_Set.Serv_Vars.Lock_Counter = 0;
  4c:	f04f 0300 	mov.w	r3, #0	; 0x0
  50:	82eb      	strh	r3, [r5, #22]
C:\tien\PROJEKTY\procesory\STM\T108_V100a\sources/gui.c:3897
                        Service_Variables_Set.Serv_Vars.Lock_Interval = Lock_Interval_Tmp;
                        Service_Variables_Set.Serv_Vars.Marker_Blokady = STER_BLOKOWANY;
  52:	2303      	movs	r3, #3
C:\tien\PROJEKTY\procesory\STM\T108_V100a\sources/gui.c:3896
                        Service_Variables_Set.Serv_Vars.Blokada = 1;
                    }
                    else
                    {
                        Service_Variables_Set.Serv_Vars.Lock_Counter = 0;
                        Service_Variables_Set.Serv_Vars.Lock_Interval = Lock_Interval_Tmp;
  54:	82aa      	strh	r2, [r5, #20]
C:\tien\PROJEKTY\procesory\STM\T108_V100a\sources/gui.c:3897
                        Service_Variables_Set.Serv_Vars.Marker_Blokady = STER_BLOKOWANY;
  56:	746b      	strb	r3, [r5, #17]
C:\tien\PROJEKTY\procesory\STM\T108_V100a\sources/gui.c:3900
                    }
                
                    Write_Settings();
  58:	f7ff fffe 	bl	0 <Keyboard_Ust_Blokady>
C:\tien\PROJEKTY\procesory\STM\T108_V100a\sources/gui.c:3901
                    Variable_Editing_Ptr = NULL;
  5c:	4b1b      	ldr	r3, [pc, #108]	(cc <Keyboard_Ust_Blokady+0xcc>)
  5e:	2200      	movs	r2, #0
  60:	601a      	str	r2, [r3, #0]
C:\tien\PROJEKTY\procesory\STM\T108_V100a\sources/gui.c:3902
                    Menu_Keys = Menu_Backup_Keys_Set;
  62:	481b      	ldr	r0, [pc, #108]	(d0 <Keyboard_Ust_Blokady+0xd0>)
  64:	3203      	adds	r2, #3
  66:	491b      	ldr	r1, [pc, #108]	(d4 <Keyboard_Ust_Blokady+0xd4>)
  68:	f7ff fffe 	bl	0 <memcpy>
C:\tien\PROJEKTY\procesory\STM\T108_V100a\sources/gui.c:3903
                    Screen_Number = SUBMENU3;
  6c:	4b1a      	ldr	r3, [pc, #104]	(d8 <Keyboard_Ust_Blokady+0xd8>)
  6e:	2208      	movs	r2, #8
  70:	701a      	strb	r2, [r3, #0]
  72:	e015      	b.n	a0 <Keyboard_Ust_Blokady+0xa0>
C:\tien\PROJEKTY\procesory\STM\T108_V100a\sources/gui.c:3908
                    Reload_Screen = TRUE;
            break;

            case KEY_DOWN:
              if ( ++Count_Add == Variable_Editing_Ptr->Var_Param_Ptr->Variable_Digits_Count )
  74:	4919      	ldr	r1, [pc, #100]	(dc <Keyboard_Ust_Blokady+0xdc>)
  76:	4b15      	ldr	r3, [pc, #84]	(cc <Keyboard_Ust_Blokady+0xcc>)
  78:	780a      	ldrb	r2, [r1, #0]
  7a:	681b      	ldr	r3, [r3, #0]
  7c:	3201      	adds	r2, #1
  7e:	b2d2      	uxtb	r2, r2
  80:	700a      	strb	r2, [r1, #0]
  82:	68db      	ldr	r3, [r3, #12]
  84:	789b      	ldrb	r3, [r3, #2]
  86:	4293      	cmp	r3, r2
  88:	d10a      	bne.n	a0 <Keyboard_Ust_Blokady+0xa0>
C:\tien\PROJEKTY\procesory\STM\T108_V100a\sources/gui.c:3910
              {
                  Count_Add = 0;
  8a:	2300      	movs	r3, #0
  8c:	700b      	strb	r3, [r1, #0]
  8e:	e007      	b.n	a0 <Keyboard_Ust_Blokady+0xa0>
C:\tien\PROJEKTY\procesory\STM\T108_V100a\sources/gui.c:3916
              }
              Reload_Screen = TRUE;  
            break;
          
            case KEY_UP:
              Count_Add = 0;
  90:	4b12      	ldr	r3, [pc, #72]	(dc <Keyboard_Ust_Blokady+0xdc>)
  92:	2200      	movs	r2, #0
  94:	701a      	strb	r2, [r3, #0]
C:\tien\PROJEKTY\procesory\STM\T108_V100a\sources/gui.c:3917
              if ( Next_Editable_Variable() == FALSE )
  96:	f7ff fffe 	bl	0 <Keyboard_Ust_Blokady>
  9a:	b908      	cbnz	r0, 6 <Keyboard_Ust_Blokady+0x6>
C:\tien\PROJEKTY\procesory\STM\T108_V100a\sources/gui.c:3919
              {
                  First_Editable_Variable();
  9c:	f7ff fffe 	bl	0 <Keyboard_Ust_Blokady>
C:\tien\PROJEKTY\procesory\STM\T108_V100a\sources/gui.c:3921
              }
              Reload_Screen = TRUE;
  a0:	4b0f      	ldr	r3, [pc, #60]	(e0 <Keyboard_Ust_Blokady+0xe0>)
  a2:	2201      	movs	r2, #1
  a4:	701a      	strb	r2, [r3, #0]
  a6:	e001      	b.n	ac <Keyboard_Ust_Blokady+0xac>
C:\tien\PROJEKTY\procesory\STM\T108_V100a\sources/gui.c:3925
            break;

            default:
                Keyboard_Edit_Variable();
  a8:	f7ff fffe 	bl	0 <Keyboard_Ust_Blokady>
C:\tien\PROJEKTY\procesory\STM\T108_V100a\sources/gui.c:3928
            break;
        }
        Keyboard.Keyboard_Flag = 0;
  ac:	4b03      	ldr	r3, [pc, #12]	(bc <Keyboard_Ust_Blokady+0xbc>)
  ae:	2200      	movs	r2, #0
  b0:	709a      	strb	r2, [r3, #2]
C:\tien\PROJEKTY\procesory\STM\T108_V100a\sources/gui.c:3931
    }

    if ( Keyboard.Keyboard_State == 0 )
  b2:	4a02      	ldr	r2, [pc, #8]	(bc <Keyboard_Ust_Blokady+0xbc>)
  b4:	7853      	ldrb	r3, [r2, #1]
  b6:	b903      	cbnz	r3, ba <Keyboard_Ust_Blokady+0xba>
C:\tien\PROJEKTY\procesory\STM\T108_V100a\sources/gui.c:3933
    {
        Keyboard.Keyboard_Memory = 0;
  b8:	7013      	strb	r3, [r2, #0]
C:\tien\PROJEKTY\procesory\STM\T108_V100a\sources/gui.c:3935
    }
}
  ba:	bd70      	pop	{r4, r5, r6, pc}
	...
  d0:	00000011 	.word	0x00000011
	...
Disassembly of section .text.Keyboard_Zmiana_Hasel:

00000000 <Keyboard_Zmiana_Hasel>:
Keyboard_Zmiana_Hasel():
C:\tien\PROJEKTY\procesory\STM\T108_V100a\sources/gui.c:3822
* Input          : None
* Output         : None
* Return         : None
*******************************************************************************/
static void Keyboard_Zmiana_Hasel ( void )
{
   0:	b510      	push	{r4, lr}
C:\tien\PROJEKTY\procesory\STM\T108_V100a\sources/gui.c:3823
    if ( Keyboard.Keyboard_Memory != 0 && Keyboard.Keyboard_Flag == 1 )
   2:	4a23      	ldr	r2, [pc, #140]	(90 <Keyboard_Zmiana_Hasel+0x90>)
   4:	7813      	ldrb	r3, [r2, #0]
   6:	2b00      	cmp	r3, #0
   8:	d03c      	beq.n	84 <Keyboard_Zmiana_Hasel+0x84>
   a:	7894      	ldrb	r4, [r2, #2]
   c:	2c01      	cmp	r4, #1
   e:	d139      	bne.n	84 <Keyboard_Zmiana_Hasel+0x84>
C:\tien\PROJEKTY\procesory\STM\T108_V100a\sources/gui.c:3825
    {
        switch ( Keyboard.Keyboard_Memory )
  10:	2b08      	cmp	r3, #8
  12:	d026      	beq.n	62 <Keyboard_Zmiana_Hasel+0x62>
  14:	2b20      	cmp	r3, #32
  16:	d016      	beq.n	46 <Keyboard_Zmiana_Hasel+0x46>
  18:	2b02      	cmp	r3, #2
  1a:	d12e      	bne.n	7a <Keyboard_Zmiana_Hasel+0x7a>
C:\tien\PROJEKTY\procesory\STM\T108_V100a\sources/gui.c:3828
        {
            case KEY_ESCAPE:
                    Write_Settings();
  1c:	f7ff fffe 	bl	0 <Keyboard_Zmiana_Hasel>
C:\tien\PROJEKTY\procesory\STM\T108_V100a\sources/gui.c:3830
            
                    Service_Variables.Serv_Vars.Blok_Dostep_Pozostalo = Service_Variables.Serv_Vars.Ilosc_Prob_Dostepu;
  20:	4b1c      	ldr	r3, [pc, #112]	(94 <Keyboard_Zmiana_Hasel+0x94>)
C:\tien\PROJEKTY\procesory\STM\T108_V100a\sources/gui.c:3834
                    Service_Variables.Serv_Vars.Blok_Prog_Pozostalo = Service_Variables.Serv_Vars.Ilosc_Prob_Blokady;
            
                    Variable_Editing_Ptr = NULL;
                    Menu_Keys = Menu_Backup_Keys_Set;
  22:	481d      	ldr	r0, [pc, #116]	(98 <Keyboard_Zmiana_Hasel+0x98>)
C:\tien\PROJEKTY\procesory\STM\T108_V100a\sources/gui.c:3830
        switch ( Keyboard.Keyboard_Memory )
        {
            case KEY_ESCAPE:
                    Write_Settings();
            
                    Service_Variables.Serv_Vars.Blok_Dostep_Pozostalo = Service_Variables.Serv_Vars.Ilosc_Prob_Dostepu;
  24:	7a5a      	ldrb	r2, [r3, #9]
C:\tien\PROJEKTY\procesory\STM\T108_V100a\sources/gui.c:3834
                    Service_Variables.Serv_Vars.Blok_Prog_Pozostalo = Service_Variables.Serv_Vars.Ilosc_Prob_Blokady;
            
                    Variable_Editing_Ptr = NULL;
                    Menu_Keys = Menu_Backup_Keys_Set;
  26:	491d      	ldr	r1, [pc, #116]	(9c <Keyboard_Zmiana_Hasel+0x9c>)
C:\tien\PROJEKTY\procesory\STM\T108_V100a\sources/gui.c:3830
        switch ( Keyboard.Keyboard_Memory )
        {
            case KEY_ESCAPE:
                    Write_Settings();
            
                    Service_Variables.Serv_Vars.Blok_Dostep_Pozostalo = Service_Variables.Serv_Vars.Ilosc_Prob_Dostepu;
  28:	749a      	strb	r2, [r3, #18]
C:\tien\PROJEKTY\procesory\STM\T108_V100a\sources/gui.c:3831
                    Service_Variables.Serv_Vars.Blok_Prog_Pozostalo = Service_Variables.Serv_Vars.Ilosc_Prob_Blokady;
  2a:	7a9a      	ldrb	r2, [r3, #10]
  2c:	74da      	strb	r2, [r3, #19]
C:\tien\PROJEKTY\procesory\STM\T108_V100a\sources/gui.c:3833
            
                    Variable_Editing_Ptr = NULL;
  2e:	4b1c      	ldr	r3, [pc, #112]	(a0 <Keyboard_Zmiana_Hasel+0xa0>)
  30:	2200      	movs	r2, #0
  32:	601a      	str	r2, [r3, #0]
C:\tien\PROJEKTY\procesory\STM\T108_V100a\sources/gui.c:3834
                    Menu_Keys = Menu_Backup_Keys_Set;
  34:	3203      	adds	r2, #3
  36:	f7ff fffe 	bl	0 <memcpy>
C:\tien\PROJEKTY\procesory\STM\T108_V100a\sources/gui.c:3835
                    Screen_Number = SUBMENU3;
  3a:	4b1a      	ldr	r3, [pc, #104]	(a4 <Keyboard_Zmiana_Hasel+0xa4>)
  3c:	2208      	movs	r2, #8
  3e:	701a      	strb	r2, [r3, #0]
C:\tien\PROJEKTY\procesory\STM\T108_V100a\sources/gui.c:3836
                    Reload_Screen = TRUE;
  40:	4b19      	ldr	r3, [pc, #100]	(a8 <Keyboard_Zmiana_Hasel+0xa8>)
  42:	701c      	strb	r4, [r3, #0]
  44:	e01b      	b.n	7e <Keyboard_Zmiana_Hasel+0x7e>
C:\tien\PROJEKTY\procesory\STM\T108_V100a\sources/gui.c:3840
            break;

            case KEY_DOWN:
              if ( ++Count_Add == Variable_Editing_Ptr->Var_Param_Ptr->Variable_Digits_Count )
  46:	4919      	ldr	r1, [pc, #100]	(ac <Keyboard_Zmiana_Hasel+0xac>)
  48:	4b15      	ldr	r3, [pc, #84]	(a0 <Keyboard_Zmiana_Hasel+0xa0>)
  4a:	780a      	ldrb	r2, [r1, #0]
  4c:	681b      	ldr	r3, [r3, #0]
  4e:	3201      	adds	r2, #1
  50:	b2d2      	uxtb	r2, r2
  52:	700a      	strb	r2, [r1, #0]
  54:	68db      	ldr	r3, [r3, #12]
  56:	789b      	ldrb	r3, [r3, #2]
  58:	4293      	cmp	r3, r2
  5a:	d10a      	bne.n	72 <Keyboard_Zmiana_Hasel+0x72>
C:\tien\PROJEKTY\procesory\STM\T108_V100a\sources/gui.c:3842
              {
                  Count_Add = 0;
  5c:	2300      	movs	r3, #0
  5e:	700b      	strb	r3, [r1, #0]
  60:	e007      	b.n	72 <Keyboard_Zmiana_Hasel+0x72>
C:\tien\PROJEKTY\procesory\STM\T108_V100a\sources/gui.c:3848
              }
              Reload_Screen = TRUE;  
            break;
          
            case KEY_UP:
              Count_Add = 0;
  62:	4b12      	ldr	r3, [pc, #72]	(ac <Keyboard_Zmiana_Hasel+0xac>)
  64:	2200      	movs	r2, #0
  66:	701a      	strb	r2, [r3, #0]
C:\tien\PROJEKTY\procesory\STM\T108_V100a\sources/gui.c:3849
              if ( Next_Editable_Variable() == FALSE )
  68:	f7ff fffe 	bl	0 <Keyboard_Zmiana_Hasel>
  6c:	b908      	cbnz	r0, 6 <Keyboard_Zmiana_Hasel+0x6>
C:\tien\PROJEKTY\procesory\STM\T108_V100a\sources/gui.c:3851
              {
                  First_Editable_Variable();
  6e:	f7ff fffe 	bl	0 <Keyboard_Zmiana_Hasel>
C:\tien\PROJEKTY\procesory\STM\T108_V100a\sources/gui.c:3853
              }
              Reload_Screen = TRUE;
  72:	4b0d      	ldr	r3, [pc, #52]	(a8 <Keyboard_Zmiana_Hasel+0xa8>)
  74:	2201      	movs	r2, #1
  76:	701a      	strb	r2, [r3, #0]
  78:	e001      	b.n	7e <Keyboard_Zmiana_Hasel+0x7e>
C:\tien\PROJEKTY\procesory\STM\T108_V100a\sources/gui.c:3857
            break;

            default:
                Keyboard_Edit_Variable();
  7a:	f7ff fffe 	bl	0 <Keyboard_Zmiana_Hasel>
C:\tien\PROJEKTY\procesory\STM\T108_V100a\sources/gui.c:3860
            break;
        }
        Keyboard.Keyboard_Flag = 0;
  7e:	4b04      	ldr	r3, [pc, #16]	(90 <Keyboard_Zmiana_Hasel+0x90>)
  80:	2200      	movs	r2, #0
  82:	709a      	strb	r2, [r3, #2]
C:\tien\PROJEKTY\procesory\STM\T108_V100a\sources/gui.c:3863
    }

    if ( Keyboard.Keyboard_State == 0 )
  84:	4a02      	ldr	r2, [pc, #8]	(90 <Keyboard_Zmiana_Hasel+0x90>)
  86:	7853      	ldrb	r3, [r2, #1]
  88:	b903      	cbnz	r3, 8c <Keyboard_Zmiana_Hasel+0x8c>
C:\tien\PROJEKTY\procesory\STM\T108_V100a\sources/gui.c:3865
    {
        Keyboard.Keyboard_Memory = 0;
  8a:	7013      	strb	r3, [r2, #0]
C:\tien\PROJEKTY\procesory\STM\T108_V100a\sources/gui.c:3867
    }
}
  8c:	bd10      	pop	{r4, pc}
  8e:	46c0      	nop			(mov r8, r8)
	...
  98:	00000011 	.word	0x00000011
	...
Disassembly of section .text.Keyboard_Jezyk:

00000000 <Keyboard_Jezyk>:
Keyboard_Jezyk():
C:\tien\PROJEKTY\procesory\STM\T108_V100a\sources/gui.c:3187
* Input          : None
* Output         : None
* Return         : None
*******************************************************************************/
static void Keyboard_Jezyk ( void )
{
   0:	b510      	push	{r4, lr}
C:\tien\PROJEKTY\procesory\STM\T108_V100a\sources/gui.c:3188
    if ( Keyboard.Keyboard_Memory != 0 && Keyboard.Keyboard_Flag == 1 )
   2:	4a20      	ldr	r2, [pc, #128]	(84 <Keyboard_Jezyk+0x84>)
   4:	7813      	ldrb	r3, [r2, #0]
   6:	2b00      	cmp	r3, #0
   8:	d037      	beq.n	7a <Keyboard_Jezyk+0x7a>
   a:	7894      	ldrb	r4, [r2, #2]
   c:	2c01      	cmp	r4, #1
   e:	d134      	bne.n	7a <Keyboard_Jezyk+0x7a>
C:\tien\PROJEKTY\procesory\STM\T108_V100a\sources/gui.c:3190
    {
        switch ( Keyboard.Keyboard_Memory )
  10:	2b08      	cmp	r3, #8
  12:	d021      	beq.n	58 <Keyboard_Jezyk+0x58>
  14:	2b20      	cmp	r3, #32
  16:	d011      	beq.n	3c <Keyboard_Jezyk+0x3c>
  18:	2b02      	cmp	r3, #2
  1a:	d129      	bne.n	70 <Keyboard_Jezyk+0x70>
C:\tien\PROJEKTY\procesory\STM\T108_V100a\sources/gui.c:3193
        {
            case KEY_ESCAPE:
                    Write_Settings();
  1c:	f7ff fffe 	bl	0 <Keyboard_Jezyk>
C:\tien\PROJEKTY\procesory\STM\T108_V100a\sources/gui.c:3194
                    Variable_Editing_Ptr = NULL;
  20:	4b19      	ldr	r3, [pc, #100]	(88 <Keyboard_Jezyk+0x88>)
  22:	2200      	movs	r2, #0
  24:	601a      	str	r2, [r3, #0]
C:\tien\PROJEKTY\procesory\STM\T108_V100a\sources/gui.c:3195
                    Menu_Keys = Menu_Backup_Keys_Set;
  26:	4819      	ldr	r0, [pc, #100]	(8c <Keyboard_Jezyk+0x8c>)
  28:	3203      	adds	r2, #3
  2a:	4919      	ldr	r1, [pc, #100]	(90 <Keyboard_Jezyk+0x90>)
  2c:	f7ff fffe 	bl	0 <memcpy>
C:\tien\PROJEKTY\procesory\STM\T108_V100a\sources/gui.c:3196
                    Screen_Number = SUBMENU3;
  30:	4b18      	ldr	r3, [pc, #96]	(94 <Keyboard_Jezyk+0x94>)
  32:	2208      	movs	r2, #8
  34:	701a      	strb	r2, [r3, #0]
C:\tien\PROJEKTY\procesory\STM\T108_V100a\sources/gui.c:3197
                    Reload_Screen = TRUE;
  36:	4b18      	ldr	r3, [pc, #96]	(98 <Keyboard_Jezyk+0x98>)
  38:	701c      	strb	r4, [r3, #0]
  3a:	e01b      	b.n	74 <Keyboard_Jezyk+0x74>
C:\tien\PROJEKTY\procesory\STM\T108_V100a\sources/gui.c:3201
            break;

            case KEY_DOWN:
              if ( ++Count_Add == Variable_Editing_Ptr->Var_Param_Ptr->Variable_Digits_Count )
  3c:	4917      	ldr	r1, [pc, #92]	(9c <Keyboard_Jezyk+0x9c>)
  3e:	4b12      	ldr	r3, [pc, #72]	(88 <Keyboard_Jezyk+0x88>)
  40:	780a      	ldrb	r2, [r1, #0]
  42:	681b      	ldr	r3, [r3, #0]
  44:	3201      	adds	r2, #1
  46:	b2d2      	uxtb	r2, r2
  48:	700a      	strb	r2, [r1, #0]
  4a:	68db      	ldr	r3, [r3, #12]
  4c:	789b      	ldrb	r3, [r3, #2]
  4e:	4293      	cmp	r3, r2
  50:	d10a      	bne.n	68 <Keyboard_Jezyk+0x68>
C:\tien\PROJEKTY\procesory\STM\T108_V100a\sources/gui.c:3203
              {
                  Count_Add = 0;
  52:	2300      	movs	r3, #0
  54:	700b      	strb	r3, [r1, #0]
  56:	e007      	b.n	68 <Keyboard_Jezyk+0x68>
C:\tien\PROJEKTY\procesory\STM\T108_V100a\sources/gui.c:3209
              }
              Reload_Screen = TRUE;  
            break;
          
            case KEY_UP:
              Count_Add = 0;
  58:	4b10      	ldr	r3, [pc, #64]	(9c <Keyboard_Jezyk+0x9c>)
  5a:	2200      	movs	r2, #0
  5c:	701a      	strb	r2, [r3, #0]
C:\tien\PROJEKTY\procesory\STM\T108_V100a\sources/gui.c:3210
              if ( Next_Editable_Variable() == FALSE )
  5e:	f7ff fffe 	bl	0 <Keyboard_Jezyk>
  62:	b908      	cbnz	r0, 6 <Keyboard_Jezyk+0x6>
C:\tien\PROJEKTY\procesory\STM\T108_V100a\sources/gui.c:3212
              {
                  First_Editable_Variable();
  64:	f7ff fffe 	bl	0 <Keyboard_Jezyk>
C:\tien\PROJEKTY\procesory\STM\T108_V100a\sources/gui.c:3214
              }
              Reload_Screen = TRUE;
  68:	4b0b      	ldr	r3, [pc, #44]	(98 <Keyboard_Jezyk+0x98>)
  6a:	2201      	movs	r2, #1
  6c:	701a      	strb	r2, [r3, #0]
  6e:	e001      	b.n	74 <Keyboard_Jezyk+0x74>
C:\tien\PROJEKTY\procesory\STM\T108_V100a\sources/gui.c:3218
            break;

            default:
                Keyboard_Edit_Variable();
  70:	f7ff fffe 	bl	0 <Keyboard_Jezyk>
C:\tien\PROJEKTY\procesory\STM\T108_V100a\sources/gui.c:3221
            break;
        }
        Keyboard.Keyboard_Flag = 0;
  74:	4b03      	ldr	r3, [pc, #12]	(84 <Keyboard_Jezyk+0x84>)
  76:	2200      	movs	r2, #0
  78:	709a      	strb	r2, [r3, #2]
C:\tien\PROJEKTY\procesory\STM\T108_V100a\sources/gui.c:3224
    }

    if ( Keyboard.Keyboard_State == 0 )
  7a:	4a02      	ldr	r2, [pc, #8]	(84 <Keyboard_Jezyk+0x84>)
  7c:	7853      	ldrb	r3, [r2, #1]
  7e:	b903      	cbnz	r3, 82 <Keyboard_Jezyk+0x82>
C:\tien\PROJEKTY\procesory\STM\T108_V100a\sources/gui.c:3226
    {
        Keyboard.Keyboard_Memory = 0;
  80:	7013      	strb	r3, [r2, #0]
C:\tien\PROJEKTY\procesory\STM\T108_V100a\sources/gui.c:3228
    }
}
  82:	bd10      	pop	{r4, pc}
	...
  8c:	00000011 	.word	0x00000011
	...
Disassembly of section .text.Keyboard_Czujniki2:

00000000 <Keyboard_Czujniki2>:
Keyboard_Czujniki2():
C:\tien\PROJEKTY\procesory\STM\T108_V100a\sources/gui.c:3574
* Input          : None
* Output         : None
* Return         : None
*******************************************************************************/
static void Keyboard_Czujniki2 ( void )
{
   0:	b510      	push	{r4, lr}
C:\tien\PROJEKTY\procesory\STM\T108_V100a\sources/gui.c:3575
    if ( Keyboard.Keyboard_Memory != 0 && Keyboard.Keyboard_Flag == 1 )
   2:	4a2e      	ldr	r2, [pc, #184]	(bc <Keyboard_Czujniki2+0xbc>)
   4:	7813      	ldrb	r3, [r2, #0]
   6:	2b00      	cmp	r3, #0
   8:	d053      	beq.n	b2 <Keyboard_Czujniki2+0xb2>
   a:	7894      	ldrb	r4, [r2, #2]
   c:	2c01      	cmp	r4, #1
   e:	d150      	bne.n	b2 <Keyboard_Czujniki2+0xb2>
C:\tien\PROJEKTY\procesory\STM\T108_V100a\sources/gui.c:3577
    {
        switch ( Keyboard.Keyboard_Memory )
  10:	2b02      	cmp	r3, #2
  12:	d008      	beq.n	26 <Keyboard_Czujniki2+0x26>
  14:	d802      	bhi.n	1c <Keyboard_Czujniki2+0x1c>
  16:	2b01      	cmp	r3, #1
  18:	d146      	bne.n	a8 <Keyboard_Czujniki2+0xa8>
  1a:	e020      	b.n	5e <Keyboard_Czujniki2+0x5e>
  1c:	2b08      	cmp	r3, #8
  1e:	d03b      	beq.n	98 <Keyboard_Czujniki2+0x98>
  20:	2b20      	cmp	r3, #32
  22:	d141      	bne.n	a8 <Keyboard_Czujniki2+0xa8>
  24:	e02a      	b.n	7c <Keyboard_Czujniki2+0x7c>
C:\tien\PROJEKTY\procesory\STM\T108_V100a\sources/gui.c:3580
        {
            case KEY_ESCAPE:
                    Write_Settings();
  26:	f7ff fffe 	bl	0 <Keyboard_Czujniki2>
C:\tien\PROJEKTY\procesory\STM\T108_V100a\sources/gui.c:3581
                    Variable_Editing_Ptr = NULL;
  2a:	4b25      	ldr	r3, [pc, #148]	(c0 <Keyboard_Czujniki2+0xc0>)
  2c:	2200      	movs	r2, #0
  2e:	601a      	str	r2, [r3, #0]
C:\tien\PROJEKTY\procesory\STM\T108_V100a\sources/gui.c:3582
                    Menu_Keys = Menu_Backup_Keys_Sensors;
  30:	4824      	ldr	r0, [pc, #144]	(c4 <Keyboard_Czujniki2+0xc4>)
  32:	3203      	adds	r2, #3
  34:	4924      	ldr	r1, [pc, #144]	(c8 <Keyboard_Czujniki2+0xc8>)
  36:	f7ff fffe 	bl	0 <memcpy>
C:\tien\PROJEKTY\procesory\STM\T108_V100a\sources/gui.c:3583
                    Screen_Number = Screen_Before_Password;;
  3a:	4b24      	ldr	r3, [pc, #144]	(cc <Keyboard_Czujniki2+0xcc>)
  3c:	781a      	ldrb	r2, [r3, #0]
  3e:	4b24      	ldr	r3, [pc, #144]	(d0 <Keyboard_Czujniki2+0xd0>)
  40:	701a      	strb	r2, [r3, #0]
C:\tien\PROJEKTY\procesory\STM\T108_V100a\sources/gui.c:3584
                    Reload_Screen = TRUE;
  42:	4b24      	ldr	r3, [pc, #144]	(d4 <Keyboard_Czujniki2+0xd4>)
  44:	4a24      	ldr	r2, [pc, #144]	(d8 <Keyboard_Czujniki2+0xd8>)
  46:	701c      	strb	r4, [r3, #0]
C:\tien\PROJEKTY\procesory\STM\T108_V100a\sources/gui.c:3586
            
                    if ( Controlling_Variables.Ctrl_Vars.Motor_Type == 0 ) //Freqw_Inverter
  48:	4b24      	ldr	r3, [pc, #144]	(dc <Keyboard_Czujniki2+0xdc>)
  4a:	f893 302e 	ldrb.w	r3, [r3, #46]
  4e:	b90b      	cbnz	r3, 54 <Keyboard_Czujniki2+0x54>
C:\tien\PROJEKTY\procesory\STM\T108_V100a\sources/gui.c:3587
                        Machine_State = INVERTER_PROG;
  50:	3329      	adds	r3, #41
  52:	e000      	b.n	56 <Keyboard_Czujniki2+0x56>
C:\tien\PROJEKTY\procesory\STM\T108_V100a\sources/gui.c:3589
                    else // 24V sliding gate
                        Machine_State = WG_POWER_ON;
  54:	2311      	movs	r3, #17
  56:	7013      	strb	r3, [r2, #0]
C:\tien\PROJEKTY\procesory\STM\T108_V100a\sources/gui.c:3591
                    
                     WG_TIMER_FLAG = FALSE;
  58:	2200      	movs	r2, #0
  5a:	4b21      	ldr	r3, [pc, #132]	(e0 <Keyboard_Czujniki2+0xe0>)
  5c:	e00c      	b.n	78 <Keyboard_Czujniki2+0x78>
C:\tien\PROJEKTY\procesory\STM\T108_V100a\sources/gui.c:3595
            break;

            case KEY_ENTER:
                   if ( ++Screen_Number > CZUJNIKI1 )
  5e:	4a1c      	ldr	r2, [pc, #112]	(d0 <Keyboard_Czujniki2+0xd0>)
  60:	7813      	ldrb	r3, [r2, #0]
  62:	3301      	adds	r3, #1
  64:	b2db      	uxtb	r3, r3
  66:	2b21      	cmp	r3, #33
  68:	7013      	strb	r3, [r2, #0]
  6a:	d901      	bls.n	70 <Keyboard_Czujniki2+0x70>
C:\tien\PROJEKTY\procesory\STM\T108_V100a\sources/gui.c:3597
                   {
                       Screen_Number = CZUJNIKI1;
  6c:	2321      	movs	r3, #33
  6e:	7013      	strb	r3, [r2, #0]
C:\tien\PROJEKTY\procesory\STM\T108_V100a\sources/gui.c:3599
                   }
                   First_Editable_Variable();
  70:	f7ff fffe 	bl	0 <Keyboard_Czujniki2>
C:\tien\PROJEKTY\procesory\STM\T108_V100a\sources/gui.c:3600
                   Reload_Screen = TRUE;
  74:	4b17      	ldr	r3, [pc, #92]	(d4 <Keyboard_Czujniki2+0xd4>)
  76:	2201      	movs	r2, #1
  78:	701a      	strb	r2, [r3, #0]
  7a:	e017      	b.n	ac <Keyboard_Czujniki2+0xac>
C:\tien\PROJEKTY\procesory\STM\T108_V100a\sources/gui.c:3604
            break;

            case KEY_DOWN:
              if ( ++Count_Add == Variable_Editing_Ptr->Var_Param_Ptr->Variable_Digits_Count )
  7c:	4919      	ldr	r1, [pc, #100]	(e4 <Keyboard_Czujniki2+0xe4>)
  7e:	4b10      	ldr	r3, [pc, #64]	(c0 <Keyboard_Czujniki2+0xc0>)
  80:	780a      	ldrb	r2, [r1, #0]
  82:	681b      	ldr	r3, [r3, #0]
  84:	3201      	adds	r2, #1
  86:	b2d2      	uxtb	r2, r2
  88:	700a      	strb	r2, [r1, #0]
  8a:	68db      	ldr	r3, [r3, #12]
  8c:	789b      	ldrb	r3, [r3, #2]
  8e:	4293      	cmp	r3, r2
  90:	d1f0      	bne.n	74 <Keyboard_Czujniki2+0x74>
C:\tien\PROJEKTY\procesory\STM\T108_V100a\sources/gui.c:3606
              {
                  Count_Add = 0;
  92:	2300      	movs	r3, #0
  94:	700b      	strb	r3, [r1, #0]
  96:	e7ed      	b.n	74 <Keyboard_Czujniki2+0x74>
C:\tien\PROJEKTY\procesory\STM\T108_V100a\sources/gui.c:3612
              }
              Reload_Screen = TRUE;  
            break;
          
            case KEY_UP:
              Count_Add = 0;
  98:	4b12      	ldr	r3, [pc, #72]	(e4 <Keyboard_Czujniki2+0xe4>)
  9a:	2200      	movs	r2, #0
  9c:	701a      	strb	r2, [r3, #0]
C:\tien\PROJEKTY\procesory\STM\T108_V100a\sources/gui.c:3613
              if ( Next_Editable_Variable() == FALSE )
  9e:	f7ff fffe 	bl	0 <Keyboard_Czujniki2>
  a2:	2800      	cmp	r0, #0
  a4:	d1e6      	bne.n	74 <Keyboard_Czujniki2+0x74>
  a6:	e7e3      	b.n	70 <Keyboard_Czujniki2+0x70>
C:\tien\PROJEKTY\procesory\STM\T108_V100a\sources/gui.c:3621
              }
              Reload_Screen = TRUE;
            break;

            default:
                Keyboard_Edit_Variable();
  a8:	f7ff fffe 	bl	0 <Keyboard_Czujniki2>
C:\tien\PROJEKTY\procesory\STM\T108_V100a\sources/gui.c:3624
            break;
        }
        Keyboard.Keyboard_Flag = 0;
  ac:	4b03      	ldr	r3, [pc, #12]	(bc <Keyboard_Czujniki2+0xbc>)
  ae:	2200      	movs	r2, #0
  b0:	709a      	strb	r2, [r3, #2]
C:\tien\PROJEKTY\procesory\STM\T108_V100a\sources/gui.c:3627
    }

    if ( Keyboard.Keyboard_State == 0 )
  b2:	4a02      	ldr	r2, [pc, #8]	(bc <Keyboard_Czujniki2+0xbc>)
  b4:	7853      	ldrb	r3, [r2, #1]
  b6:	b903      	cbnz	r3, ba <Keyboard_Czujniki2+0xba>
C:\tien\PROJEKTY\procesory\STM\T108_V100a\sources/gui.c:3629
    {
        Keyboard.Keyboard_Memory = 0;
  b8:	7013      	strb	r3, [r2, #0]
C:\tien\PROJEKTY\procesory\STM\T108_V100a\sources/gui.c:3631
    }
}
  ba:	bd10      	pop	{r4, pc}
	...
  c4:	00000011 	.word	0x00000011
	...
Disassembly of section .text.Keyboard_Czujniki1:

00000000 <Keyboard_Czujniki1>:
Keyboard_Czujniki1():
C:\tien\PROJEKTY\procesory\STM\T108_V100a\sources/gui.c:3497
* Input          : None
* Output         : None
* Return         : None
*******************************************************************************/
static void Keyboard_Czujniki1 ( void )
{
   0:	b570      	push	{r4, r5, r6, lr}
C:\tien\PROJEKTY\procesory\STM\T108_V100a\sources/gui.c:3498
    if ( Keyboard.Keyboard_Memory != 0 && Keyboard.Keyboard_Flag == 1 )
   2:	4a39      	ldr	r2, [pc, #228]	(e8 <Keyboard_Czujniki1+0xe8>)
   4:	7813      	ldrb	r3, [r2, #0]
   6:	2b00      	cmp	r3, #0
   8:	d069      	beq.n	de <Keyboard_Czujniki1+0xde>
   a:	7895      	ldrb	r5, [r2, #2]
   c:	2d01      	cmp	r5, #1
   e:	d166      	bne.n	de <Keyboard_Czujniki1+0xde>
C:\tien\PROJEKTY\procesory\STM\T108_V100a\sources/gui.c:3500
    {
        switch ( Keyboard.Keyboard_Memory )
  10:	2b02      	cmp	r3, #2
  12:	d004      	beq.n	1e <Keyboard_Czujniki1+0x1e>
  14:	2b08      	cmp	r3, #8
  16:	d04c      	beq.n	b2 <Keyboard_Czujniki1+0xb2>
  18:	2b01      	cmp	r3, #1
  1a:	d15d      	bne.n	d8 <Keyboard_Czujniki1+0xd8>
  1c:	e01d      	b.n	5a <Keyboard_Czujniki1+0x5a>
C:\tien\PROJEKTY\procesory\STM\T108_V100a\sources/gui.c:3503
        {
            case KEY_ESCAPE:
                    Machine_State = INVERTER_PROG;
  1e:	4c33      	ldr	r4, [pc, #204]	(ec <Keyboard_Czujniki1+0xec>)
  20:	2629      	movs	r6, #41
  22:	7026      	strb	r6, [r4, #0]
C:\tien\PROJEKTY\procesory\STM\T108_V100a\sources/gui.c:3505
            
                    Write_Settings();
  24:	f7ff fffe 	bl	0 <Keyboard_Czujniki1>
C:\tien\PROJEKTY\procesory\STM\T108_V100a\sources/gui.c:3506
                    Variable_Editing_Ptr = NULL;
  28:	4b31      	ldr	r3, [pc, #196]	(f0 <Keyboard_Czujniki1+0xf0>)
  2a:	2200      	movs	r2, #0
  2c:	601a      	str	r2, [r3, #0]
C:\tien\PROJEKTY\procesory\STM\T108_V100a\sources/gui.c:3507
                    Menu_Keys = Menu_Backup_Keys_Set;
  2e:	4831      	ldr	r0, [pc, #196]	(f4 <Keyboard_Czujniki1+0xf4>)
  30:	3203      	adds	r2, #3
  32:	4931      	ldr	r1, [pc, #196]	(f8 <Keyboard_Czujniki1+0xf8>)
  34:	f7ff fffe 	bl	0 <memcpy>
C:\tien\PROJEKTY\procesory\STM\T108_V100a\sources/gui.c:3508
                    Screen_Number = Screen_Before_Password;;
  38:	4b30      	ldr	r3, [pc, #192]	(fc <Keyboard_Czujniki1+0xfc>)
  3a:	781a      	ldrb	r2, [r3, #0]
  3c:	4b30      	ldr	r3, [pc, #192]	(100 <Keyboard_Czujniki1+0x100>)
  3e:	701a      	strb	r2, [r3, #0]
C:\tien\PROJEKTY\procesory\STM\T108_V100a\sources/gui.c:3509
                    Reload_Screen = TRUE;
  40:	4b30      	ldr	r3, [pc, #192]	(104 <Keyboard_Czujniki1+0x104>)
  42:	701d      	strb	r5, [r3, #0]
C:\tien\PROJEKTY\procesory\STM\T108_V100a\sources/gui.c:3511
            
                    if ( Controlling_Variables.Ctrl_Vars.Motor_Type == 0 ) //Freqw_Inverter
  44:	4b30      	ldr	r3, [pc, #192]	(108 <Keyboard_Czujniki1+0x108>)
  46:	f893 302e 	ldrb.w	r3, [r3, #46]
  4a:	b90b      	cbnz	r3, 50 <Keyboard_Czujniki1+0x50>
C:\tien\PROJEKTY\procesory\STM\T108_V100a\sources/gui.c:3512
                        Machine_State = INVERTER_PROG;
  4c:	7026      	strb	r6, [r4, #0]
  4e:	e001      	b.n	54 <Keyboard_Czujniki1+0x54>
C:\tien\PROJEKTY\procesory\STM\T108_V100a\sources/gui.c:3514
                    else // 24V sliding gate
                        Machine_State = WG_POWER_ON;
  50:	2311      	movs	r3, #17
  52:	7023      	strb	r3, [r4, #0]
C:\tien\PROJEKTY\procesory\STM\T108_V100a\sources/gui.c:3516
                    
                     WG_TIMER_FLAG = FALSE;
  54:	2200      	movs	r2, #0
  56:	4b2d      	ldr	r3, [pc, #180]	(10c <Keyboard_Czujniki1+0x10c>)
  58:	e03d      	b.n	d6 <Keyboard_Czujniki1+0xd6>
C:\tien\PROJEKTY\procesory\STM\T108_V100a\sources/gui.c:3520
            break;

            case KEY_ENTER:
                if ( Edit_Parameter_Counter == 0 )
  5a:	4b2d      	ldr	r3, [pc, #180]	(110 <Keyboard_Czujniki1+0x110>)
  5c:	f893 3024 	ldrb.w	r3, [r3, #36]
  60:	b923      	cbnz	r3, 6c <Keyboard_Czujniki1+0x6c>
C:\tien\PROJEKTY\procesory\STM\T108_V100a\sources/gui.c:3522
                {
                    Controlling_Variables_Set.Ctrl_Vars.Angle1_Cl = Controller_Variables.Controller_Vars.MSens1_Angle;
  62:	4a2c      	ldr	r2, [pc, #176]	(114 <Keyboard_Czujniki1+0x114>)
  64:	4b2c      	ldr	r3, [pc, #176]	(118 <Keyboard_Czujniki1+0x118>)
  66:	8e12      	ldrh	r2, [r2, #48]
  68:	861a      	strh	r2, [r3, #48]
  6a:	e013      	b.n	94 <Keyboard_Czujniki1+0x94>
C:\tien\PROJEKTY\procesory\STM\T108_V100a\sources/gui.c:3524
                }
                if ( Edit_Parameter_Counter == 1 )
  6c:	2b01      	cmp	r3, #1
  6e:	d104      	bne.n	7a <Keyboard_Czujniki1+0x7a>
C:\tien\PROJEKTY\procesory\STM\T108_V100a\sources/gui.c:3526
                {
                    Controlling_Variables_Set.Ctrl_Vars.Angle1_Op = Controller_Variables.Controller_Vars.MSens1_Angle;
  70:	4a28      	ldr	r2, [pc, #160]	(114 <Keyboard_Czujniki1+0x114>)
  72:	4b29      	ldr	r3, [pc, #164]	(118 <Keyboard_Czujniki1+0x118>)
  74:	8e12      	ldrh	r2, [r2, #48]
  76:	865a      	strh	r2, [r3, #50]
  78:	e00c      	b.n	94 <Keyboard_Czujniki1+0x94>
C:\tien\PROJEKTY\procesory\STM\T108_V100a\sources/gui.c:3528
                }
                if ( Edit_Parameter_Counter == 2 )
  7a:	2b02      	cmp	r3, #2
  7c:	d104      	bne.n	88 <Keyboard_Czujniki1+0x88>
C:\tien\PROJEKTY\procesory\STM\T108_V100a\sources/gui.c:3530
                {
                    Controlling_Variables_Set.Ctrl_Vars.Angle2_Cl = Controller_Variables.Controller_Vars.MSens2_Angle;
  7e:	4a25      	ldr	r2, [pc, #148]	(114 <Keyboard_Czujniki1+0x114>)
  80:	4b25      	ldr	r3, [pc, #148]	(118 <Keyboard_Czujniki1+0x118>)
  82:	8e52      	ldrh	r2, [r2, #50]
  84:	869a      	strh	r2, [r3, #52]
  86:	e005      	b.n	94 <Keyboard_Czujniki1+0x94>
C:\tien\PROJEKTY\procesory\STM\T108_V100a\sources/gui.c:3532
                }
                if ( Edit_Parameter_Counter == 3 )
  88:	2b03      	cmp	r3, #3
  8a:	d103      	bne.n	94 <Keyboard_Czujniki1+0x94>
C:\tien\PROJEKTY\procesory\STM\T108_V100a\sources/gui.c:3534
                {
                    Controlling_Variables_Set.Ctrl_Vars.Angle2_Op = Controller_Variables.Controller_Vars.MSens2_Angle;
  8c:	4a21      	ldr	r2, [pc, #132]	(114 <Keyboard_Czujniki1+0x114>)
  8e:	4b22      	ldr	r3, [pc, #136]	(118 <Keyboard_Czujniki1+0x118>)
  90:	8e52      	ldrh	r2, [r2, #50]
  92:	86da      	strh	r2, [r3, #54]
C:\tien\PROJEKTY\procesory\STM\T108_V100a\sources/gui.c:3536
                }
                Controlling_Variables = Controlling_Variables_Set;
  94:	4b20      	ldr	r3, [pc, #128]	(118 <Keyboard_Czujniki1+0x118>)
  96:	4e1c      	ldr	r6, [pc, #112]	(108 <Keyboard_Czujniki1+0x108>)
  98:	461c      	mov	r4, r3
  9a:	4635      	mov	r5, r6
  9c:	cc0f      	ldmia	r4!, {r0, r1, r2, r3}
  9e:	c50f      	stmia	r5!, {r0, r1, r2, r3}
  a0:	cc0f      	ldmia	r4!, {r0, r1, r2, r3}
  a2:	c50f      	stmia	r5!, {r0, r1, r2, r3}
  a4:	cc0f      	ldmia	r4!, {r0, r1, r2, r3}
  a6:	c50f      	stmia	r5!, {r0, r1, r2, r3}
  a8:	e894 000f 	ldmia.w	r4, {r0, r1, r2, r3}
  ac:	e885 000f 	stmia.w	r5, {r0, r1, r2, r3}
  b0:	e012      	b.n	d8 <Keyboard_Czujniki1+0xd8>
C:\tien\PROJEKTY\procesory\STM\T108_V100a\sources/gui.c:3544
            case KEY_DOWN:
  
            break;
          
            case KEY_UP:
                  Count_Add = 0;
  b2:	4b1a      	ldr	r3, [pc, #104]	(11c <Keyboard_Czujniki1+0x11c>)
C:\tien\PROJEKTY\procesory\STM\T108_V100a\sources/gui.c:3545
                  Edit_Parameter_Counter++;
  b4:	4c16      	ldr	r4, [pc, #88]	(110 <Keyboard_Czujniki1+0x110>)
C:\tien\PROJEKTY\procesory\STM\T108_V100a\sources/gui.c:3544
            case KEY_DOWN:
  
            break;
          
            case KEY_UP:
                  Count_Add = 0;
  b6:	2200      	movs	r2, #0
  b8:	701a      	strb	r2, [r3, #0]
C:\tien\PROJEKTY\procesory\STM\T108_V100a\sources/gui.c:3545
                  Edit_Parameter_Counter++;
  ba:	f894 3024 	ldrb.w	r3, [r4, #36]
  be:	3301      	adds	r3, #1
  c0:	f884 3024 	strb.w	r3, [r4, #36]
C:\tien\PROJEKTY\procesory\STM\T108_V100a\sources/gui.c:3547
                
                  if ( Next_Editable_Variable() == FALSE )
  c4:	f7ff fffe 	bl	0 <Keyboard_Czujniki1>
  c8:	b918      	cbnz	r0, d2 <Keyboard_Czujniki1+0xd2>
C:\tien\PROJEKTY\procesory\STM\T108_V100a\sources/gui.c:3549
                  {
                      Edit_Parameter_Counter = 0;
  ca:	f884 0024 	strb.w	r0, [r4, #36]
C:\tien\PROJEKTY\procesory\STM\T108_V100a\sources/gui.c:3550
                      First_Editable_Variable();
  ce:	f7ff fffe 	bl	0 <Keyboard_Czujniki1>
C:\tien\PROJEKTY\procesory\STM\T108_V100a\sources/gui.c:3552
                  }
                  Reload_Screen = TRUE;
  d2:	4b0c      	ldr	r3, [pc, #48]	(104 <Keyboard_Czujniki1+0x104>)
  d4:	2201      	movs	r2, #1
  d6:	701a      	strb	r2, [r3, #0]
C:\tien\PROJEKTY\procesory\STM\T108_V100a\sources/gui.c:3558
            break;

            default:
            break;
        }
        Keyboard.Keyboard_Flag = 0;
  d8:	4b03      	ldr	r3, [pc, #12]	(e8 <Keyboard_Czujniki1+0xe8>)
  da:	2200      	movs	r2, #0
  dc:	709a      	strb	r2, [r3, #2]
C:\tien\PROJEKTY\procesory\STM\T108_V100a\sources/gui.c:3561
    }

    if ( Keyboard.Keyboard_State == 0 )
  de:	4a02      	ldr	r2, [pc, #8]	(e8 <Keyboard_Czujniki1+0xe8>)
  e0:	7853      	ldrb	r3, [r2, #1]
  e2:	b903      	cbnz	r3, e6 <Keyboard_Czujniki1+0xe6>
C:\tien\PROJEKTY\procesory\STM\T108_V100a\sources/gui.c:3563
    {
        Keyboard.Keyboard_Memory = 0;
  e4:	7013      	strb	r3, [r2, #0]
C:\tien\PROJEKTY\procesory\STM\T108_V100a\sources/gui.c:3565
    }
}
  e6:	bd70      	pop	{r4, r5, r6, pc}
	...
  f4:	00000011 	.word	0x00000011
	...
Disassembly of section .text.Keyboard_Ustaw_Wyjsc_Przek:

00000000 <Keyboard_Ustaw_Wyjsc_Przek>:
Keyboard_Ustaw_Wyjsc_Przek():
C:\tien\PROJEKTY\procesory\STM\T108_V100a\sources/gui.c:3761
* Input          : None
* Output         : None
* Return         : None
*******************************************************************************/
static void Keyboard_Ustaw_Wyjsc_Przek ( void )
{
   0:	b510      	push	{r4, lr}
C:\tien\PROJEKTY\procesory\STM\T108_V100a\sources/gui.c:3762
    if ( Keyboard.Keyboard_Memory != 0 && Keyboard.Keyboard_Flag == 1 )
   2:	4a28      	ldr	r2, [pc, #160]	(a4 <Keyboard_Ustaw_Wyjsc_Przek+0xa4>)
   4:	7813      	ldrb	r3, [r2, #0]
   6:	2b00      	cmp	r3, #0
   8:	d047      	beq.n	9a <Keyboard_Ustaw_Wyjsc_Przek+0x9a>
   a:	7894      	ldrb	r4, [r2, #2]
   c:	2c01      	cmp	r4, #1
   e:	d144      	bne.n	9a <Keyboard_Ustaw_Wyjsc_Przek+0x9a>
C:\tien\PROJEKTY\procesory\STM\T108_V100a\sources/gui.c:3764
    {
        switch ( Keyboard.Keyboard_Memory )
  10:	2b02      	cmp	r3, #2
  12:	d008      	beq.n	26 <Keyboard_Ustaw_Wyjsc_Przek+0x26>
  14:	d802      	bhi.n	1c <Keyboard_Ustaw_Wyjsc_Przek+0x1c>
  16:	2b01      	cmp	r3, #1
  18:	d13a      	bne.n	90 <Keyboard_Ustaw_Wyjsc_Przek+0x90>
  1a:	e015      	b.n	48 <Keyboard_Ustaw_Wyjsc_Przek+0x48>
  1c:	2b08      	cmp	r3, #8
  1e:	d02b      	beq.n	78 <Keyboard_Ustaw_Wyjsc_Przek+0x78>
  20:	2b20      	cmp	r3, #32
  22:	d135      	bne.n	90 <Keyboard_Ustaw_Wyjsc_Przek+0x90>
  24:	e01a      	b.n	5c <Keyboard_Ustaw_Wyjsc_Przek+0x5c>
C:\tien\PROJEKTY\procesory\STM\T108_V100a\sources/gui.c:3767
        {
            case KEY_ESCAPE:
                    Write_Settings();
  26:	f7ff fffe 	bl	0 <Keyboard_Ustaw_Wyjsc_Przek>
C:\tien\PROJEKTY\procesory\STM\T108_V100a\sources/gui.c:3768
                    Variable_Editing_Ptr = NULL;
  2a:	4b1f      	ldr	r3, [pc, #124]	(a8 <Keyboard_Ustaw_Wyjsc_Przek+0xa8>)
  2c:	2200      	movs	r2, #0
  2e:	601a      	str	r2, [r3, #0]
C:\tien\PROJEKTY\procesory\STM\T108_V100a\sources/gui.c:3769
                    Menu_Keys = Menu_Backup_Keys_Set;
  30:	481e      	ldr	r0, [pc, #120]	(ac <Keyboard_Ustaw_Wyjsc_Przek+0xac>)
  32:	3203      	adds	r2, #3
  34:	491e      	ldr	r1, [pc, #120]	(b0 <Keyboard_Ustaw_Wyjsc_Przek+0xb0>)
  36:	f7ff fffe 	bl	0 <memcpy>
C:\tien\PROJEKTY\procesory\STM\T108_V100a\sources/gui.c:3770
                    Screen_Number = Screen_Before_Password;;
  3a:	4b1e      	ldr	r3, [pc, #120]	(b4 <Keyboard_Ustaw_Wyjsc_Przek+0xb4>)
  3c:	781a      	ldrb	r2, [r3, #0]
  3e:	4b1e      	ldr	r3, [pc, #120]	(b8 <Keyboard_Ustaw_Wyjsc_Przek+0xb8>)
  40:	701a      	strb	r2, [r3, #0]
C:\tien\PROJEKTY\procesory\STM\T108_V100a\sources/gui.c:3771
                    Reload_Screen = TRUE;
  42:	4b1e      	ldr	r3, [pc, #120]	(bc <Keyboard_Ustaw_Wyjsc_Przek+0xbc>)
  44:	701c      	strb	r4, [r3, #0]
  46:	e025      	b.n	94 <Keyboard_Ustaw_Wyjsc_Przek+0x94>
C:\tien\PROJEKTY\procesory\STM\T108_V100a\sources/gui.c:3775
            break;

            case KEY_ENTER:
                    if ( ++Screen_Number > WY_PRZEK2 )
  48:	4a1b      	ldr	r2, [pc, #108]	(b8 <Keyboard_Ustaw_Wyjsc_Przek+0xb8>)
  4a:	7813      	ldrb	r3, [r2, #0]
  4c:	3301      	adds	r3, #1
  4e:	b2db      	uxtb	r3, r3
  50:	2b1f      	cmp	r3, #31
  52:	7013      	strb	r3, [r2, #0]
  54:	d916      	bls.n	84 <Keyboard_Ustaw_Wyjsc_Przek+0x84>
C:\tien\PROJEKTY\procesory\STM\T108_V100a\sources/gui.c:3777
                    {   
                        Screen_Number = WY_PRZEK1;
  56:	231e      	movs	r3, #30
  58:	7013      	strb	r3, [r2, #0]
  5a:	e013      	b.n	84 <Keyboard_Ustaw_Wyjsc_Przek+0x84>
C:\tien\PROJEKTY\procesory\STM\T108_V100a\sources/gui.c:3784
                    First_Editable_Variable();
                    Reload_Screen = TRUE;
            break;

            case KEY_DOWN:
              if ( ++Count_Add == Variable_Editing_Ptr->Var_Param_Ptr->Variable_Digits_Count )
  5c:	4918      	ldr	r1, [pc, #96]	(c0 <Keyboard_Ustaw_Wyjsc_Przek+0xc0>)
  5e:	4b12      	ldr	r3, [pc, #72]	(a8 <Keyboard_Ustaw_Wyjsc_Przek+0xa8>)
  60:	780a      	ldrb	r2, [r1, #0]
  62:	681b      	ldr	r3, [r3, #0]
  64:	3201      	adds	r2, #1
  66:	b2d2      	uxtb	r2, r2
  68:	700a      	strb	r2, [r1, #0]
  6a:	68db      	ldr	r3, [r3, #12]
  6c:	789b      	ldrb	r3, [r3, #2]
  6e:	4293      	cmp	r3, r2
  70:	d10a      	bne.n	88 <Keyboard_Ustaw_Wyjsc_Przek+0x88>
C:\tien\PROJEKTY\procesory\STM\T108_V100a\sources/gui.c:3786
              {
                  Count_Add = 0;
  72:	2300      	movs	r3, #0
  74:	700b      	strb	r3, [r1, #0]
  76:	e007      	b.n	88 <Keyboard_Ustaw_Wyjsc_Przek+0x88>
C:\tien\PROJEKTY\procesory\STM\T108_V100a\sources/gui.c:3792
              }
              Reload_Screen = TRUE;  
            break;
          
            case KEY_UP:
              Count_Add = 0;
  78:	4b11      	ldr	r3, [pc, #68]	(c0 <Keyboard_Ustaw_Wyjsc_Przek+0xc0>)
  7a:	2200      	movs	r2, #0
  7c:	701a      	strb	r2, [r3, #0]
C:\tien\PROJEKTY\procesory\STM\T108_V100a\sources/gui.c:3793
              if ( Next_Editable_Variable() == FALSE )
  7e:	f7ff fffe 	bl	0 <Keyboard_Ustaw_Wyjsc_Przek>
  82:	b908      	cbnz	r0, 6 <Keyboard_Ustaw_Wyjsc_Przek+0x6>
C:\tien\PROJEKTY\procesory\STM\T108_V100a\sources/gui.c:3795
              {
                  First_Editable_Variable();
  84:	f7ff fffe 	bl	0 <Keyboard_Ustaw_Wyjsc_Przek>
C:\tien\PROJEKTY\procesory\STM\T108_V100a\sources/gui.c:3797
              }
              Reload_Screen = TRUE;
  88:	4b0c      	ldr	r3, [pc, #48]	(bc <Keyboard_Ustaw_Wyjsc_Przek+0xbc>)
  8a:	2201      	movs	r2, #1
  8c:	701a      	strb	r2, [r3, #0]
  8e:	e001      	b.n	94 <Keyboard_Ustaw_Wyjsc_Przek+0x94>
C:\tien\PROJEKTY\procesory\STM\T108_V100a\sources/gui.c:3801
            break;

            default:
                Keyboard_Edit_Variable();
  90:	f7ff fffe 	bl	0 <Keyboard_Ustaw_Wyjsc_Przek>
C:\tien\PROJEKTY\procesory\STM\T108_V100a\sources/gui.c:3804
            break;
        }
        Keyboard.Keyboard_Flag = 0;
  94:	4b03      	ldr	r3, [pc, #12]	(a4 <Keyboard_Ustaw_Wyjsc_Przek+0xa4>)
  96:	2200      	movs	r2, #0
  98:	709a      	strb	r2, [r3, #2]
C:\tien\PROJEKTY\procesory\STM\T108_V100a\sources/gui.c:3807
    }

    if ( Keyboard.Keyboard_State == 0 )
  9a:	4a02      	ldr	r2, [pc, #8]	(a4 <Keyboard_Ustaw_Wyjsc_Przek+0xa4>)
  9c:	7853      	ldrb	r3, [r2, #1]
  9e:	b903      	cbnz	r3, a2 <Keyboard_Ustaw_Wyjsc_Przek+0xa2>
C:\tien\PROJEKTY\procesory\STM\T108_V100a\sources/gui.c:3809
    {
        Keyboard.Keyboard_Memory = 0;
  a0:	7013      	strb	r3, [r2, #0]
C:\tien\PROJEKTY\procesory\STM\T108_V100a\sources/gui.c:3811
    }
}
  a2:	bd10      	pop	{r4, pc}
	...
  ac:	00000011 	.word	0x00000011
	...
Disassembly of section .text.Keyboard_Ustaw_Wejsc_Ster:

00000000 <Keyboard_Ustaw_Wejsc_Ster>:
Keyboard_Ustaw_Wejsc_Ster():
C:\tien\PROJEKTY\procesory\STM\T108_V100a\sources/gui.c:3701
* Input          : None
* Output         : None
* Return         : None
*******************************************************************************/
static void Keyboard_Ustaw_Wejsc_Ster ( void )
{
   0:	b510      	push	{r4, lr}
C:\tien\PROJEKTY\procesory\STM\T108_V100a\sources/gui.c:3702
    if ( Keyboard.Keyboard_Memory != 0 && Keyboard.Keyboard_Flag == 1 )
   2:	4a28      	ldr	r2, [pc, #160]	(a4 <Keyboard_Ustaw_Wejsc_Ster+0xa4>)
   4:	7813      	ldrb	r3, [r2, #0]
   6:	2b00      	cmp	r3, #0
   8:	d047      	beq.n	9a <Keyboard_Ustaw_Wejsc_Ster+0x9a>
   a:	7894      	ldrb	r4, [r2, #2]
   c:	2c01      	cmp	r4, #1
   e:	d144      	bne.n	9a <Keyboard_Ustaw_Wejsc_Ster+0x9a>
C:\tien\PROJEKTY\procesory\STM\T108_V100a\sources/gui.c:3704
    {
        switch ( Keyboard.Keyboard_Memory )
  10:	2b02      	cmp	r3, #2
  12:	d008      	beq.n	26 <Keyboard_Ustaw_Wejsc_Ster+0x26>
  14:	d802      	bhi.n	1c <Keyboard_Ustaw_Wejsc_Ster+0x1c>
  16:	2b01      	cmp	r3, #1
  18:	d13a      	bne.n	90 <Keyboard_Ustaw_Wejsc_Ster+0x90>
  1a:	e015      	b.n	48 <Keyboard_Ustaw_Wejsc_Ster+0x48>
  1c:	2b08      	cmp	r3, #8
  1e:	d02b      	beq.n	78 <Keyboard_Ustaw_Wejsc_Ster+0x78>
  20:	2b20      	cmp	r3, #32
  22:	d135      	bne.n	90 <Keyboard_Ustaw_Wejsc_Ster+0x90>
  24:	e01a      	b.n	5c <Keyboard_Ustaw_Wejsc_Ster+0x5c>
C:\tien\PROJEKTY\procesory\STM\T108_V100a\sources/gui.c:3707
        {
            case KEY_ESCAPE:
                    Write_Settings();
  26:	f7ff fffe 	bl	0 <Keyboard_Ustaw_Wejsc_Ster>
C:\tien\PROJEKTY\procesory\STM\T108_V100a\sources/gui.c:3708
                    Variable_Editing_Ptr = NULL;
  2a:	4b1f      	ldr	r3, [pc, #124]	(a8 <Keyboard_Ustaw_Wejsc_Ster+0xa8>)
  2c:	2200      	movs	r2, #0
  2e:	601a      	str	r2, [r3, #0]
C:\tien\PROJEKTY\procesory\STM\T108_V100a\sources/gui.c:3709
                    Menu_Keys = Menu_Backup_Keys_Set;
  30:	481e      	ldr	r0, [pc, #120]	(ac <Keyboard_Ustaw_Wejsc_Ster+0xac>)
  32:	3203      	adds	r2, #3
  34:	491e      	ldr	r1, [pc, #120]	(b0 <Keyboard_Ustaw_Wejsc_Ster+0xb0>)
  36:	f7ff fffe 	bl	0 <memcpy>
C:\tien\PROJEKTY\procesory\STM\T108_V100a\sources/gui.c:3710
                    Screen_Number = Screen_Before_Password;;
  3a:	4b1e      	ldr	r3, [pc, #120]	(b4 <Keyboard_Ustaw_Wejsc_Ster+0xb4>)
  3c:	781a      	ldrb	r2, [r3, #0]
  3e:	4b1e      	ldr	r3, [pc, #120]	(b8 <Keyboard_Ustaw_Wejsc_Ster+0xb8>)
  40:	701a      	strb	r2, [r3, #0]
C:\tien\PROJEKTY\procesory\STM\T108_V100a\sources/gui.c:3711
                    Reload_Screen = TRUE;
  42:	4b1e      	ldr	r3, [pc, #120]	(bc <Keyboard_Ustaw_Wejsc_Ster+0xbc>)
  44:	701c      	strb	r4, [r3, #0]
  46:	e025      	b.n	94 <Keyboard_Ustaw_Wejsc_Ster+0x94>
C:\tien\PROJEKTY\procesory\STM\T108_V100a\sources/gui.c:3715
            break;

            case KEY_ENTER:
                    if ( ++Screen_Number > WE_STER2 )
  48:	4a1b      	ldr	r2, [pc, #108]	(b8 <Keyboard_Ustaw_Wejsc_Ster+0xb8>)
  4a:	7813      	ldrb	r3, [r2, #0]
  4c:	3301      	adds	r3, #1
  4e:	b2db      	uxtb	r3, r3
  50:	2b1d      	cmp	r3, #29
  52:	7013      	strb	r3, [r2, #0]
  54:	d916      	bls.n	84 <Keyboard_Ustaw_Wejsc_Ster+0x84>
C:\tien\PROJEKTY\procesory\STM\T108_V100a\sources/gui.c:3717
                    {   
                        Screen_Number = WE_STER1;
  56:	231c      	movs	r3, #28
  58:	7013      	strb	r3, [r2, #0]
  5a:	e013      	b.n	84 <Keyboard_Ustaw_Wejsc_Ster+0x84>
C:\tien\PROJEKTY\procesory\STM\T108_V100a\sources/gui.c:3724
                    First_Editable_Variable();
                    Reload_Screen = TRUE;
            break;

            case KEY_DOWN:
              if ( ++Count_Add == Variable_Editing_Ptr->Var_Param_Ptr->Variable_Digits_Count )
  5c:	4918      	ldr	r1, [pc, #96]	(c0 <Keyboard_Ustaw_Wejsc_Ster+0xc0>)
  5e:	4b12      	ldr	r3, [pc, #72]	(a8 <Keyboard_Ustaw_Wejsc_Ster+0xa8>)
  60:	780a      	ldrb	r2, [r1, #0]
  62:	681b      	ldr	r3, [r3, #0]
  64:	3201      	adds	r2, #1
  66:	b2d2      	uxtb	r2, r2
  68:	700a      	strb	r2, [r1, #0]
  6a:	68db      	ldr	r3, [r3, #12]
  6c:	789b      	ldrb	r3, [r3, #2]
  6e:	4293      	cmp	r3, r2
  70:	d10a      	bne.n	88 <Keyboard_Ustaw_Wejsc_Ster+0x88>
C:\tien\PROJEKTY\procesory\STM\T108_V100a\sources/gui.c:3726
              {
                  Count_Add = 0;
  72:	2300      	movs	r3, #0
  74:	700b      	strb	r3, [r1, #0]
  76:	e007      	b.n	88 <Keyboard_Ustaw_Wejsc_Ster+0x88>
C:\tien\PROJEKTY\procesory\STM\T108_V100a\sources/gui.c:3732
              }
              Reload_Screen = TRUE;  
            break;
          
            case KEY_UP:
              Count_Add = 0;
  78:	4b11      	ldr	r3, [pc, #68]	(c0 <Keyboard_Ustaw_Wejsc_Ster+0xc0>)
  7a:	2200      	movs	r2, #0
  7c:	701a      	strb	r2, [r3, #0]
C:\tien\PROJEKTY\procesory\STM\T108_V100a\sources/gui.c:3733
              if ( Next_Editable_Variable() == FALSE )
  7e:	f7ff fffe 	bl	0 <Keyboard_Ustaw_Wejsc_Ster>
  82:	b908      	cbnz	r0, 6 <Keyboard_Ustaw_Wejsc_Ster+0x6>
C:\tien\PROJEKTY\procesory\STM\T108_V100a\sources/gui.c:3735
              {
                  First_Editable_Variable();
  84:	f7ff fffe 	bl	0 <Keyboard_Ustaw_Wejsc_Ster>
C:\tien\PROJEKTY\procesory\STM\T108_V100a\sources/gui.c:3737
              }
              Reload_Screen = TRUE;
  88:	4b0c      	ldr	r3, [pc, #48]	(bc <Keyboard_Ustaw_Wejsc_Ster+0xbc>)
  8a:	2201      	movs	r2, #1
  8c:	701a      	strb	r2, [r3, #0]
  8e:	e001      	b.n	94 <Keyboard_Ustaw_Wejsc_Ster+0x94>
C:\tien\PROJEKTY\procesory\STM\T108_V100a\sources/gui.c:3741
            break;

            default:
                Keyboard_Edit_Variable();
  90:	f7ff fffe 	bl	0 <Keyboard_Ustaw_Wejsc_Ster>
C:\tien\PROJEKTY\procesory\STM\T108_V100a\sources/gui.c:3744
            break;
        }
        Keyboard.Keyboard_Flag = 0;
  94:	4b03      	ldr	r3, [pc, #12]	(a4 <Keyboard_Ustaw_Wejsc_Ster+0xa4>)
  96:	2200      	movs	r2, #0
  98:	709a      	strb	r2, [r3, #2]
C:\tien\PROJEKTY\procesory\STM\T108_V100a\sources/gui.c:3747
    }

    if ( Keyboard.Keyboard_State == 0 )
  9a:	4a02      	ldr	r2, [pc, #8]	(a4 <Keyboard_Ustaw_Wejsc_Ster+0xa4>)
  9c:	7853      	ldrb	r3, [r2, #1]
  9e:	b903      	cbnz	r3, a2 <Keyboard_Ustaw_Wejsc_Ster+0xa2>
C:\tien\PROJEKTY\procesory\STM\T108_V100a\sources/gui.c:3749
    {
        Keyboard.Keyboard_Memory = 0;
  a0:	7013      	strb	r3, [r2, #0]
C:\tien\PROJEKTY\procesory\STM\T108_V100a\sources/gui.c:3751
    }
}
  a2:	bd10      	pop	{r4, pc}
	...
  ac:	00000011 	.word	0x00000011
	...
Disassembly of section .text.Keyboard_Ustaw_Wejsc:

00000000 <Keyboard_Ustaw_Wejsc>:
Keyboard_Ustaw_Wejsc():
C:\tien\PROJEKTY\procesory\STM\T108_V100a\sources/gui.c:3640
* Input          : None
* Output         : None
* Return         : None
*******************************************************************************/
static void Keyboard_Ustaw_Wejsc ( void )
{
   0:	b510      	push	{r4, lr}
C:\tien\PROJEKTY\procesory\STM\T108_V100a\sources/gui.c:3641
    if ( Keyboard.Keyboard_Memory != 0 && Keyboard.Keyboard_Flag == 1 )
   2:	4a28      	ldr	r2, [pc, #160]	(a4 <Keyboard_Ustaw_Wejsc+0xa4>)
   4:	7813      	ldrb	r3, [r2, #0]
   6:	2b00      	cmp	r3, #0
   8:	d047      	beq.n	9a <Keyboard_Ustaw_Wejsc+0x9a>
   a:	7894      	ldrb	r4, [r2, #2]
   c:	2c01      	cmp	r4, #1
   e:	d144      	bne.n	9a <Keyboard_Ustaw_Wejsc+0x9a>
C:\tien\PROJEKTY\procesory\STM\T108_V100a\sources/gui.c:3643
    {
        switch ( Keyboard.Keyboard_Memory )
  10:	2b02      	cmp	r3, #2
  12:	d008      	beq.n	26 <Keyboard_Ustaw_Wejsc+0x26>
  14:	d802      	bhi.n	1c <Keyboard_Ustaw_Wejsc+0x1c>
  16:	2b01      	cmp	r3, #1
  18:	d13a      	bne.n	90 <Keyboard_Ustaw_Wejsc+0x90>
  1a:	e015      	b.n	48 <Keyboard_Ustaw_Wejsc+0x48>
  1c:	2b08      	cmp	r3, #8
  1e:	d02b      	beq.n	78 <Keyboard_Ustaw_Wejsc+0x78>
  20:	2b20      	cmp	r3, #32
  22:	d135      	bne.n	90 <Keyboard_Ustaw_Wejsc+0x90>
  24:	e01a      	b.n	5c <Keyboard_Ustaw_Wejsc+0x5c>
C:\tien\PROJEKTY\procesory\STM\T108_V100a\sources/gui.c:3646
        {
            case KEY_ESCAPE:
                    Write_Settings();
  26:	f7ff fffe 	bl	0 <Keyboard_Ustaw_Wejsc>
C:\tien\PROJEKTY\procesory\STM\T108_V100a\sources/gui.c:3647
                    Variable_Editing_Ptr = NULL;
  2a:	4b1f      	ldr	r3, [pc, #124]	(a8 <Keyboard_Ustaw_Wejsc+0xa8>)
  2c:	2200      	movs	r2, #0
  2e:	601a      	str	r2, [r3, #0]
C:\tien\PROJEKTY\procesory\STM\T108_V100a\sources/gui.c:3648
                    Menu_Keys = Menu_Backup_Keys_Set;
  30:	481e      	ldr	r0, [pc, #120]	(ac <Keyboard_Ustaw_Wejsc+0xac>)
  32:	3203      	adds	r2, #3
  34:	491e      	ldr	r1, [pc, #120]	(b0 <Keyboard_Ustaw_Wejsc+0xb0>)
  36:	f7ff fffe 	bl	0 <memcpy>
C:\tien\PROJEKTY\procesory\STM\T108_V100a\sources/gui.c:3649
                    Screen_Number = Screen_Before_Password;;
  3a:	4b1e      	ldr	r3, [pc, #120]	(b4 <Keyboard_Ustaw_Wejsc+0xb4>)
  3c:	781a      	ldrb	r2, [r3, #0]
  3e:	4b1e      	ldr	r3, [pc, #120]	(b8 <Keyboard_Ustaw_Wejsc+0xb8>)
  40:	701a      	strb	r2, [r3, #0]
C:\tien\PROJEKTY\procesory\STM\T108_V100a\sources/gui.c:3650
                    Reload_Screen = TRUE;
  42:	4b1e      	ldr	r3, [pc, #120]	(bc <Keyboard_Ustaw_Wejsc+0xbc>)
  44:	701c      	strb	r4, [r3, #0]
  46:	e025      	b.n	94 <Keyboard_Ustaw_Wejsc+0x94>
C:\tien\PROJEKTY\procesory\STM\T108_V100a\sources/gui.c:3654
            break;

            case KEY_ENTER:
                    if ( ++Screen_Number > USTAW_WEWY4 )
  48:	4a1b      	ldr	r2, [pc, #108]	(b8 <Keyboard_Ustaw_Wejsc+0xb8>)
  4a:	7813      	ldrb	r3, [r2, #0]
  4c:	3301      	adds	r3, #1
  4e:	b2db      	uxtb	r3, r3
  50:	2b1b      	cmp	r3, #27
  52:	7013      	strb	r3, [r2, #0]
  54:	d916      	bls.n	84 <Keyboard_Ustaw_Wejsc+0x84>
C:\tien\PROJEKTY\procesory\STM\T108_V100a\sources/gui.c:3656
                    {   
                        Screen_Number = USTAW_WEWY1;
  56:	2318      	movs	r3, #24
  58:	7013      	strb	r3, [r2, #0]
  5a:	e013      	b.n	84 <Keyboard_Ustaw_Wejsc+0x84>
C:\tien\PROJEKTY\procesory\STM\T108_V100a\sources/gui.c:3663
                    First_Editable_Variable();
                    Reload_Screen = TRUE;
            break;

            case KEY_DOWN:
              if ( ++Count_Add == Variable_Editing_Ptr->Var_Param_Ptr->Variable_Digits_Count )
  5c:	4918      	ldr	r1, [pc, #96]	(c0 <Keyboard_Ustaw_Wejsc+0xc0>)
  5e:	4b12      	ldr	r3, [pc, #72]	(a8 <Keyboard_Ustaw_Wejsc+0xa8>)
  60:	780a      	ldrb	r2, [r1, #0]
  62:	681b      	ldr	r3, [r3, #0]
  64:	3201      	adds	r2, #1
  66:	b2d2      	uxtb	r2, r2
  68:	700a      	strb	r2, [r1, #0]
  6a:	68db      	ldr	r3, [r3, #12]
  6c:	789b      	ldrb	r3, [r3, #2]
  6e:	4293      	cmp	r3, r2
  70:	d10a      	bne.n	88 <Keyboard_Ustaw_Wejsc+0x88>
C:\tien\PROJEKTY\procesory\STM\T108_V100a\sources/gui.c:3665
              {
                  Count_Add = 0;
  72:	2300      	movs	r3, #0
  74:	700b      	strb	r3, [r1, #0]
  76:	e007      	b.n	88 <Keyboard_Ustaw_Wejsc+0x88>
C:\tien\PROJEKTY\procesory\STM\T108_V100a\sources/gui.c:3671
              }
              Reload_Screen = TRUE;  
            break;
          
            case KEY_UP:
              Count_Add = 0;
  78:	4b11      	ldr	r3, [pc, #68]	(c0 <Keyboard_Ustaw_Wejsc+0xc0>)
  7a:	2200      	movs	r2, #0
  7c:	701a      	strb	r2, [r3, #0]
C:\tien\PROJEKTY\procesory\STM\T108_V100a\sources/gui.c:3672
              if ( Next_Editable_Variable() == FALSE )
  7e:	f7ff fffe 	bl	0 <Keyboard_Ustaw_Wejsc>
  82:	b908      	cbnz	r0, 6 <Keyboard_Ustaw_Wejsc+0x6>
C:\tien\PROJEKTY\procesory\STM\T108_V100a\sources/gui.c:3674
              {
                  First_Editable_Variable();
  84:	f7ff fffe 	bl	0 <Keyboard_Ustaw_Wejsc>
C:\tien\PROJEKTY\procesory\STM\T108_V100a\sources/gui.c:3676
              }
              Reload_Screen = TRUE;
  88:	4b0c      	ldr	r3, [pc, #48]	(bc <Keyboard_Ustaw_Wejsc+0xbc>)
  8a:	2201      	movs	r2, #1
  8c:	701a      	strb	r2, [r3, #0]
  8e:	e001      	b.n	94 <Keyboard_Ustaw_Wejsc+0x94>
C:\tien\PROJEKTY\procesory\STM\T108_V100a\sources/gui.c:3680
            break;

            default:
                Keyboard_Edit_Variable();
  90:	f7ff fffe 	bl	0 <Keyboard_Ustaw_Wejsc>
C:\tien\PROJEKTY\procesory\STM\T108_V100a\sources/gui.c:3683
            break;
        }
        Keyboard.Keyboard_Flag = 0;
  94:	4b03      	ldr	r3, [pc, #12]	(a4 <Keyboard_Ustaw_Wejsc+0xa4>)
  96:	2200      	movs	r2, #0
  98:	709a      	strb	r2, [r3, #2]
C:\tien\PROJEKTY\procesory\STM\T108_V100a\sources/gui.c:3686
    }

    if ( Keyboard.Keyboard_State == 0 )
  9a:	4a02      	ldr	r2, [pc, #8]	(a4 <Keyboard_Ustaw_Wejsc+0xa4>)
  9c:	7853      	ldrb	r3, [r2, #1]
  9e:	b903      	cbnz	r3, a2 <Keyboard_Ustaw_Wejsc+0xa2>
C:\tien\PROJEKTY\procesory\STM\T108_V100a\sources/gui.c:3688
    {
        Keyboard.Keyboard_Memory = 0;
  a0:	7013      	strb	r3, [r2, #0]
C:\tien\PROJEKTY\procesory\STM\T108_V100a\sources/gui.c:3690
    }
}
  a2:	bd10      	pop	{r4, pc}
	...
  ac:	00000011 	.word	0x00000011
	...
Disassembly of section .text.Keyboard_Listwy:

00000000 <Keyboard_Listwy>:
Keyboard_Listwy():
C:\tien\PROJEKTY\procesory\STM\T108_V100a\sources/gui.c:3365
* Input          : None
* Output         : None
* Return         : None
*******************************************************************************/
static void Keyboard_Listwy ( void )
{
   0:	b510      	push	{r4, lr}
C:\tien\PROJEKTY\procesory\STM\T108_V100a\sources/gui.c:3366
    if ( Keyboard.Keyboard_Memory != 0 && Keyboard.Keyboard_Flag == 1 )
   2:	4a28      	ldr	r2, [pc, #160]	(a4 <Keyboard_Listwy+0xa4>)
   4:	7813      	ldrb	r3, [r2, #0]
   6:	2b00      	cmp	r3, #0
   8:	d047      	beq.n	9a <Keyboard_Listwy+0x9a>
   a:	7894      	ldrb	r4, [r2, #2]
   c:	2c01      	cmp	r4, #1
   e:	d144      	bne.n	9a <Keyboard_Listwy+0x9a>
C:\tien\PROJEKTY\procesory\STM\T108_V100a\sources/gui.c:3368
    {
        switch ( Keyboard.Keyboard_Memory )
  10:	2b02      	cmp	r3, #2
  12:	d008      	beq.n	26 <Keyboard_Listwy+0x26>
  14:	d802      	bhi.n	1c <Keyboard_Listwy+0x1c>
  16:	2b01      	cmp	r3, #1
  18:	d13a      	bne.n	90 <Keyboard_Listwy+0x90>
  1a:	e015      	b.n	48 <Keyboard_Listwy+0x48>
  1c:	2b08      	cmp	r3, #8
  1e:	d02b      	beq.n	78 <Keyboard_Listwy+0x78>
  20:	2b20      	cmp	r3, #32
  22:	d135      	bne.n	90 <Keyboard_Listwy+0x90>
  24:	e01a      	b.n	5c <Keyboard_Listwy+0x5c>
C:\tien\PROJEKTY\procesory\STM\T108_V100a\sources/gui.c:3371
        {
            case KEY_ESCAPE:
                    Write_Settings();
  26:	f7ff fffe 	bl	0 <Keyboard_Listwy>
C:\tien\PROJEKTY\procesory\STM\T108_V100a\sources/gui.c:3372
                    Variable_Editing_Ptr = NULL;
  2a:	4b1f      	ldr	r3, [pc, #124]	(a8 <Keyboard_Listwy+0xa8>)
  2c:	2200      	movs	r2, #0
  2e:	601a      	str	r2, [r3, #0]
C:\tien\PROJEKTY\procesory\STM\T108_V100a\sources/gui.c:3373
                    Menu_Keys = Menu_Backup_Keys_Set;
  30:	481e      	ldr	r0, [pc, #120]	(ac <Keyboard_Listwy+0xac>)
  32:	3203      	adds	r2, #3
  34:	491e      	ldr	r1, [pc, #120]	(b0 <Keyboard_Listwy+0xb0>)
  36:	f7ff fffe 	bl	0 <memcpy>
C:\tien\PROJEKTY\procesory\STM\T108_V100a\sources/gui.c:3374
                    Screen_Number = Screen_Before_Password;;
  3a:	4b1e      	ldr	r3, [pc, #120]	(b4 <Keyboard_Listwy+0xb4>)
  3c:	781a      	ldrb	r2, [r3, #0]
  3e:	4b1e      	ldr	r3, [pc, #120]	(b8 <Keyboard_Listwy+0xb8>)
  40:	701a      	strb	r2, [r3, #0]
C:\tien\PROJEKTY\procesory\STM\T108_V100a\sources/gui.c:3375
                    Reload_Screen = TRUE;
  42:	4b1e      	ldr	r3, [pc, #120]	(bc <Keyboard_Listwy+0xbc>)
  44:	701c      	strb	r4, [r3, #0]
  46:	e025      	b.n	94 <Keyboard_Listwy+0x94>
C:\tien\PROJEKTY\procesory\STM\T108_V100a\sources/gui.c:3380
            
            break;

            case KEY_ENTER:
                   if ( ++Screen_Number > LISTWY2 )
  48:	4a1b      	ldr	r2, [pc, #108]	(b8 <Keyboard_Listwy+0xb8>)
  4a:	7813      	ldrb	r3, [r2, #0]
  4c:	3301      	adds	r3, #1
  4e:	b2db      	uxtb	r3, r3
  50:	2b17      	cmp	r3, #23
  52:	7013      	strb	r3, [r2, #0]
  54:	d916      	bls.n	84 <Keyboard_Listwy+0x84>
C:\tien\PROJEKTY\procesory\STM\T108_V100a\sources/gui.c:3382
                   {
                       Screen_Number = LISTWY1;
  56:	2316      	movs	r3, #22
  58:	7013      	strb	r3, [r2, #0]
  5a:	e013      	b.n	84 <Keyboard_Listwy+0x84>
C:\tien\PROJEKTY\procesory\STM\T108_V100a\sources/gui.c:3389
                   First_Editable_Variable();
                   Reload_Screen = TRUE;
            break;

            case KEY_DOWN:
              if ( ++Count_Add == Variable_Editing_Ptr->Var_Param_Ptr->Variable_Digits_Count )
  5c:	4918      	ldr	r1, [pc, #96]	(c0 <Keyboard_Listwy+0xc0>)
  5e:	4b12      	ldr	r3, [pc, #72]	(a8 <Keyboard_Listwy+0xa8>)
  60:	780a      	ldrb	r2, [r1, #0]
  62:	681b      	ldr	r3, [r3, #0]
  64:	3201      	adds	r2, #1
  66:	b2d2      	uxtb	r2, r2
  68:	700a      	strb	r2, [r1, #0]
  6a:	68db      	ldr	r3, [r3, #12]
  6c:	789b      	ldrb	r3, [r3, #2]
  6e:	4293      	cmp	r3, r2
  70:	d10a      	bne.n	88 <Keyboard_Listwy+0x88>
C:\tien\PROJEKTY\procesory\STM\T108_V100a\sources/gui.c:3391
              {
                  Count_Add = 0;
  72:	2300      	movs	r3, #0
  74:	700b      	strb	r3, [r1, #0]
  76:	e007      	b.n	88 <Keyboard_Listwy+0x88>
C:\tien\PROJEKTY\procesory\STM\T108_V100a\sources/gui.c:3397
              }
              Reload_Screen = TRUE;  
            break;
          
            case KEY_UP:
              Count_Add = 0;
  78:	4b11      	ldr	r3, [pc, #68]	(c0 <Keyboard_Listwy+0xc0>)
  7a:	2200      	movs	r2, #0
  7c:	701a      	strb	r2, [r3, #0]
C:\tien\PROJEKTY\procesory\STM\T108_V100a\sources/gui.c:3398
              if ( Next_Editable_Variable() == FALSE )
  7e:	f7ff fffe 	bl	0 <Keyboard_Listwy>
  82:	b908      	cbnz	r0, 6 <Keyboard_Listwy+0x6>
C:\tien\PROJEKTY\procesory\STM\T108_V100a\sources/gui.c:3400
              {
                  First_Editable_Variable();
  84:	f7ff fffe 	bl	0 <Keyboard_Listwy>
C:\tien\PROJEKTY\procesory\STM\T108_V100a\sources/gui.c:3402
              }
              Reload_Screen = TRUE;
  88:	4b0c      	ldr	r3, [pc, #48]	(bc <Keyboard_Listwy+0xbc>)
  8a:	2201      	movs	r2, #1
  8c:	701a      	strb	r2, [r3, #0]
  8e:	e001      	b.n	94 <Keyboard_Listwy+0x94>
C:\tien\PROJEKTY\procesory\STM\T108_V100a\sources/gui.c:3406
            break;

            default:
                Keyboard_Edit_Variable();
  90:	f7ff fffe 	bl	0 <Keyboard_Listwy>
C:\tien\PROJEKTY\procesory\STM\T108_V100a\sources/gui.c:3409
            break;
        }
        Keyboard.Keyboard_Flag = 0;
  94:	4b03      	ldr	r3, [pc, #12]	(a4 <Keyboard_Listwy+0xa4>)
  96:	2200      	movs	r2, #0
  98:	709a      	strb	r2, [r3, #2]
C:\tien\PROJEKTY\procesory\STM\T108_V100a\sources/gui.c:3412
    }

    if ( Keyboard.Keyboard_State == 0 )
  9a:	4a02      	ldr	r2, [pc, #8]	(a4 <Keyboard_Listwy+0xa4>)
  9c:	7853      	ldrb	r3, [r2, #1]
  9e:	b903      	cbnz	r3, a2 <Keyboard_Listwy+0xa2>
C:\tien\PROJEKTY\procesory\STM\T108_V100a\sources/gui.c:3414
    {
        Keyboard.Keyboard_Memory = 0;
  a0:	7013      	strb	r3, [r2, #0]
C:\tien\PROJEKTY\procesory\STM\T108_V100a\sources/gui.c:3416
    }
}
  a2:	bd10      	pop	{r4, pc}
	...
  ac:	00000011 	.word	0x00000011
	...
Disassembly of section .text.Keyboard_Prad:

00000000 <Keyboard_Prad>:
Keyboard_Prad():
C:\tien\PROJEKTY\procesory\STM\T108_V100a\sources/gui.c:3305
* Input          : None
* Output         : None
* Return         : None
*******************************************************************************/
static void Keyboard_Prad ( void )
{
   0:	b510      	push	{r4, lr}
C:\tien\PROJEKTY\procesory\STM\T108_V100a\sources/gui.c:3306
    if ( Keyboard.Keyboard_Memory != 0 && Keyboard.Keyboard_Flag == 1 )
   2:	4a28      	ldr	r2, [pc, #160]	(a4 <Keyboard_Prad+0xa4>)
   4:	7813      	ldrb	r3, [r2, #0]
   6:	2b00      	cmp	r3, #0
   8:	d047      	beq.n	9a <Keyboard_Prad+0x9a>
   a:	7894      	ldrb	r4, [r2, #2]
   c:	2c01      	cmp	r4, #1
   e:	d144      	bne.n	9a <Keyboard_Prad+0x9a>
C:\tien\PROJEKTY\procesory\STM\T108_V100a\sources/gui.c:3308
    {
        switch ( Keyboard.Keyboard_Memory )
  10:	2b02      	cmp	r3, #2
  12:	d008      	beq.n	26 <Keyboard_Prad+0x26>
  14:	d802      	bhi.n	1c <Keyboard_Prad+0x1c>
  16:	2b01      	cmp	r3, #1
  18:	d13a      	bne.n	90 <Keyboard_Prad+0x90>
  1a:	e015      	b.n	48 <Keyboard_Prad+0x48>
  1c:	2b08      	cmp	r3, #8
  1e:	d02b      	beq.n	78 <Keyboard_Prad+0x78>
  20:	2b20      	cmp	r3, #32
  22:	d135      	bne.n	90 <Keyboard_Prad+0x90>
  24:	e01a      	b.n	5c <Keyboard_Prad+0x5c>
C:\tien\PROJEKTY\procesory\STM\T108_V100a\sources/gui.c:3311
        {
            case KEY_ESCAPE:
                    Write_Settings();
  26:	f7ff fffe 	bl	0 <Keyboard_Prad>
C:\tien\PROJEKTY\procesory\STM\T108_V100a\sources/gui.c:3312
                    Variable_Editing_Ptr = NULL;
  2a:	4b1f      	ldr	r3, [pc, #124]	(a8 <Keyboard_Prad+0xa8>)
  2c:	2200      	movs	r2, #0
  2e:	601a      	str	r2, [r3, #0]
C:\tien\PROJEKTY\procesory\STM\T108_V100a\sources/gui.c:3313
                    Menu_Keys = Menu_Backup_Keys_Set;
  30:	481e      	ldr	r0, [pc, #120]	(ac <Keyboard_Prad+0xac>)
  32:	3203      	adds	r2, #3
  34:	491e      	ldr	r1, [pc, #120]	(b0 <Keyboard_Prad+0xb0>)
  36:	f7ff fffe 	bl	0 <memcpy>
C:\tien\PROJEKTY\procesory\STM\T108_V100a\sources/gui.c:3314
                    Screen_Number = Screen_Before_Password;;
  3a:	4b1e      	ldr	r3, [pc, #120]	(b4 <Keyboard_Prad+0xb4>)
  3c:	781a      	ldrb	r2, [r3, #0]
  3e:	4b1e      	ldr	r3, [pc, #120]	(b8 <Keyboard_Prad+0xb8>)
  40:	701a      	strb	r2, [r3, #0]
C:\tien\PROJEKTY\procesory\STM\T108_V100a\sources/gui.c:3315
                    Reload_Screen = TRUE;
  42:	4b1e      	ldr	r3, [pc, #120]	(bc <Keyboard_Prad+0xbc>)
  44:	701c      	strb	r4, [r3, #0]
  46:	e025      	b.n	94 <Keyboard_Prad+0x94>
C:\tien\PROJEKTY\procesory\STM\T108_V100a\sources/gui.c:3319
            break;

            case KEY_ENTER:
                   if ( ++Screen_Number > PRAD1 )
  48:	4a1b      	ldr	r2, [pc, #108]	(b8 <Keyboard_Prad+0xb8>)
  4a:	7813      	ldrb	r3, [r2, #0]
  4c:	3301      	adds	r3, #1
  4e:	b2db      	uxtb	r3, r3
  50:	2b15      	cmp	r3, #21
  52:	7013      	strb	r3, [r2, #0]
  54:	d916      	bls.n	84 <Keyboard_Prad+0x84>
C:\tien\PROJEKTY\procesory\STM\T108_V100a\sources/gui.c:3321
                   {
                       Screen_Number = PRAD1;
  56:	2315      	movs	r3, #21
  58:	7013      	strb	r3, [r2, #0]
  5a:	e013      	b.n	84 <Keyboard_Prad+0x84>
C:\tien\PROJEKTY\procesory\STM\T108_V100a\sources/gui.c:3328
                   First_Editable_Variable();
                   Reload_Screen = TRUE;
            break;

            case KEY_DOWN:
              if ( ++Count_Add == Variable_Editing_Ptr->Var_Param_Ptr->Variable_Digits_Count )
  5c:	4918      	ldr	r1, [pc, #96]	(c0 <Keyboard_Prad+0xc0>)
  5e:	4b12      	ldr	r3, [pc, #72]	(a8 <Keyboard_Prad+0xa8>)
  60:	780a      	ldrb	r2, [r1, #0]
  62:	681b      	ldr	r3, [r3, #0]
  64:	3201      	adds	r2, #1
  66:	b2d2      	uxtb	r2, r2
  68:	700a      	strb	r2, [r1, #0]
  6a:	68db      	ldr	r3, [r3, #12]
  6c:	789b      	ldrb	r3, [r3, #2]
  6e:	4293      	cmp	r3, r2
  70:	d10a      	bne.n	88 <Keyboard_Prad+0x88>
C:\tien\PROJEKTY\procesory\STM\T108_V100a\sources/gui.c:3330
              {
                  Count_Add = 0;
  72:	2300      	movs	r3, #0
  74:	700b      	strb	r3, [r1, #0]
  76:	e007      	b.n	88 <Keyboard_Prad+0x88>
C:\tien\PROJEKTY\procesory\STM\T108_V100a\sources/gui.c:3336
              }
              Reload_Screen = TRUE;  
            break;
          
            case KEY_UP:
              Count_Add = 0;
  78:	4b11      	ldr	r3, [pc, #68]	(c0 <Keyboard_Prad+0xc0>)
  7a:	2200      	movs	r2, #0
  7c:	701a      	strb	r2, [r3, #0]
C:\tien\PROJEKTY\procesory\STM\T108_V100a\sources/gui.c:3337
              if ( Next_Editable_Variable() == FALSE )
  7e:	f7ff fffe 	bl	0 <Keyboard_Prad>
  82:	b908      	cbnz	r0, 6 <Keyboard_Prad+0x6>
C:\tien\PROJEKTY\procesory\STM\T108_V100a\sources/gui.c:3339
              {
                  First_Editable_Variable();
  84:	f7ff fffe 	bl	0 <Keyboard_Prad>
C:\tien\PROJEKTY\procesory\STM\T108_V100a\sources/gui.c:3341
              }
              Reload_Screen = TRUE;
  88:	4b0c      	ldr	r3, [pc, #48]	(bc <Keyboard_Prad+0xbc>)
  8a:	2201      	movs	r2, #1
  8c:	701a      	strb	r2, [r3, #0]
  8e:	e001      	b.n	94 <Keyboard_Prad+0x94>
C:\tien\PROJEKTY\procesory\STM\T108_V100a\sources/gui.c:3345
            break;

            default:
                Keyboard_Edit_Variable();
  90:	f7ff fffe 	bl	0 <Keyboard_Prad>
C:\tien\PROJEKTY\procesory\STM\T108_V100a\sources/gui.c:3348
            break;
        }
        Keyboard.Keyboard_Flag = 0;
  94:	4b03      	ldr	r3, [pc, #12]	(a4 <Keyboard_Prad+0xa4>)
  96:	2200      	movs	r2, #0
  98:	709a      	strb	r2, [r3, #2]
C:\tien\PROJEKTY\procesory\STM\T108_V100a\sources/gui.c:3351
    }

    if ( Keyboard.Keyboard_State == 0 )
  9a:	4a02      	ldr	r2, [pc, #8]	(a4 <Keyboard_Prad+0xa4>)
  9c:	7853      	ldrb	r3, [r2, #1]
  9e:	b903      	cbnz	r3, a2 <Keyboard_Prad+0xa2>
C:\tien\PROJEKTY\procesory\STM\T108_V100a\sources/gui.c:3353
    {
        Keyboard.Keyboard_Memory = 0;
  a0:	7013      	strb	r3, [r2, #0]
C:\tien\PROJEKTY\procesory\STM\T108_V100a\sources/gui.c:3355
    }
}
  a2:	bd10      	pop	{r4, pc}
	...
  ac:	00000011 	.word	0x00000011
	...
Disassembly of section .text.Keyboard_Brama_Motor:

00000000 <Keyboard_Brama_Motor>:
Keyboard_Brama_Motor():
C:\tien\PROJEKTY\procesory\STM\T108_V100a\sources/gui.c:3238
* Input          : None
* Output         : None
* Return         : None
*******************************************************************************/
static void Keyboard_Brama_Motor ( void )
{
   0:	b510      	push	{r4, lr}
C:\tien\PROJEKTY\procesory\STM\T108_V100a\sources/gui.c:3239
    if ( Keyboard.Keyboard_Memory != 0 && Keyboard.Keyboard_Flag == 1 )
   2:	4a2e      	ldr	r2, [pc, #184]	(bc <Keyboard_Brama_Motor+0xbc>)
   4:	7813      	ldrb	r3, [r2, #0]
   6:	2b00      	cmp	r3, #0
   8:	d053      	beq.n	b2 <Keyboard_Brama_Motor+0xb2>
   a:	7894      	ldrb	r4, [r2, #2]
   c:	2c01      	cmp	r4, #1
   e:	d150      	bne.n	b2 <Keyboard_Brama_Motor+0xb2>
C:\tien\PROJEKTY\procesory\STM\T108_V100a\sources/gui.c:3241
    {
        switch ( Keyboard.Keyboard_Memory )
  10:	2b02      	cmp	r3, #2
  12:	d008      	beq.n	26 <Keyboard_Brama_Motor+0x26>
  14:	d802      	bhi.n	1c <Keyboard_Brama_Motor+0x1c>
  16:	2b01      	cmp	r3, #1
  18:	d146      	bne.n	a8 <Keyboard_Brama_Motor+0xa8>
  1a:	e020      	b.n	5e <Keyboard_Brama_Motor+0x5e>
  1c:	2b08      	cmp	r3, #8
  1e:	d03b      	beq.n	98 <Keyboard_Brama_Motor+0x98>
  20:	2b20      	cmp	r3, #32
  22:	d141      	bne.n	a8 <Keyboard_Brama_Motor+0xa8>
  24:	e02a      	b.n	7c <Keyboard_Brama_Motor+0x7c>
C:\tien\PROJEKTY\procesory\STM\T108_V100a\sources/gui.c:3244
        {
            case KEY_ESCAPE:
                    Write_Settings();
  26:	f7ff fffe 	bl	0 <Keyboard_Brama_Motor>
C:\tien\PROJEKTY\procesory\STM\T108_V100a\sources/gui.c:3245
                    Variable_Editing_Ptr = NULL;
  2a:	4b25      	ldr	r3, [pc, #148]	(c0 <Keyboard_Brama_Motor+0xc0>)
  2c:	2200      	movs	r2, #0
  2e:	601a      	str	r2, [r3, #0]
C:\tien\PROJEKTY\procesory\STM\T108_V100a\sources/gui.c:3246
                    Menu_Keys = Menu_Backup_Keys_Set;
  30:	4824      	ldr	r0, [pc, #144]	(c4 <Keyboard_Brama_Motor+0xc4>)
  32:	3203      	adds	r2, #3
  34:	4924      	ldr	r1, [pc, #144]	(c8 <Keyboard_Brama_Motor+0xc8>)
  36:	f7ff fffe 	bl	0 <memcpy>
C:\tien\PROJEKTY\procesory\STM\T108_V100a\sources/gui.c:3247
                    Screen_Number = Screen_Before_Password;;
  3a:	4b24      	ldr	r3, [pc, #144]	(cc <Keyboard_Brama_Motor+0xcc>)
  3c:	781a      	ldrb	r2, [r3, #0]
  3e:	4b24      	ldr	r3, [pc, #144]	(d0 <Keyboard_Brama_Motor+0xd0>)
  40:	701a      	strb	r2, [r3, #0]
C:\tien\PROJEKTY\procesory\STM\T108_V100a\sources/gui.c:3248
                    Reload_Screen = TRUE;
  42:	4b24      	ldr	r3, [pc, #144]	(d4 <Keyboard_Brama_Motor+0xd4>)
  44:	4a24      	ldr	r2, [pc, #144]	(d8 <Keyboard_Brama_Motor+0xd8>)
  46:	701c      	strb	r4, [r3, #0]
C:\tien\PROJEKTY\procesory\STM\T108_V100a\sources/gui.c:3250
            
                    if ( Controlling_Variables.Ctrl_Vars.Motor_Type == 0 ) //Freqw_Inverter
  48:	4b24      	ldr	r3, [pc, #144]	(dc <Keyboard_Brama_Motor+0xdc>)
  4a:	f893 302e 	ldrb.w	r3, [r3, #46]
  4e:	b90b      	cbnz	r3, 54 <Keyboard_Brama_Motor+0x54>
C:\tien\PROJEKTY\procesory\STM\T108_V100a\sources/gui.c:3251
                        Machine_State = INVERTER_PROG;
  50:	3329      	adds	r3, #41
  52:	e000      	b.n	56 <Keyboard_Brama_Motor+0x56>
C:\tien\PROJEKTY\procesory\STM\T108_V100a\sources/gui.c:3253
                    else // 24V sliding gate
                        Machine_State = WG_POWER_ON;
  54:	2311      	movs	r3, #17
  56:	7013      	strb	r3, [r2, #0]
C:\tien\PROJEKTY\procesory\STM\T108_V100a\sources/gui.c:3255
                    
                     WG_TIMER_FLAG = FALSE;
  58:	2200      	movs	r2, #0
  5a:	4b21      	ldr	r3, [pc, #132]	(e0 <Keyboard_Brama_Motor+0xe0>)
  5c:	e00c      	b.n	78 <Keyboard_Brama_Motor+0x78>
C:\tien\PROJEKTY\procesory\STM\T108_V100a\sources/gui.c:3259
            break;

            case KEY_ENTER:
                   if ( ++Screen_Number > BRAMA_MOTOR1 )
  5e:	4a1c      	ldr	r2, [pc, #112]	(d0 <Keyboard_Brama_Motor+0xd0>)
  60:	7813      	ldrb	r3, [r2, #0]
  62:	3301      	adds	r3, #1
  64:	b2db      	uxtb	r3, r3
  66:	2b14      	cmp	r3, #20
  68:	7013      	strb	r3, [r2, #0]
  6a:	d901      	bls.n	70 <Keyboard_Brama_Motor+0x70>
C:\tien\PROJEKTY\procesory\STM\T108_V100a\sources/gui.c:3261
                   {
                       Screen_Number = BRAMA_MOTOR1;
  6c:	2314      	movs	r3, #20
  6e:	7013      	strb	r3, [r2, #0]
C:\tien\PROJEKTY\procesory\STM\T108_V100a\sources/gui.c:3263
                   }
                   First_Editable_Variable();
  70:	f7ff fffe 	bl	0 <Keyboard_Brama_Motor>
C:\tien\PROJEKTY\procesory\STM\T108_V100a\sources/gui.c:3264
                   Reload_Screen = TRUE;
  74:	4b17      	ldr	r3, [pc, #92]	(d4 <Keyboard_Brama_Motor+0xd4>)
  76:	2201      	movs	r2, #1
  78:	701a      	strb	r2, [r3, #0]
  7a:	e017      	b.n	ac <Keyboard_Brama_Motor+0xac>
C:\tien\PROJEKTY\procesory\STM\T108_V100a\sources/gui.c:3268
            break;

            case KEY_DOWN:
              if ( ++Count_Add == Variable_Editing_Ptr->Var_Param_Ptr->Variable_Digits_Count )
  7c:	4919      	ldr	r1, [pc, #100]	(e4 <Keyboard_Brama_Motor+0xe4>)
  7e:	4b10      	ldr	r3, [pc, #64]	(c0 <Keyboard_Brama_Motor+0xc0>)
  80:	780a      	ldrb	r2, [r1, #0]
  82:	681b      	ldr	r3, [r3, #0]
  84:	3201      	adds	r2, #1
  86:	b2d2      	uxtb	r2, r2
  88:	700a      	strb	r2, [r1, #0]
  8a:	68db      	ldr	r3, [r3, #12]
  8c:	789b      	ldrb	r3, [r3, #2]
  8e:	4293      	cmp	r3, r2
  90:	d1f0      	bne.n	74 <Keyboard_Brama_Motor+0x74>
C:\tien\PROJEKTY\procesory\STM\T108_V100a\sources/gui.c:3270
              {
                  Count_Add = 0;
  92:	2300      	movs	r3, #0
  94:	700b      	strb	r3, [r1, #0]
  96:	e7ed      	b.n	74 <Keyboard_Brama_Motor+0x74>
C:\tien\PROJEKTY\procesory\STM\T108_V100a\sources/gui.c:3276
              }
              Reload_Screen = TRUE;  
            break;
          
            case KEY_UP:
              Count_Add = 0;
  98:	4b12      	ldr	r3, [pc, #72]	(e4 <Keyboard_Brama_Motor+0xe4>)
  9a:	2200      	movs	r2, #0
  9c:	701a      	strb	r2, [r3, #0]
C:\tien\PROJEKTY\procesory\STM\T108_V100a\sources/gui.c:3277
              if ( Next_Editable_Variable() == FALSE )
  9e:	f7ff fffe 	bl	0 <Keyboard_Brama_Motor>
  a2:	2800      	cmp	r0, #0
  a4:	d1e6      	bne.n	74 <Keyboard_Brama_Motor+0x74>
  a6:	e7e3      	b.n	70 <Keyboard_Brama_Motor+0x70>
C:\tien\PROJEKTY\procesory\STM\T108_V100a\sources/gui.c:3285
              }
              Reload_Screen = TRUE;
            break;

            default:
                Keyboard_Edit_Variable();
  a8:	f7ff fffe 	bl	0 <Keyboard_Brama_Motor>
C:\tien\PROJEKTY\procesory\STM\T108_V100a\sources/gui.c:3288
            break;
        }
        Keyboard.Keyboard_Flag = 0;
  ac:	4b03      	ldr	r3, [pc, #12]	(bc <Keyboard_Brama_Motor+0xbc>)
  ae:	2200      	movs	r2, #0
  b0:	709a      	strb	r2, [r3, #2]
C:\tien\PROJEKTY\procesory\STM\T108_V100a\sources/gui.c:3291
    }

    if ( Keyboard.Keyboard_State == 0 )
  b2:	4a02      	ldr	r2, [pc, #8]	(bc <Keyboard_Brama_Motor+0xbc>)
  b4:	7853      	ldrb	r3, [r2, #1]
  b6:	b903      	cbnz	r3, ba <Keyboard_Brama_Motor+0xba>
C:\tien\PROJEKTY\procesory\STM\T108_V100a\sources/gui.c:3293
    {
        Keyboard.Keyboard_Memory = 0;
  b8:	7013      	strb	r3, [r2, #0]
C:\tien\PROJEKTY\procesory\STM\T108_V100a\sources/gui.c:3295
    }
}
  ba:	bd10      	pop	{r4, pc}
	...
  c4:	00000011 	.word	0x00000011
	...
Disassembly of section .text.Keyboard_Haslo:

00000000 <Keyboard_Haslo>:
Keyboard_Haslo():
C:\tien\PROJEKTY\procesory\STM\T108_V100a\sources/gui.c:3113
* Input          : None
* Output         : None
* Return         : None
*******************************************************************************/
static void Keyboard_Haslo ( void )
{
   0:	b510      	push	{r4, lr}
C:\tien\PROJEKTY\procesory\STM\T108_V100a\sources/gui.c:3114
    if ( Keyboard.Keyboard_Memory != 0 && Keyboard.Keyboard_Flag == 1 )
   2:	4a37      	ldr	r2, [pc, #220]	(e0 <Keyboard_Haslo+0xe0>)
   4:	7813      	ldrb	r3, [r2, #0]
   6:	2b00      	cmp	r3, #0
   8:	d065      	beq.n	d6 <Keyboard_Haslo+0xd6>
   a:	7894      	ldrb	r4, [r2, #2]
   c:	2c01      	cmp	r4, #1
   e:	d162      	bne.n	d6 <Keyboard_Haslo+0xd6>
C:\tien\PROJEKTY\procesory\STM\T108_V100a\sources/gui.c:3116
    {
        switch ( Keyboard.Keyboard_Memory )
  10:	2b02      	cmp	r3, #2
  12:	d008      	beq.n	26 <Keyboard_Haslo+0x26>
  14:	d802      	bhi.n	1c <Keyboard_Haslo+0x1c>
  16:	2b01      	cmp	r3, #1
  18:	d158      	bne.n	cc <Keyboard_Haslo+0xcc>
  1a:	e013      	b.n	44 <Keyboard_Haslo+0x44>
  1c:	2b08      	cmp	r3, #8
  1e:	d049      	beq.n	b4 <Keyboard_Haslo+0xb4>
  20:	2b20      	cmp	r3, #32
  22:	d153      	bne.n	cc <Keyboard_Haslo+0xcc>
  24:	e038      	b.n	98 <Keyboard_Haslo+0x98>
C:\tien\PROJEKTY\procesory\STM\T108_V100a\sources/gui.c:3119
        {
            case KEY_ESCAPE:
                    Variable_Editing_Ptr = NULL;
  26:	4b2f      	ldr	r3, [pc, #188]	(e4 <Keyboard_Haslo+0xe4>)
  28:	2200      	movs	r2, #0
  2a:	601a      	str	r2, [r3, #0]
C:\tien\PROJEKTY\procesory\STM\T108_V100a\sources/gui.c:3120
                    Menu_Keys = Menu_Backup_Keys_Set;
  2c:	482e      	ldr	r0, [pc, #184]	(e8 <Keyboard_Haslo+0xe8>)
  2e:	3203      	adds	r2, #3
  30:	492e      	ldr	r1, [pc, #184]	(ec <Keyboard_Haslo+0xec>)
  32:	f7ff fffe 	bl	0 <memcpy>
C:\tien\PROJEKTY\procesory\STM\T108_V100a\sources/gui.c:3121
                    Screen_Number = Screen_Before_Password;
  36:	4b2e      	ldr	r3, [pc, #184]	(f0 <Keyboard_Haslo+0xf0>)
  38:	781a      	ldrb	r2, [r3, #0]
  3a:	4b2e      	ldr	r3, [pc, #184]	(f4 <Keyboard_Haslo+0xf4>)
  3c:	701a      	strb	r2, [r3, #0]
C:\tien\PROJEKTY\procesory\STM\T108_V100a\sources/gui.c:3122
                    Reload_Screen = TRUE;
  3e:	4b2e      	ldr	r3, [pc, #184]	(f8 <Keyboard_Haslo+0xf8>)
  40:	701c      	strb	r4, [r3, #0]
  42:	e045      	b.n	d0 <Keyboard_Haslo+0xd0>
C:\tien\PROJEKTY\procesory\STM\T108_V100a\sources/gui.c:3126
            break;

            case KEY_ENTER:
                   if ( Service_Variables.Serv_Vars.Haslo_Dostepu == Password_Set || Password_Set == SERVICE_PASSWORD )
  44:	492d      	ldr	r1, [pc, #180]	(fc <Keyboard_Haslo+0xfc>)
  46:	4b2e      	ldr	r3, [pc, #184]	(100 <Keyboard_Haslo+0x100>)
  48:	6a0a      	ldr	r2, [r1, #32]
  4a:	681b      	ldr	r3, [r3, #0]
  4c:	4293      	cmp	r3, r2
  4e:	d002      	beq.n	56 <Keyboard_Haslo+0x56>
  50:	f5b2 6f72 	cmp.w	r2, #3872	; 0xf20
  54:	d10e      	bne.n	74 <Keyboard_Haslo+0x74>
C:\tien\PROJEKTY\procesory\STM\T108_V100a\sources/gui.c:3128
                   {
                        Password_Set = 0;
  56:	4b29      	ldr	r3, [pc, #164]	(fc <Keyboard_Haslo+0xfc>)
  58:	2200      	movs	r2, #0
  5a:	621a      	str	r2, [r3, #32]
C:\tien\PROJEKTY\procesory\STM\T108_V100a\sources/gui.c:3129
                        Count_Add = 0;
  5c:	4b29      	ldr	r3, [pc, #164]	(104 <Keyboard_Haslo+0x104>)
  5e:	701a      	strb	r2, [r3, #0]
C:\tien\PROJEKTY\procesory\STM\T108_V100a\sources/gui.c:3130
                        Service_Variables_Set.Serv_Vars.Blok_Dostep_Pozostalo = Service_Variables_Set.Serv_Vars.Ilosc_Prob_Dostepu;                  
  60:	4a29      	ldr	r2, [pc, #164]	(108 <Keyboard_Haslo+0x108>)
  62:	7a53      	ldrb	r3, [r2, #9]
  64:	7493      	strb	r3, [r2, #18]
C:\tien\PROJEKTY\procesory\STM\T108_V100a\sources/gui.c:3131
                        Screen_Number = Screen_After_Password;
  66:	4b29      	ldr	r3, [pc, #164]	(10c <Keyboard_Haslo+0x10c>)
  68:	781a      	ldrb	r2, [r3, #0]
  6a:	4b22      	ldr	r3, [pc, #136]	(f4 <Keyboard_Haslo+0xf4>)
  6c:	701a      	strb	r2, [r3, #0]
C:\tien\PROJEKTY\procesory\STM\T108_V100a\sources/gui.c:3132
                        First_Editable_Variable();                        
  6e:	f7ff fffe 	bl	0 <Keyboard_Haslo>
  72:	e00e      	b.n	92 <Keyboard_Haslo+0x92>
C:\tien\PROJEKTY\procesory\STM\T108_V100a\sources/gui.c:3137
                   }
                   else
                   {
                        Password_Set = 0;
                        Count_Add = 0; 
  74:	4b23      	ldr	r3, [pc, #140]	(104 <Keyboard_Haslo+0x104>)
C:\tien\PROJEKTY\procesory\STM\T108_V100a\sources/gui.c:3136
                        Screen_Number = Screen_After_Password;
                        First_Editable_Variable();                        
                   }
                   else
                   {
                        Password_Set = 0;
  76:	2200      	movs	r2, #0
C:\tien\PROJEKTY\procesory\STM\T108_V100a\sources/gui.c:3137
                        Count_Add = 0; 
  78:	701a      	strb	r2, [r3, #0]
C:\tien\PROJEKTY\procesory\STM\T108_V100a\sources/gui.c:3136
                        Screen_Number = Screen_After_Password;
                        First_Editable_Variable();                        
                   }
                   else
                   {
                        Password_Set = 0;
  7a:	620a      	str	r2, [r1, #32]
C:\tien\PROJEKTY\procesory\STM\T108_V100a\sources/gui.c:3139
                        Count_Add = 0; 
               
                        if ( --Service_Variables_Set.Serv_Vars.Blok_Dostep_Pozostalo == 0 )
  7c:	4a22      	ldr	r2, [pc, #136]	(108 <Keyboard_Haslo+0x108>)
  7e:	7c93      	ldrb	r3, [r2, #18]
  80:	3b01      	subs	r3, #1
  82:	b2db      	uxtb	r3, r3
  84:	7493      	strb	r3, [r2, #18]
  86:	b923      	cbnz	r3, 92 <Keyboard_Haslo+0x92>
C:\tien\PROJEKTY\procesory\STM\T108_V100a\sources/gui.c:3141
                        {
                            Service_Variables_Set.Serv_Vars.Marker_Blokady = STER_BLOKADA_CALKOWITA;
  88:	3302      	adds	r3, #2
  8a:	7453      	strb	r3, [r2, #17]
C:\tien\PROJEKTY\procesory\STM\T108_V100a\sources/gui.c:3142
                            Screen_Number = BLOK_CALKOWITA;
  8c:	4b19      	ldr	r3, [pc, #100]	(f4 <Keyboard_Haslo+0xf4>)
  8e:	2232      	movs	r2, #50
  90:	701a      	strb	r2, [r3, #0]
C:\tien\PROJEKTY\procesory\STM\T108_V100a\sources/gui.c:3145
                        }
                   }
                   Write_Settings();   
  92:	f7ff fffe 	bl	0 <Keyboard_Haslo>
  96:	e015      	b.n	c4 <Keyboard_Haslo+0xc4>
C:\tien\PROJEKTY\procesory\STM\T108_V100a\sources/gui.c:3150
                   Reload_Screen = TRUE;
            break;

            case KEY_DOWN:
              if ( ++Count_Add == Variable_Editing_Ptr->Var_Param_Ptr->Variable_Digits_Count )
  98:	491a      	ldr	r1, [pc, #104]	(104 <Keyboard_Haslo+0x104>)
  9a:	4b12      	ldr	r3, [pc, #72]	(e4 <Keyboard_Haslo+0xe4>)
  9c:	780a      	ldrb	r2, [r1, #0]
  9e:	681b      	ldr	r3, [r3, #0]
  a0:	3201      	adds	r2, #1
  a2:	b2d2      	uxtb	r2, r2
  a4:	700a      	strb	r2, [r1, #0]
  a6:	68db      	ldr	r3, [r3, #12]
  a8:	789b      	ldrb	r3, [r3, #2]
  aa:	4293      	cmp	r3, r2
  ac:	d10a      	bne.n	c4 <Keyboard_Haslo+0xc4>
C:\tien\PROJEKTY\procesory\STM\T108_V100a\sources/gui.c:3152
              {
                  Count_Add = 0;
  ae:	2300      	movs	r3, #0
  b0:	700b      	strb	r3, [r1, #0]
  b2:	e007      	b.n	c4 <Keyboard_Haslo+0xc4>
C:\tien\PROJEKTY\procesory\STM\T108_V100a\sources/gui.c:3158
              }
              Reload_Screen = TRUE;  
            break;
          
            case KEY_UP:
              Count_Add = 0;
  b4:	4b13      	ldr	r3, [pc, #76]	(104 <Keyboard_Haslo+0x104>)
  b6:	2200      	movs	r2, #0
  b8:	701a      	strb	r2, [r3, #0]
C:\tien\PROJEKTY\procesory\STM\T108_V100a\sources/gui.c:3159
              if ( Next_Editable_Variable() == FALSE )
  ba:	f7ff fffe 	bl	0 <Keyboard_Haslo>
  be:	b908      	cbnz	r0, 6 <Keyboard_Haslo+0x6>
C:\tien\PROJEKTY\procesory\STM\T108_V100a\sources/gui.c:3161
              {
                  First_Editable_Variable();
  c0:	f7ff fffe 	bl	0 <Keyboard_Haslo>
C:\tien\PROJEKTY\procesory\STM\T108_V100a\sources/gui.c:3163
              }
              Reload_Screen = TRUE;
  c4:	4b0c      	ldr	r3, [pc, #48]	(f8 <Keyboard_Haslo+0xf8>)
  c6:	2201      	movs	r2, #1
  c8:	701a      	strb	r2, [r3, #0]
  ca:	e001      	b.n	d0 <Keyboard_Haslo+0xd0>
C:\tien\PROJEKTY\procesory\STM\T108_V100a\sources/gui.c:3167
            break;

            default:
                Keyboard_Edit_Variable();
  cc:	f7ff fffe 	bl	0 <Keyboard_Haslo>
C:\tien\PROJEKTY\procesory\STM\T108_V100a\sources/gui.c:3170
            break;
        }
        Keyboard.Keyboard_Flag = 0;
  d0:	4b03      	ldr	r3, [pc, #12]	(e0 <Keyboard_Haslo+0xe0>)
  d2:	2200      	movs	r2, #0
  d4:	709a      	strb	r2, [r3, #2]
C:\tien\PROJEKTY\procesory\STM\T108_V100a\sources/gui.c:3173
    }

    if ( Keyboard.Keyboard_State == 0 )
  d6:	4a02      	ldr	r2, [pc, #8]	(e0 <Keyboard_Haslo+0xe0>)
  d8:	7853      	ldrb	r3, [r2, #1]
  da:	b903      	cbnz	r3, de <Keyboard_Haslo+0xde>
C:\tien\PROJEKTY\procesory\STM\T108_V100a\sources/gui.c:3175
    {
        Keyboard.Keyboard_Memory = 0;
  dc:	7013      	strb	r3, [r2, #0]
C:\tien\PROJEKTY\procesory\STM\T108_V100a\sources/gui.c:3177
    }
}
  de:	bd10      	pop	{r4, pc}
	...
  e8:	00000011 	.word	0x00000011
	...
Disassembly of section .text.Keyboard_Fabryczne:

00000000 <Keyboard_Fabryczne>:
Keyboard_Fabryczne():
C:\tien\PROJEKTY\procesory\STM\T108_V100a\sources/gui.c:4228
* Input          : None
* Output         : None
* Return         : None
*******************************************************************************/
static void Keyboard_Fabryczne ( void )
{
   0:	e92d 41f0 	stmdb	sp!, {r4, r5, r6, r7, r8, lr}
C:\tien\PROJEKTY\procesory\STM\T108_V100a\sources/gui.c:4232
    uint32_t i;
    uint32_t NoOfWords;

    if ( Keyboard.Keyboard_Memory != 0 && Keyboard.Keyboard_Flag == 1 )
   4:	4b31      	ldr	r3, [pc, #196]	(cc <Keyboard_Fabryczne+0xcc>)
   6:	781c      	ldrb	r4, [r3, #0]
   8:	2c00      	cmp	r4, #0
   a:	d059      	beq.n	c0 <Keyboard_Fabryczne+0xc0>
   c:	789d      	ldrb	r5, [r3, #2]
   e:	2d01      	cmp	r5, #1
  10:	d156      	bne.n	c0 <Keyboard_Fabryczne+0xc0>
C:\tien\PROJEKTY\procesory\STM\T108_V100a\sources/gui.c:4234
    {
        switch ( Keyboard.Keyboard_Memory )
  12:	2c01      	cmp	r4, #1
  14:	d01a      	beq.n	4c <Keyboard_Fabryczne+0x4c>
  16:	2c02      	cmp	r4, #2
  18:	d14d      	bne.n	b6 <Keyboard_Fabryczne+0xb6>
C:\tien\PROJEKTY\procesory\STM\T108_V100a\sources/gui.c:4237
        {
            case KEY_ESCAPE:
                    Variable_Editing_Ptr = NULL;
  1a:	4b2d      	ldr	r3, [pc, #180]	(d0 <Keyboard_Fabryczne+0xd0>)
  1c:	2200      	movs	r2, #0
  1e:	601a      	str	r2, [r3, #0]
C:\tien\PROJEKTY\procesory\STM\T108_V100a\sources/gui.c:4238
                    Menu_Keys = Menu_Backup_Keys;
  20:	482c      	ldr	r0, [pc, #176]	(d4 <Keyboard_Fabryczne+0xd4>)
  22:	3203      	adds	r2, #3
  24:	492c      	ldr	r1, [pc, #176]	(d8 <Keyboard_Fabryczne+0xd8>)
  26:	f7ff fffe 	bl	0 <memcpy>
C:\tien\PROJEKTY\procesory\STM\T108_V100a\sources/gui.c:4239
                    Screen_Number = MENU;
  2a:	4b2c      	ldr	r3, [pc, #176]	(dc <Keyboard_Fabryczne+0xdc>)
  2c:	4a2c      	ldr	r2, [pc, #176]	(e0 <Keyboard_Fabryczne+0xe0>)
  2e:	701c      	strb	r4, [r3, #0]
C:\tien\PROJEKTY\procesory\STM\T108_V100a\sources/gui.c:4240
                    Reload_Screen = TRUE;
  30:	4b2c      	ldr	r3, [pc, #176]	(e4 <Keyboard_Fabryczne+0xe4>)
  32:	701d      	strb	r5, [r3, #0]
C:\tien\PROJEKTY\procesory\STM\T108_V100a\sources/gui.c:4242
            
                    if ( Controlling_Variables.Ctrl_Vars.Motor_Type == 0 ) //Freqw_Inverter
  34:	4b2c      	ldr	r3, [pc, #176]	(e8 <Keyboard_Fabryczne+0xe8>)
  36:	f893 302e 	ldrb.w	r3, [r3, #46]
  3a:	b90b      	cbnz	r3, 40 <Keyboard_Fabryczne+0x40>
C:\tien\PROJEKTY\procesory\STM\T108_V100a\sources/gui.c:4243
                        Machine_State = INVERTER_PROG;
  3c:	3329      	adds	r3, #41
  3e:	e000      	b.n	42 <Keyboard_Fabryczne+0x42>
C:\tien\PROJEKTY\procesory\STM\T108_V100a\sources/gui.c:4245
                    else // 24V sliding gate
                        Machine_State = WG_POWER_ON;
  40:	2311      	movs	r3, #17
  42:	7013      	strb	r3, [r2, #0]
C:\tien\PROJEKTY\procesory\STM\T108_V100a\sources/gui.c:4247
                    
                     WG_TIMER_FLAG = FALSE;
  44:	4b29      	ldr	r3, [pc, #164]	(ec <Keyboard_Fabryczne+0xec>)
  46:	2200      	movs	r2, #0
  48:	701a      	strb	r2, [r3, #0]
  4a:	e036      	b.n	ba <Keyboard_Fabryczne+0xba>
C:\tien\PROJEKTY\procesory\STM\T108_V100a\sources/gui.c:4248
            break;
  4c:	2100      	movs	r1, #0
C:\tien\PROJEKTY\procesory\STM\T108_V100a\sources/gui.c:4255
            case KEY_ENTER:
                    NoOfWords = (sizeof ( Service_Variables.Service_Tab )>>2);

                    for ( i = 0; i < NoOfWords; i++ )
                    {
                        Service_Variables.Service_Tab[i] = Settings_Default[i];
  4e:	4b28      	ldr	r3, [pc, #160]	(f0 <Keyboard_Fabryczne+0xf0>)
  50:	585a      	ldr	r2, [r3, r1]
  52:	4b28      	ldr	r3, [pc, #160]	(f4 <Keyboard_Fabryczne+0xf4>)
  54:	505a      	str	r2, [r3, r1]
  56:	3104      	adds	r1, #4
C:\tien\PROJEKTY\procesory\STM\T108_V100a\sources/gui.c:4253
            break;

            case KEY_ENTER:
                    NoOfWords = (sizeof ( Service_Variables.Service_Tab )>>2);

                    for ( i = 0; i < NoOfWords; i++ )
  58:	2980      	cmp	r1, #128
  5a:	d1f8      	bne.n	4e <Keyboard_Fabryczne+0x4e>
  5c:	2200      	movs	r2, #0
C:\tien\PROJEKTY\procesory\STM\T108_V100a\sources/gui.c:4262
    
                    NoOfWords = (sizeof ( Controlling_Variables.Variables_Tab )>>2);
   
                    for ( i = 0; i < NoOfWords; i++ )
                    {
                        Controlling_Variables.Variables_Tab[i] = Controlling_Default[i];
  5e:	4b26      	ldr	r3, [pc, #152]	(f8 <Keyboard_Fabryczne+0xf8>)
  60:	4c21      	ldr	r4, [pc, #132]	(e8 <Keyboard_Fabryczne+0xe8>)
  62:	589b      	ldr	r3, [r3, r2]
  64:	50a3      	str	r3, [r4, r2]
  66:	3204      	adds	r2, #4
C:\tien\PROJEKTY\procesory\STM\T108_V100a\sources/gui.c:4260
                        Service_Variables.Service_Tab[i] = Settings_Default[i];
                    }
    
                    NoOfWords = (sizeof ( Controlling_Variables.Variables_Tab )>>2);
   
                    for ( i = 0; i < NoOfWords; i++ )
  68:	2a40      	cmp	r2, #64
  6a:	d1f8      	bne.n	5e <Keyboard_Fabryczne+0x5e>
C:\tien\PROJEKTY\procesory\STM\T108_V100a\sources/gui.c:4264
                    {
                        Controlling_Variables.Variables_Tab[i] = Controlling_Default[i];
                    } 
                    Service_Variables_Set = Service_Variables;
  6c:	f8df 8084 	ldr.w	r8, [pc, #132]	; f4 <Keyboard_Fabryczne+0xf4>
C:\tien\PROJEKTY\procesory\STM\T108_V100a\sources/gui.c:4265
                    Controlling_Variables_Set = Controlling_Variables;
  70:	4e22      	ldr	r6, [pc, #136]	(fc <Keyboard_Fabryczne+0xfc>)
C:\tien\PROJEKTY\procesory\STM\T108_V100a\sources/gui.c:4264
   
                    for ( i = 0; i < NoOfWords; i++ )
                    {
                        Controlling_Variables.Variables_Tab[i] = Controlling_Default[i];
                    } 
                    Service_Variables_Set = Service_Variables;
  72:	3240      	adds	r2, #64
  74:	4641      	mov	r1, r8
  76:	4822      	ldr	r0, [pc, #136]	(100 <Keyboard_Fabryczne+0x100>)
C:\tien\PROJEKTY\procesory\STM\T108_V100a\sources/gui.c:4265
                    Controlling_Variables_Set = Controlling_Variables;
  78:	4635      	mov	r5, r6
C:\tien\PROJEKTY\procesory\STM\T108_V100a\sources/gui.c:4264
   
                    for ( i = 0; i < NoOfWords; i++ )
                    {
                        Controlling_Variables.Variables_Tab[i] = Controlling_Default[i];
                    } 
                    Service_Variables_Set = Service_Variables;
  7a:	f7ff fffe 	bl	0 <memcpy>
C:\tien\PROJEKTY\procesory\STM\T108_V100a\sources/gui.c:4265
                    Controlling_Variables_Set = Controlling_Variables;
  7e:	cc0f      	ldmia	r4!, {r0, r1, r2, r3}
  80:	c50f      	stmia	r5!, {r0, r1, r2, r3}
  82:	cc0f      	ldmia	r4!, {r0, r1, r2, r3}
  84:	c50f      	stmia	r5!, {r0, r1, r2, r3}
  86:	cc0f      	ldmia	r4!, {r0, r1, r2, r3}
  88:	c50f      	stmia	r5!, {r0, r1, r2, r3}
  8a:	e894 000f 	ldmia.w	r4, {r0, r1, r2, r3}
  8e:	e885 000f 	stmia.w	r5, {r0, r1, r2, r3}
C:\tien\PROJEKTY\procesory\STM\T108_V100a\sources/gui.c:4266
                    Write_Settings();
  92:	f7ff fffe 	bl	0 <Keyboard_Fabryczne>
C:\tien\PROJEKTY\procesory\STM\T108_V100a\sources/gui.c:4268

                    if ( Service_Variables.Serv_Vars.Jezyk > NUM_OF_LANG )
  96:	f898 300b 	ldrb.w	r3, [r8, #11]
  9a:	4a1a      	ldr	r2, [pc, #104]	(104 <Keyboard_Fabryczne+0x104>)
  9c:	2b01      	cmp	r3, #1
C:\tien\PROJEKTY\procesory\STM\T108_V100a\sources/gui.c:4270
                    {
                        Language_Num = 0;
  9e:	bf88      	it	hi
  a0:	2300      	movhi	r3, #0
C:\tien\PROJEKTY\procesory\STM\T108_V100a\sources/gui.c:4274
                    }
                    else
                    {
                        Language_Num = Service_Variables.Serv_Vars.Jezyk;
  a2:	7013      	strb	r3, [r2, #0]
C:\tien\PROJEKTY\procesory\STM\T108_V100a\sources/gui.c:4277
                    }  

                    Screen_Number = CONTROLLER_ON;
  a4:	4b0d      	ldr	r3, [pc, #52]	(dc <Keyboard_Fabryczne+0xdc>)
  a6:	2101      	movs	r1, #1
  a8:	7019      	strb	r1, [r3, #0]
C:\tien\PROJEKTY\procesory\STM\T108_V100a\sources/gui.c:4279
                
                    WG_TIMER_FLAG = FALSE;
  aa:	4b10      	ldr	r3, [pc, #64]	(ec <Keyboard_Fabryczne+0xec>)
  ac:	2200      	movs	r2, #0
  ae:	701a      	strb	r2, [r3, #0]
C:\tien\PROJEKTY\procesory\STM\T108_V100a\sources/gui.c:4281
                    
                    Reload_Screen = TRUE;
  b0:	4b0c      	ldr	r3, [pc, #48]	(e4 <Keyboard_Fabryczne+0xe4>)
  b2:	7019      	strb	r1, [r3, #0]
  b4:	e001      	b.n	ba <Keyboard_Fabryczne+0xba>
C:\tien\PROJEKTY\procesory\STM\T108_V100a\sources/gui.c:4285
            break;

            default:
                    Menu_Keyboard();
  b6:	f7ff fffe 	bl	0 <Keyboard_Fabryczne>
C:\tien\PROJEKTY\procesory\STM\T108_V100a\sources/gui.c:4288
            break;
        }
        Keyboard.Keyboard_Flag = 0;
  ba:	4b04      	ldr	r3, [pc, #16]	(cc <Keyboard_Fabryczne+0xcc>)
  bc:	2200      	movs	r2, #0
  be:	709a      	strb	r2, [r3, #2]
C:\tien\PROJEKTY\procesory\STM\T108_V100a\sources/gui.c:4291
    }

    if ( Keyboard.Keyboard_State == 0 )
  c0:	4a02      	ldr	r2, [pc, #8]	(cc <Keyboard_Fabryczne+0xcc>)
  c2:	7853      	ldrb	r3, [r2, #1]
  c4:	b903      	cbnz	r3, c8 <Keyboard_Fabryczne+0xc8>
C:\tien\PROJEKTY\procesory\STM\T108_V100a\sources/gui.c:4293
    {
        Keyboard.Keyboard_Memory = 0;
  c6:	7013      	strb	r3, [r2, #0]
C:\tien\PROJEKTY\procesory\STM\T108_V100a\sources/gui.c:4295
    }
}
  c8:	e8bd 81f0 	ldmia.w	sp!, {r4, r5, r6, r7, r8, pc}
	...
  d4:	00000011 	.word	0x00000011
	...
  f0:	000002dc 	.word	0x000002dc
  f4:	00000000 	.word	0x00000000
  f8:	0000035c 	.word	0x0000035c
	...
Disassembly of section .text.Keyboard_Funkcje1:

00000000 <Keyboard_Funkcje1>:
Keyboard_Funkcje1():
C:\tien\PROJEKTY\procesory\STM\T108_V100a\sources/gui.c:2914
* Input          : None
* Output         : None
* Return         : None
*******************************************************************************/
static void Keyboard_Funkcje1 ( void )
{
   0:	b570      	push	{r4, r5, r6, lr}
C:\tien\PROJEKTY\procesory\STM\T108_V100a\sources/gui.c:2915
    if ( Keyboard.Keyboard_Memory != 0 && Keyboard.Keyboard_Flag == 1 )
   2:	4b12      	ldr	r3, [pc, #72]	(4c <Keyboard_Funkcje1+0x4c>)
   4:	781d      	ldrb	r5, [r3, #0]
   6:	b1dd      	cbz	r5, 40 <Keyboard_Funkcje1+0x40>
   8:	789e      	ldrb	r6, [r3, #2]
   a:	2e01      	cmp	r6, #1
   c:	d118      	bne.n	40 <Keyboard_Funkcje1+0x40>
C:\tien\PROJEKTY\procesory\STM\T108_V100a\sources/gui.c:2917
    {
        switch ( Keyboard.Keyboard_Memory )
   e:	2d02      	cmp	r5, #2
  10:	d113      	bne.n	3a <Keyboard_Funkcje1+0x3a>
C:\tien\PROJEKTY\procesory\STM\T108_V100a\sources/gui.c:2920
        {
            case KEY_ESCAPE:
                    WG_TIMER_FLAG = FALSE;
  12:	4b0f      	ldr	r3, [pc, #60]	(50 <Keyboard_Funkcje1+0x50>)
  14:	2400      	movs	r4, #0
  16:	701c      	strb	r4, [r3, #0]
C:\tien\PROJEKTY\procesory\STM\T108_V100a\sources/gui.c:2922
                    
                    Write_Settings();
  18:	f7ff fffe 	bl	0 <Keyboard_Funkcje1>
C:\tien\PROJEKTY\procesory\STM\T108_V100a\sources/gui.c:2923
                    Variable_Editing_Ptr = NULL;
  1c:	4b0d      	ldr	r3, [pc, #52]	(54 <Keyboard_Funkcje1+0x54>)
  1e:	4a0e      	ldr	r2, [pc, #56]	(58 <Keyboard_Funkcje1+0x58>)
  20:	601c      	str	r4, [r3, #0]
C:\tien\PROJEKTY\procesory\STM\T108_V100a\sources/gui.c:2924
                    Screen_Number = MENU;
  22:	4b0e      	ldr	r3, [pc, #56]	(5c <Keyboard_Funkcje1+0x5c>)
  24:	701d      	strb	r5, [r3, #0]
C:\tien\PROJEKTY\procesory\STM\T108_V100a\sources/gui.c:2925
                    Reload_Screen = TRUE;
  26:	4b0e      	ldr	r3, [pc, #56]	(60 <Keyboard_Funkcje1+0x60>)
  28:	701e      	strb	r6, [r3, #0]
C:\tien\PROJEKTY\procesory\STM\T108_V100a\sources/gui.c:2927
            
                    if ( Controlling_Variables.Ctrl_Vars.Motor_Type == 0 ) //Freqw_Inverter
  2a:	4b0e      	ldr	r3, [pc, #56]	(64 <Keyboard_Funkcje1+0x64>)
  2c:	f893 302e 	ldrb.w	r3, [r3, #46]
  30:	b90b      	cbnz	r3, 36 <Keyboard_Funkcje1+0x36>
C:\tien\PROJEKTY\procesory\STM\T108_V100a\sources/gui.c:2928
                        Machine_State = INVERTER_PROG;
  32:	3329      	adds	r3, #41
  34:	e000      	b.n	38 <Keyboard_Funkcje1+0x38>
C:\tien\PROJEKTY\procesory\STM\T108_V100a\sources/gui.c:2930
                    else // 24V sliding gate
                        Machine_State = WG_POWER_ON;
  36:	2311      	movs	r3, #17
  38:	7013      	strb	r3, [r2, #0]
C:\tien\PROJEKTY\procesory\STM\T108_V100a\sources/gui.c:2963
*/
            default:
//                Keyboard_Edit_Variable();
            break;
        }
        Keyboard.Keyboard_Flag = 0;
  3a:	4b04      	ldr	r3, [pc, #16]	(4c <Keyboard_Funkcje1+0x4c>)
  3c:	2200      	movs	r2, #0
  3e:	709a      	strb	r2, [r3, #2]
C:\tien\PROJEKTY\procesory\STM\T108_V100a\sources/gui.c:2966
    }

    if ( Keyboard.Keyboard_State == 0 )
  40:	4a02      	ldr	r2, [pc, #8]	(4c <Keyboard_Funkcje1+0x4c>)
  42:	7853      	ldrb	r3, [r2, #1]
  44:	b903      	cbnz	r3, 48 <Keyboard_Funkcje1+0x48>
C:\tien\PROJEKTY\procesory\STM\T108_V100a\sources/gui.c:2968
    {
        Keyboard.Keyboard_Memory = 0;
  46:	7013      	strb	r3, [r2, #0]
C:\tien\PROJEKTY\procesory\STM\T108_V100a\sources/gui.c:2970
    }
}
  48:	bd70      	pop	{r4, r5, r6, pc}
  4a:	46c0      	nop			(mov r8, r8)
	...
Disassembly of section .text.Keyboard_Submenu2:

00000000 <Keyboard_Submenu2>:
Keyboard_Submenu2():
C:\tien\PROJEKTY\procesory\STM\T108_V100a\sources/gui.c:2771
* Input          : None
* Output         : None
* Return         : None
*******************************************************************************/
static void Keyboard_Submenu2 ( void )
{
   0:	b570      	push	{r4, r5, r6, lr}
C:\tien\PROJEKTY\procesory\STM\T108_V100a\sources/gui.c:2772
    if ( Keyboard.Keyboard_Memory != 0 && Keyboard.Keyboard_Flag == 1 )
   2:	4b2d      	ldr	r3, [pc, #180]	(b8 <Keyboard_Submenu2+0xb8>)
   4:	781c      	ldrb	r4, [r3, #0]
   6:	2c00      	cmp	r4, #0
   8:	d051      	beq.n	ae <Keyboard_Submenu2+0xae>
   a:	789d      	ldrb	r5, [r3, #2]
   c:	2d01      	cmp	r5, #1
   e:	d14e      	bne.n	ae <Keyboard_Submenu2+0xae>
C:\tien\PROJEKTY\procesory\STM\T108_V100a\sources/gui.c:2774
    {
        switch ( Keyboard.Keyboard_Memory )
  10:	2c02      	cmp	r4, #2
  12:	d008      	beq.n	26 <Keyboard_Submenu2+0x26>
  14:	d802      	bhi.n	1c <Keyboard_Submenu2+0x1c>
  16:	2c01      	cmp	r4, #1
  18:	d144      	bne.n	a4 <Keyboard_Submenu2+0xa4>
  1a:	e037      	b.n	8c <Keyboard_Submenu2+0x8c>
  1c:	2c08      	cmp	r4, #8
  1e:	d02d      	beq.n	7c <Keyboard_Submenu2+0x7c>
  20:	2c20      	cmp	r4, #32
  22:	d13f      	bne.n	a4 <Keyboard_Submenu2+0xa4>
  24:	e019      	b.n	5a <Keyboard_Submenu2+0x5a>
C:\tien\PROJEKTY\procesory\STM\T108_V100a\sources/gui.c:2777
        {
            case KEY_ESCAPE:
                    Write_Settings();
  26:	f7ff fffe 	bl	0 <Keyboard_Submenu2>
C:\tien\PROJEKTY\procesory\STM\T108_V100a\sources/gui.c:2778
                    Variable_Editing_Ptr = NULL;
  2a:	4b24      	ldr	r3, [pc, #144]	(bc <Keyboard_Submenu2+0xbc>)
  2c:	2200      	movs	r2, #0
  2e:	601a      	str	r2, [r3, #0]
C:\tien\PROJEKTY\procesory\STM\T108_V100a\sources/gui.c:2779
                    Menu_Keys = Menu_Backup_Keys_Set;
  30:	4823      	ldr	r0, [pc, #140]	(c0 <Keyboard_Submenu2+0xc0>)
  32:	3203      	adds	r2, #3
  34:	4923      	ldr	r1, [pc, #140]	(c4 <Keyboard_Submenu2+0xc4>)
  36:	f7ff fffe 	bl	0 <memcpy>
C:\tien\PROJEKTY\procesory\STM\T108_V100a\sources/gui.c:2780
                    Screen_Number = MENU;
  3a:	4b23      	ldr	r3, [pc, #140]	(c8 <Keyboard_Submenu2+0xc8>)
  3c:	4a23      	ldr	r2, [pc, #140]	(cc <Keyboard_Submenu2+0xcc>)
  3e:	701c      	strb	r4, [r3, #0]
C:\tien\PROJEKTY\procesory\STM\T108_V100a\sources/gui.c:2781
                    Reload_Screen = TRUE;
  40:	4b23      	ldr	r3, [pc, #140]	(d0 <Keyboard_Submenu2+0xd0>)
  42:	701d      	strb	r5, [r3, #0]
C:\tien\PROJEKTY\procesory\STM\T108_V100a\sources/gui.c:2783
            
                    if ( Controlling_Variables.Ctrl_Vars.Motor_Type == 0 ) //Freqw_Inverter
  44:	4b23      	ldr	r3, [pc, #140]	(d4 <Keyboard_Submenu2+0xd4>)
  46:	f893 302e 	ldrb.w	r3, [r3, #46]
  4a:	b90b      	cbnz	r3, 50 <Keyboard_Submenu2+0x50>
C:\tien\PROJEKTY\procesory\STM\T108_V100a\sources/gui.c:2784
                        Machine_State = INVERTER_PROG;
  4c:	3329      	adds	r3, #41
  4e:	e000      	b.n	52 <Keyboard_Submenu2+0x52>
C:\tien\PROJEKTY\procesory\STM\T108_V100a\sources/gui.c:2786
                    else // 24V sliding gate
                        Machine_State = WG_POWER_ON;
  50:	2311      	movs	r3, #17
  52:	7013      	strb	r3, [r2, #0]
C:\tien\PROJEKTY\procesory\STM\T108_V100a\sources/gui.c:2788
                    
                     WG_TIMER_FLAG = FALSE;
  54:	2200      	movs	r2, #0
  56:	4b20      	ldr	r3, [pc, #128]	(d8 <Keyboard_Submenu2+0xd8>)
  58:	e00e      	b.n	78 <Keyboard_Submenu2+0x78>
C:\tien\PROJEKTY\procesory\STM\T108_V100a\sources/gui.c:2792
            break;

            case KEY_DOWN:
              if ( ++Count_Add == Variable_Editing_Ptr->Var_Param_Ptr->Variable_Digits_Count )
  5a:	4920      	ldr	r1, [pc, #128]	(dc <Keyboard_Submenu2+0xdc>)
  5c:	4b17      	ldr	r3, [pc, #92]	(bc <Keyboard_Submenu2+0xbc>)
  5e:	780a      	ldrb	r2, [r1, #0]
  60:	681b      	ldr	r3, [r3, #0]
  62:	3201      	adds	r2, #1
  64:	b2d2      	uxtb	r2, r2
  66:	700a      	strb	r2, [r1, #0]
  68:	68db      	ldr	r3, [r3, #12]
  6a:	789b      	ldrb	r3, [r3, #2]
  6c:	4293      	cmp	r3, r2
  6e:	d101      	bne.n	74 <Keyboard_Submenu2+0x74>
C:\tien\PROJEKTY\procesory\STM\T108_V100a\sources/gui.c:2794
              {
                  Count_Add = 0;
  70:	2300      	movs	r3, #0
  72:	700b      	strb	r3, [r1, #0]
C:\tien\PROJEKTY\procesory\STM\T108_V100a\sources/gui.c:2796
              }
              Reload_Screen = TRUE;  
  74:	4b16      	ldr	r3, [pc, #88]	(d0 <Keyboard_Submenu2+0xd0>)
  76:	2201      	movs	r2, #1
  78:	701a      	strb	r2, [r3, #0]
  7a:	e015      	b.n	a8 <Keyboard_Submenu2+0xa8>
C:\tien\PROJEKTY\procesory\STM\T108_V100a\sources/gui.c:2800
            break;
          
            case KEY_UP:
              Count_Add = 0;
  7c:	4b17      	ldr	r3, [pc, #92]	(dc <Keyboard_Submenu2+0xdc>)
  7e:	2200      	movs	r2, #0
  80:	701a      	strb	r2, [r3, #0]
C:\tien\PROJEKTY\procesory\STM\T108_V100a\sources/gui.c:2801
              if ( Next_Editable_Variable() == FALSE )
  82:	f7ff fffe 	bl	0 <Keyboard_Submenu2>
  86:	2800      	cmp	r0, #0
  88:	d1f4      	bne.n	74 <Keyboard_Submenu2+0x74>
  8a:	e008      	b.n	9e <Keyboard_Submenu2+0x9e>
C:\tien\PROJEKTY\procesory\STM\T108_V100a\sources/gui.c:2809
              }
              Reload_Screen = TRUE;
            break;

                      case KEY_ENTER:
                   if ( ++Screen_Number > SUBMENU2c )
  8c:	4a0e      	ldr	r2, [pc, #56]	(c8 <Keyboard_Submenu2+0xc8>)
  8e:	7813      	ldrb	r3, [r2, #0]
  90:	3301      	adds	r3, #1
  92:	b2db      	uxtb	r3, r3
  94:	2b07      	cmp	r3, #7
  96:	7013      	strb	r3, [r2, #0]
  98:	d901      	bls.n	9e <Keyboard_Submenu2+0x9e>
C:\tien\PROJEKTY\procesory\STM\T108_V100a\sources/gui.c:2811
                   {
                       Screen_Number = SUBMENU2;
  9a:	2304      	movs	r3, #4
  9c:	7013      	strb	r3, [r2, #0]
C:\tien\PROJEKTY\procesory\STM\T108_V100a\sources/gui.c:2813
                   }
                   First_Editable_Variable();
  9e:	f7ff fffe 	bl	0 <Keyboard_Submenu2>
  a2:	e7e7      	b.n	ffffffd2 <Screen_Alert_Error+0xffffd28e>
C:\tien\PROJEKTY\procesory\STM\T108_V100a\sources/gui.c:2818
                   Reload_Screen = TRUE;
            break;
               
            default:
                Keyboard_Edit_Variable();
  a4:	f7ff fffe 	bl	0 <Keyboard_Submenu2>
C:\tien\PROJEKTY\procesory\STM\T108_V100a\sources/gui.c:2821
            break;
        }
        Keyboard.Keyboard_Flag = 0;
  a8:	4b03      	ldr	r3, [pc, #12]	(b8 <Keyboard_Submenu2+0xb8>)
  aa:	2200      	movs	r2, #0
  ac:	709a      	strb	r2, [r3, #2]
C:\tien\PROJEKTY\procesory\STM\T108_V100a\sources/gui.c:2824
    }

    if ( Keyboard.Keyboard_State == 0 )
  ae:	4a02      	ldr	r2, [pc, #8]	(b8 <Keyboard_Submenu2+0xb8>)
  b0:	7853      	ldrb	r3, [r2, #1]
  b2:	b903      	cbnz	r3, b6 <Keyboard_Submenu2+0xb6>
C:\tien\PROJEKTY\procesory\STM\T108_V100a\sources/gui.c:2826
    {
        Keyboard.Keyboard_Memory = 0;
  b4:	7013      	strb	r3, [r2, #0]
C:\tien\PROJEKTY\procesory\STM\T108_V100a\sources/gui.c:2828
    }
}
  b6:	bd70      	pop	{r4, r5, r6, pc}
	...
  c0:	00000011 	.word	0x00000011
	...
Disassembly of section .text.Lock_Handling:

00000000 <Lock_Handling>:
Lock_Handling():
C:\tien\PROJEKTY\procesory\STM\T108_V100a\sources/gui.c:4819
* Input          : None
* Output         : None
* Return         : None
*******************************************************************************/
void Lock_Handling ( void )
{
   0:	b510      	push	{r4, lr}
C:\tien\PROJEKTY\procesory\STM\T108_V100a\sources/gui.c:4820
    if ( Service_Variables.Serv_Vars.Marker_Blokady == STER_BLOKOWANY )
   2:	4b0a      	ldr	r3, [pc, #40]	(2c <Lock_Handling+0x2c>)
   4:	7c59      	ldrb	r1, [r3, #17]
   6:	2903      	cmp	r1, #3
   8:	d10f      	bne.n	2a <Lock_Handling+0x2a>
C:\tien\PROJEKTY\procesory\STM\T108_V100a\sources/gui.c:4822
    {
        if ( Service_Variables.Serv_Vars.Lock_Counter > Service_Variables.Serv_Vars.Lock_Interval )
   a:	8ada      	ldrh	r2, [r3, #22]
   c:	8a9b      	ldrh	r3, [r3, #20]
   e:	429a      	cmp	r2, r3
  10:	d90b      	bls.n	2a <Lock_Handling+0x2a>
C:\tien\PROJEKTY\procesory\STM\T108_V100a\sources/gui.c:4824
        {
            Screen_Number = STER_BLOKOWANY;
  12:	4b07      	ldr	r3, [pc, #28]	(30 <Lock_Handling+0x30>)
C:\tien\PROJEKTY\procesory\STM\T108_V100a\sources/gui.c:4825
            Machine_State = SW_LOCKED;
  14:	220f      	movs	r2, #15
C:\tien\PROJEKTY\procesory\STM\T108_V100a\sources/gui.c:4824
{
    if ( Service_Variables.Serv_Vars.Marker_Blokady == STER_BLOKOWANY )
    {
        if ( Service_Variables.Serv_Vars.Lock_Counter > Service_Variables.Serv_Vars.Lock_Interval )
        {
            Screen_Number = STER_BLOKOWANY;
  16:	7019      	strb	r1, [r3, #0]
C:\tien\PROJEKTY\procesory\STM\T108_V100a\sources/gui.c:4825
            Machine_State = SW_LOCKED;
  18:	4b06      	ldr	r3, [pc, #24]	(34 <Lock_Handling+0x34>)
  1a:	701a      	strb	r2, [r3, #0]
C:\tien\PROJEKTY\procesory\STM\T108_V100a\sources/gui.c:4826
            Screen_After_Password = CONTROLLER_ON;
  1c:	4b06      	ldr	r3, [pc, #24]	(38 <Lock_Handling+0x38>)
  1e:	2201      	movs	r2, #1
  20:	701a      	strb	r2, [r3, #0]
C:\tien\PROJEKTY\procesory\STM\T108_V100a\sources/gui.c:4827
            Service_Variables_Set.Serv_Vars.Marker_Blokady = STER_ZABLOKOWANY;
  22:	4b06      	ldr	r3, [pc, #24]	(3c <Lock_Handling+0x3c>)
  24:	745a      	strb	r2, [r3, #17]
C:\tien\PROJEKTY\procesory\STM\T108_V100a\sources/gui.c:4828
            Write_Settings();
  26:	f7ff fffe 	bl	0 <Lock_Handling>
C:\tien\PROJEKTY\procesory\STM\T108_V100a\sources/gui.c:4831
        }
    }
}
  2a:	bd10      	pop	{r4, pc}
	...
Disassembly of section .text.Update_Lock_Counter:

00000000 <Update_Lock_Counter>:
Update_Lock_Counter():
C:\tien\PROJEKTY\procesory\STM\T108_V100a\sources/gui.c:4772
* Input          : Count to update
* Output         : None
* Return         : None
*******************************************************************************/
void Update_Lock_Counter ( uint16_t Update_Counter )
{
   0:	b510      	push	{r4, lr}
C:\tien\PROJEKTY\procesory\STM\T108_V100a\sources/gui.c:4773
    if ( Service_Variables.Serv_Vars.Marker_Blokady == STER_BLOKOWANY )
   2:	4b05      	ldr	r3, [pc, #20]	(18 <Update_Lock_Counter+0x18>)
   4:	7c5b      	ldrb	r3, [r3, #17]
   6:	2b03      	cmp	r3, #3
   8:	d105      	bne.n	16 <Update_Lock_Counter+0x16>
C:\tien\PROJEKTY\procesory\STM\T108_V100a\sources/gui.c:4775
    {
        Service_Variables_Set.Serv_Vars.Lock_Counter += Update_Counter;
   a:	4a04      	ldr	r2, [pc, #16]	(1c <Update_Lock_Counter+0x1c>)
   c:	8ad3      	ldrh	r3, [r2, #22]
   e:	18c3      	adds	r3, r0, r3
  10:	82d3      	strh	r3, [r2, #22]
C:\tien\PROJEKTY\procesory\STM\T108_V100a\sources/gui.c:4776
        Write_Settings();
  12:	f7ff fffe 	bl	0 <Update_Lock_Counter>
C:\tien\PROJEKTY\procesory\STM\T108_V100a\sources/gui.c:4778
    }
}
  16:	bd10      	pop	{r4, pc}
	...
Disassembly of section .text.Read_Settings:

00000000 <Read_Settings>:
Read_Settings():
C:\tien\PROJEKTY\procesory\STM\T108_V100a\sources/gui.c:4674
* Input          : None
* Output         : None
* Return         : None
*******************************************************************************/
void Read_Settings ( void )
{
   0:	b570      	push	{r4, r5, r6, lr}
C:\tien\PROJEKTY\procesory\STM\T108_V100a\sources/gui.c:4678
    uint32_t i;
    uint32_t NoOfWords;

    Flash_Address = EEPROM_BASE_ADDRESS;
   2:	4a40      	ldr	r2, [pc, #256]	(104 <Read_Settings+0x104>)
   4:	4b40      	ldr	r3, [pc, #256]	(108 <Read_Settings+0x108>)
   6:	2100      	movs	r1, #0
   8:	601a      	str	r2, [r3, #0]
C:\tien\PROJEKTY\procesory\STM\T108_V100a\sources/gui.c:4683
    NoOfWords = (sizeof ( Service_Variables.Service_Tab )>>2);

    for ( i = 0; i < NoOfWords; i++ )
    {
        Service_Variables.Service_Tab[i] = *(uint32_t*)Flash_Address;
   a:	483f      	ldr	r0, [pc, #252]	(108 <Read_Settings+0x108>)
   c:	6803      	ldr	r3, [r0, #0]
   e:	681a      	ldr	r2, [r3, #0]
  10:	4b3e      	ldr	r3, [pc, #248]	(10c <Read_Settings+0x10c>)
  12:	505a      	str	r2, [r3, r1]
C:\tien\PROJEKTY\procesory\STM\T108_V100a\sources/gui.c:4684
        Flash_Address += 4;
  14:	6803      	ldr	r3, [r0, #0]
  16:	3104      	adds	r1, #4
  18:	3304      	adds	r3, #4
C:\tien\PROJEKTY\procesory\STM\T108_V100a\sources/gui.c:4681
    uint32_t NoOfWords;

    Flash_Address = EEPROM_BASE_ADDRESS;
    NoOfWords = (sizeof ( Service_Variables.Service_Tab )>>2);

    for ( i = 0; i < NoOfWords; i++ )
  1a:	2980      	cmp	r1, #128
C:\tien\PROJEKTY\procesory\STM\T108_V100a\sources/gui.c:4684
    {
        Service_Variables.Service_Tab[i] = *(uint32_t*)Flash_Address;
        Flash_Address += 4;
  1c:	6003      	str	r3, [r0, #0]
C:\tien\PROJEKTY\procesory\STM\T108_V100a\sources/gui.c:4681
    uint32_t NoOfWords;

    Flash_Address = EEPROM_BASE_ADDRESS;
    NoOfWords = (sizeof ( Service_Variables.Service_Tab )>>2);

    for ( i = 0; i < NoOfWords; i++ )
  1e:	d1f4      	bne.n	a <Read_Settings+0xa>
C:\tien\PROJEKTY\procesory\STM\T108_V100a\sources/gui.c:4687
    {
        Service_Variables.Service_Tab[i] = *(uint32_t*)Flash_Address;
        Flash_Address += 4;
    }

    Flash_Address = EEPROM_BASE_ADDRESS + sizeof ( Service_Variables.Service_Tab );
  20:	4b3b      	ldr	r3, [pc, #236]	(110 <Read_Settings+0x110>)
  22:	6003      	str	r3, [r0, #0]
  24:	2000      	movs	r0, #0
C:\tien\PROJEKTY\procesory\STM\T108_V100a\sources/gui.c:4692
    NoOfWords = (sizeof ( Controlling_Variables.Variables_Tab ) >> 2);

    for ( i = 0; i < NoOfWords; i++ )
    {
        Controlling_Variables.Variables_Tab[i] = *(uint32_t*)Flash_Address;
  26:	4a38      	ldr	r2, [pc, #224]	(108 <Read_Settings+0x108>)
  28:	6813      	ldr	r3, [r2, #0]
  2a:	6819      	ldr	r1, [r3, #0]
  2c:	4b39      	ldr	r3, [pc, #228]	(114 <Read_Settings+0x114>)
  2e:	5019      	str	r1, [r3, r0]
C:\tien\PROJEKTY\procesory\STM\T108_V100a\sources/gui.c:4693
        Flash_Address += 4;
  30:	6813      	ldr	r3, [r2, #0]
  32:	3004      	adds	r0, #4
  34:	3304      	adds	r3, #4
C:\tien\PROJEKTY\procesory\STM\T108_V100a\sources/gui.c:4690
    }

    Flash_Address = EEPROM_BASE_ADDRESS + sizeof ( Service_Variables.Service_Tab );
    NoOfWords = (sizeof ( Controlling_Variables.Variables_Tab ) >> 2);

    for ( i = 0; i < NoOfWords; i++ )
  36:	2840      	cmp	r0, #64
C:\tien\PROJEKTY\procesory\STM\T108_V100a\sources/gui.c:4693
    {
        Controlling_Variables.Variables_Tab[i] = *(uint32_t*)Flash_Address;
        Flash_Address += 4;
  38:	6013      	str	r3, [r2, #0]
C:\tien\PROJEKTY\procesory\STM\T108_V100a\sources/gui.c:4690
    }

    Flash_Address = EEPROM_BASE_ADDRESS + sizeof ( Service_Variables.Service_Tab );
    NoOfWords = (sizeof ( Controlling_Variables.Variables_Tab ) >> 2);

    for ( i = 0; i < NoOfWords; i++ )
  3a:	d1f4      	bne.n	26 <Read_Settings+0x26>
C:\tien\PROJEKTY\procesory\STM\T108_V100a\sources/gui.c:4697
        Controlling_Variables.Variables_Tab[i] = *(uint32_t*)Flash_Address;
        Flash_Address += 4;
    }


    if ( Service_Variables.Serv_Vars.First_On_Marker != CONTROLLER_PROGRAMMED )
  3c:	4b33      	ldr	r3, [pc, #204]	(10c <Read_Settings+0x10c>)
  3e:	7e1b      	ldrb	r3, [r3, #24]
  40:	2ba5      	cmp	r3, #165
  42:	d022      	beq.n	8a <Read_Settings+0x8a>
  44:	2100      	movs	r1, #0
C:\tien\PROJEKTY\procesory\STM\T108_V100a\sources/gui.c:4703
    {
        NoOfWords = (sizeof ( Service_Variables.Service_Tab )>>2);
   
        for ( i = 0; i < NoOfWords; i++ )
        {
            Service_Variables.Service_Tab[i] = Settings_Default[i];
  46:	4b34      	ldr	r3, [pc, #208]	(118 <Read_Settings+0x118>)
  48:	585a      	ldr	r2, [r3, r1]
  4a:	4b30      	ldr	r3, [pc, #192]	(10c <Read_Settings+0x10c>)
  4c:	505a      	str	r2, [r3, r1]
  4e:	3104      	adds	r1, #4
C:\tien\PROJEKTY\procesory\STM\T108_V100a\sources/gui.c:4701

    if ( Service_Variables.Serv_Vars.First_On_Marker != CONTROLLER_PROGRAMMED )
    {
        NoOfWords = (sizeof ( Service_Variables.Service_Tab )>>2);
   
        for ( i = 0; i < NoOfWords; i++ )
  50:	2980      	cmp	r1, #128
  52:	d1f8      	bne.n	46 <Read_Settings+0x46>
  54:	2200      	movs	r2, #0
C:\tien\PROJEKTY\procesory\STM\T108_V100a\sources/gui.c:4710
    
        NoOfWords = (sizeof ( Controlling_Variables.Variables_Tab )>>2);
   
        for ( i = 0; i < NoOfWords; i++ )
        {
            Controlling_Variables.Variables_Tab[i] = Controlling_Default[i];
  56:	4b31      	ldr	r3, [pc, #196]	(11c <Read_Settings+0x11c>)
  58:	4d2e      	ldr	r5, [pc, #184]	(114 <Read_Settings+0x114>)
  5a:	589b      	ldr	r3, [r3, r2]
  5c:	50ab      	str	r3, [r5, r2]
  5e:	3204      	adds	r2, #4
C:\tien\PROJEKTY\procesory\STM\T108_V100a\sources/gui.c:4708
            Service_Variables.Service_Tab[i] = Settings_Default[i];
        }
    
        NoOfWords = (sizeof ( Controlling_Variables.Variables_Tab )>>2);
   
        for ( i = 0; i < NoOfWords; i++ )
  60:	2a40      	cmp	r2, #64
  62:	d1f8      	bne.n	56 <Read_Settings+0x56>
C:\tien\PROJEKTY\procesory\STM\T108_V100a\sources/gui.c:4713
        {
            Controlling_Variables.Variables_Tab[i] = Controlling_Default[i];
        } 
        Service_Variables_Set = Service_Variables;
        Controlling_Variables_Set = Controlling_Variables;
  64:	4c2e      	ldr	r4, [pc, #184]	(120 <Read_Settings+0x120>)
C:\tien\PROJEKTY\procesory\STM\T108_V100a\sources/gui.c:4712
   
        for ( i = 0; i < NoOfWords; i++ )
        {
            Controlling_Variables.Variables_Tab[i] = Controlling_Default[i];
        } 
        Service_Variables_Set = Service_Variables;
  66:	4929      	ldr	r1, [pc, #164]	(10c <Read_Settings+0x10c>)
  68:	3240      	adds	r2, #64
  6a:	482e      	ldr	r0, [pc, #184]	(124 <Read_Settings+0x124>)
C:\tien\PROJEKTY\procesory\STM\T108_V100a\sources/gui.c:4713
        Controlling_Variables_Set = Controlling_Variables;
  6c:	4626      	mov	r6, r4
C:\tien\PROJEKTY\procesory\STM\T108_V100a\sources/gui.c:4712
   
        for ( i = 0; i < NoOfWords; i++ )
        {
            Controlling_Variables.Variables_Tab[i] = Controlling_Default[i];
        } 
        Service_Variables_Set = Service_Variables;
  6e:	f7ff fffe 	bl	0 <memcpy>
C:\tien\PROJEKTY\procesory\STM\T108_V100a\sources/gui.c:4713
        Controlling_Variables_Set = Controlling_Variables;
  72:	cd0f      	ldmia	r5!, {r0, r1, r2, r3}
  74:	c60f      	stmia	r6!, {r0, r1, r2, r3}
  76:	cd0f      	ldmia	r5!, {r0, r1, r2, r3}
  78:	c60f      	stmia	r6!, {r0, r1, r2, r3}
  7a:	cd0f      	ldmia	r5!, {r0, r1, r2, r3}
  7c:	c60f      	stmia	r6!, {r0, r1, r2, r3}
  7e:	e895 000f 	ldmia.w	r5, {r0, r1, r2, r3}
  82:	e886 000f 	stmia.w	r6, {r0, r1, r2, r3}
C:\tien\PROJEKTY\procesory\STM\T108_V100a\sources/gui.c:4714
        Write_Settings();
  86:	f7ff fffe 	bl	0 <Read_Settings>
C:\tien\PROJEKTY\procesory\STM\T108_V100a\sources/gui.c:4717
    }

    Counters_Variables.Counters_Vars.Service_Counter = 0;
  8a:	4d27      	ldr	r5, [pc, #156]	(128 <Read_Settings+0x128>)
  8c:	2600      	movs	r6, #0
  8e:	602e      	str	r6, [r5, #0]
C:\tien\PROJEKTY\procesory\STM\T108_V100a\sources/gui.c:4718
    Counters_Variables.Counters_Vars.Service_Counter = BKP_ReadBackupRegister(BKP_DR5);
  90:	2014      	movs	r0, #20
  92:	f7ff fffe 	bl	0 <BKP_ReadBackupRegister>
C:\tien\PROJEKTY\procesory\STM\T108_V100a\sources/gui.c:4719
    Counters_Variables.Counters_Vars.Service_Counter <<= 16;
  96:	0404      	lsls	r4, r0, #16
  98:	602c      	str	r4, [r5, #0]
C:\tien\PROJEKTY\procesory\STM\T108_V100a\sources/gui.c:4720
    Counters_Variables.Counters_Vars.Service_Counter += BKP_ReadBackupRegister(BKP_DR6);
  9a:	2018      	movs	r0, #24
  9c:	f7ff fffe 	bl	0 <BKP_ReadBackupRegister>
C:\tien\PROJEKTY\procesory\STM\T108_V100a\sources/gui.c:4722

    Controller_Variables.Controller_Vars.Software_Version[0] = 2;//(BKP_ReadBackupRegister(BKP_DR9) & 0xFF00) >> 8;
  a0:	4b22      	ldr	r3, [pc, #136]	(12c <Read_Settings+0x12c>)
  a2:	f04f 0202 	mov.w	r2, #2	; 0x2
  a6:	801a      	strh	r2, [r3, #0]
C:\tien\PROJEKTY\procesory\STM\T108_V100a\sources/gui.c:4723
    Controller_Variables.Controller_Vars.Software_Version[1] = 3;//BKP_ReadBackupRegister(BKP_DR9) & 0x00FF;
  a8:	f04f 0203 	mov.w	r2, #3	; 0x3
  ac:	805a      	strh	r2, [r3, #2]
C:\tien\PROJEKTY\procesory\STM\T108_V100a\sources/gui.c:4724
    Controller_Variables.Controller_Vars.Software_Version[2] = 1;//(BKP_ReadBackupRegister(BKP_DR10) & 0xFF00) >> 8;
  ae:	f04f 0201 	mov.w	r2, #1	; 0x1
  b2:	809a      	strh	r2, [r3, #4]
C:\tien\PROJEKTY\procesory\STM\T108_V100a\sources/gui.c:4725
    Controller_Variables.Controller_Vars.Controller_Date[0] = 29;//BKP_ReadBackupRegister(BKP_DR10) & 0x00FF;
  b4:	f04f 021d 	mov.w	r2, #29	; 0x1d
  b8:	80da      	strh	r2, [r3, #6]
C:\tien\PROJEKTY\procesory\STM\T108_V100a\sources/gui.c:4726
    Controller_Variables.Controller_Vars.Controller_Date[1] = 9;//(BKP_ReadBackupRegister(BKP_DR11) & 0xFF00) >> 8;
  ba:	f04f 0209 	mov.w	r2, #9	; 0x9
  be:	811a      	strh	r2, [r3, #8]
C:\tien\PROJEKTY\procesory\STM\T108_V100a\sources/gui.c:4727
    Controller_Variables.Controller_Vars.Controller_Date[2] = 17;//BKP_ReadBackupRegister(BKP_DR11) & 0x00FF;
  c0:	f04f 0211 	mov.w	r2, #17	; 0x11
  c4:	815a      	strh	r2, [r3, #10]
C:\tien\PROJEKTY\procesory\STM\T108_V100a\sources/gui.c:4728
    Controller_Variables.Controller_Vars.Serial_Number = 0;//BKP_ReadBackupRegister(BKP_DR12);
  c6:	819e      	strh	r6, [r3, #12]
C:\tien\PROJEKTY\procesory\STM\T108_V100a\sources/gui.c:4730

    if ( Service_Variables.Serv_Vars.Jezyk > NUM_OF_LANG )
  c8:	4b10      	ldr	r3, [pc, #64]	(10c <Read_Settings+0x10c>)
  ca:	4a19      	ldr	r2, [pc, #100]	(130 <Read_Settings+0x130>)
  cc:	7adb      	ldrb	r3, [r3, #11]
C:\tien\PROJEKTY\procesory\STM\T108_V100a\sources/gui.c:4720
    }

    Counters_Variables.Counters_Vars.Service_Counter = 0;
    Counters_Variables.Counters_Vars.Service_Counter = BKP_ReadBackupRegister(BKP_DR5);
    Counters_Variables.Counters_Vars.Service_Counter <<= 16;
    Counters_Variables.Counters_Vars.Service_Counter += BKP_ReadBackupRegister(BKP_DR6);
  ce:	1824      	adds	r4, r4, r0
C:\tien\PROJEKTY\procesory\STM\T108_V100a\sources/gui.c:4730
    Controller_Variables.Controller_Vars.Controller_Date[0] = 29;//BKP_ReadBackupRegister(BKP_DR10) & 0x00FF;
    Controller_Variables.Controller_Vars.Controller_Date[1] = 9;//(BKP_ReadBackupRegister(BKP_DR11) & 0xFF00) >> 8;
    Controller_Variables.Controller_Vars.Controller_Date[2] = 17;//BKP_ReadBackupRegister(BKP_DR11) & 0x00FF;
    Controller_Variables.Controller_Vars.Serial_Number = 0;//BKP_ReadBackupRegister(BKP_DR12);

    if ( Service_Variables.Serv_Vars.Jezyk > NUM_OF_LANG )
  d0:	2b01      	cmp	r3, #1
C:\tien\PROJEKTY\procesory\STM\T108_V100a\sources/gui.c:4732
    {
        Language_Num = 0;
  d2:	bf8c      	ite	hi
  d4:	7016      	strbhi	r6, [r2, #0]
C:\tien\PROJEKTY\procesory\STM\T108_V100a\sources/gui.c:4736
    }
    else
    {
        Language_Num = Service_Variables.Serv_Vars.Jezyk;
  d6:	7013      	strbls	r3, [r2, #0]
C:\tien\PROJEKTY\procesory\STM\T108_V100a\sources/gui.c:4739
    }  

    Controlling_Variables_Set = Controlling_Variables;
  d8:	4e11      	ldr	r6, [pc, #68]	(120 <Read_Settings+0x120>)
  da:	4b0e      	ldr	r3, [pc, #56]	(114 <Read_Settings+0x114>)
C:\tien\PROJEKTY\procesory\STM\T108_V100a\sources/gui.c:4720
    }

    Counters_Variables.Counters_Vars.Service_Counter = 0;
    Counters_Variables.Counters_Vars.Service_Counter = BKP_ReadBackupRegister(BKP_DR5);
    Counters_Variables.Counters_Vars.Service_Counter <<= 16;
    Counters_Variables.Counters_Vars.Service_Counter += BKP_ReadBackupRegister(BKP_DR6);
  dc:	602c      	str	r4, [r5, #0]
C:\tien\PROJEKTY\procesory\STM\T108_V100a\sources/gui.c:4739
    else
    {
        Language_Num = Service_Variables.Serv_Vars.Jezyk;
    }  

    Controlling_Variables_Set = Controlling_Variables;
  de:	4635      	mov	r5, r6
  e0:	461c      	mov	r4, r3
  e2:	cc0f      	ldmia	r4!, {r0, r1, r2, r3}
  e4:	c50f      	stmia	r5!, {r0, r1, r2, r3}
  e6:	cc0f      	ldmia	r4!, {r0, r1, r2, r3}
  e8:	c50f      	stmia	r5!, {r0, r1, r2, r3}
  ea:	cc0f      	ldmia	r4!, {r0, r1, r2, r3}
  ec:	c50f      	stmia	r5!, {r0, r1, r2, r3}
  ee:	e894 000f 	ldmia.w	r4, {r0, r1, r2, r3}
  f2:	e885 000f 	stmia.w	r5, {r0, r1, r2, r3}
C:\tien\PROJEKTY\procesory\STM\T108_V100a\sources/gui.c:4740
    Service_Variables_Set = Service_Variables;
  f6:	4905      	ldr	r1, [pc, #20]	(10c <Read_Settings+0x10c>)
  f8:	2280      	movs	r2, #128
  fa:	480a      	ldr	r0, [pc, #40]	(124 <Read_Settings+0x124>)
  fc:	f7ff fffe 	bl	0 <memcpy>
C:\tien\PROJEKTY\procesory\STM\T108_V100a\sources/gui.c:4741
}
 100:	bd70      	pop	{r4, r5, r6, pc}
 102:	46c0      	nop			(mov r8, r8)
 104:	0801fc00 	.word	0x0801fc00
	...
 110:	0801fc80 	.word	0x0801fc80
 114:	00000000 	.word	0x00000000
 118:	000002dc 	.word	0x000002dc
 11c:	0000035c 	.word	0x0000035c
	...
Disassembly of section .text.Gui_Init:

00000000 <Gui_Init>:
Gui_Init():
C:\tien\PROJEKTY\procesory\STM\T108_V100a\sources/gui.c:2131
* Input          : None
* Output         : None
* Return         : None
*******************************************************************************/
void Gui_Init ( void )
{
   0:	b510      	push	{r4, lr}
C:\tien\PROJEKTY\procesory\STM\T108_V100a\sources/gui.c:2132
    Read_Settings();
   2:	f7ff fffe 	bl	0 <Gui_Init>
C:\tien\PROJEKTY\procesory\STM\T108_V100a\sources/gui.c:2133
    Update_Lock_Counter ( Controller_Variables.Controller_Vars.Lock_Counter );
   6:	4b05      	ldr	r3, [pc, #20]	(1c <Gui_Init+0x1c>)
   8:	8cd8      	ldrh	r0, [r3, #38]
   a:	f7ff fffe 	bl	0 <Gui_Init>
C:\tien\PROJEKTY\procesory\STM\T108_V100a\sources/gui.c:2134
    Lock_Init();
   e:	f7ff fffe 	bl	0 <Gui_Init>
C:\tien\PROJEKTY\procesory\STM\T108_V100a\sources/gui.c:2135
    Reload_Screen = TRUE;
  12:	4b03      	ldr	r3, [pc, #12]	(20 <Gui_Init+0x20>)
  14:	2201      	movs	r2, #1
  16:	701a      	strb	r2, [r3, #0]
C:\tien\PROJEKTY\procesory\STM\T108_V100a\sources/gui.c:2136
}
  18:	bd10      	pop	{r4, pc}
  1a:	46c0      	nop			(mov r8, r8)
	...
Disassembly of section .text.Display_On_Screen:

00000000 <Display_On_Screen>:
Display_On_Screen():
C:\tien\PROJEKTY\procesory\STM\T108_V100a\sources/gui.c:1688
* Input          : None
* Output         : None
* Return         : None
*******************************************************************************/
void Display_On_Screen ( void )
{
   0:	e92d 43f7 	stmdb	sp!, {r0, r1, r2, r4, r5, r6, r7, r8, r9, lr}
C:\tien\PROJEKTY\procesory\STM\T108_V100a\sources/gui.c:1701
    _String_Number String_Number;

    const _Strings * Str_Ptr;
    const _Variables * Var_Ptr;

    Str_Ptr = Screen_Lcd[Screen_Number].Screen_Objects->String_Ptr;
   4:	4f7a      	ldr	r7, [pc, #488]	(1f0 <Display_On_Screen+0x1f0>)
   6:	f8df 81fc 	ldr.w	r8, [pc, #508]	; 204 <Display_On_Screen+0x204>
   a:	783b      	ldrb	r3, [r7, #0]
   c:	240c      	movs	r4, #12
   e:	fb04 8303 	mla	r3, r4, r3, r8
  12:	685b      	ldr	r3, [r3, #4]
  14:	681d      	ldr	r5, [r3, #0]
C:\tien\PROJEKTY\procesory\STM\T108_V100a\sources/gui.c:1702
    Var_Ptr = Screen_Lcd[Screen_Number].Screen_Objects->Variable_Ptr;
  16:	689e      	ldr	r6, [r3, #8]
C:\tien\PROJEKTY\procesory\STM\T108_V100a\sources/gui.c:1705

/******************************Displaying strings*****************************/
    if ( Reload_Screen == TRUE )
  18:	4b76      	ldr	r3, [pc, #472]	(1f4 <Display_On_Screen+0x1f4>)
  1a:	781b      	ldrb	r3, [r3, #0]
  1c:	2b01      	cmp	r3, #1
  1e:	f040 814c 	bne.w	2ba <Display_On_Screen+0x2ba>
C:\tien\PROJEKTY\procesory\STM\T108_V100a\sources/gui.c:1707
    {
        Lcd_Clear_Buffer ( &Lcd_Buffer );
  22:	4875      	ldr	r0, [pc, #468]	(1d8 <Lcd_Clear_Buffer+0x1d8>)
  24:	f7ff fffe 	bl	0 <Lcd_Clear_Buffer>
C:\tien\PROJEKTY\procesory\STM\T108_V100a\sources/gui.c:1709

        if ( Str_Ptr != NULL )
  28:	b31d      	cbz	r5, 72 <Display_On_Screen+0x72>
C:\tien\PROJEKTY\procesory\STM\T108_V100a\sources/gui.c:1711
        {
            if ( Screen_Lcd[Screen_Number].Screen_Objects->String_Mask == NULL )
  2a:	783b      	ldrb	r3, [r7, #0]
  2c:	fb04 8303 	mla	r3, r4, r3, r8
  30:	685b      	ldr	r3, [r3, #4]
  32:	4c72      	ldr	r4, [pc, #456]	(1fc <Display_On_Screen+0x1fc>)
  34:	68db      	ldr	r3, [r3, #12]
  36:	b90b      	cbnz	r3, 3c <Display_On_Screen+0x3c>
C:\tien\PROJEKTY\procesory\STM\T108_V100a\sources/gui.c:1713
            {
                Mask_Shift_Reg = 0xffffffff;
  38:	3b01      	subs	r3, #1
  3a:	e000      	b.n	3e <Display_On_Screen+0x3e>
C:\tien\PROJEKTY\procesory\STM\T108_V100a\sources/gui.c:1717
            }
            else
            {
                Mask_Shift_Reg = *Screen_Lcd[Screen_Number].Screen_Objects->String_Mask;
  3c:	681b      	ldr	r3, [r3, #0]
  3e:	6363      	str	r3, [r4, #52]
C:\tien\PROJEKTY\procesory\STM\T108_V100a\sources/gui.c:1722
            }

            while ( Str_Ptr != NULL )
            {
                Lcd_Set_Address (Str_Ptr->String_X_Pos,Str_Ptr->String_Y_Pos);
  40:	78a9      	ldrb	r1, [r5, #2]
  42:	7868      	ldrb	r0, [r5, #1]
  44:	f7ff fffe 	bl	0 <Lcd_Set_Address>
C:\tien\PROJEKTY\procesory\STM\T108_V100a\sources/gui.c:1725
                String_Number = Str_Ptr->String_Num;
 
                if ( Mask_Shift_Reg & ( Mask_Shift_Bit<<Str_Ptr->String_Index ) )
  48:	782a      	ldrb	r2, [r5, #0]
  4a:	2301      	movs	r3, #1
  4c:	4093      	lsls	r3, r2
  4e:	4a6b      	ldr	r2, [pc, #428]	(1fc <Display_On_Screen+0x1fc>)
C:\tien\PROJEKTY\procesory\STM\T108_V100a\sources/gui.c:1723
            }

            while ( Str_Ptr != NULL )
            {
                Lcd_Set_Address (Str_Ptr->String_X_Pos,Str_Ptr->String_Y_Pos);
                String_Number = Str_Ptr->String_Num;
  50:	78e9      	ldrb	r1, [r5, #3]
C:\tien\PROJEKTY\procesory\STM\T108_V100a\sources/gui.c:1725
 
                if ( Mask_Shift_Reg & ( Mask_Shift_Bit<<Str_Ptr->String_Index ) )
  52:	6b52      	ldr	r2, [r2, #52]
  54:	4213      	tst	r3, r2
  56:	d009      	beq.n	6c <Display_On_Screen+0x6c>
C:\tien\PROJEKTY\procesory\STM\T108_V100a\sources/gui.c:1727
                {
                    Lcd_Write_Buffer ( &Lcd_Buffer, *(String_Number+Str_Ptr->Languages_Ptr->Languages_Tab[Language_Num]) );
  58:	4b69      	ldr	r3, [pc, #420]	(200 <Display_On_Screen+0x200>)
  5a:	686a      	ldr	r2, [r5, #4]
  5c:	781b      	ldrb	r3, [r3, #0]
  5e:	4866      	ldr	r0, [pc, #408]	(1f8 <Display_On_Screen+0x1f8>)
  60:	f852 3023 	ldr.w	r3, [r2, r3, lsl #2]
  64:	f853 1021 	ldr.w	r1, [r3, r1, lsl #2]
  68:	f7ff fffe 	bl	0 <Lcd_Write_Buffer>
C:\tien\PROJEKTY\procesory\STM\T108_V100a\sources/gui.c:1730
                }

                Str_Ptr = Str_Ptr->Next_String;
  6c:	68ad      	ldr	r5, [r5, #8]
C:\tien\PROJEKTY\procesory\STM\T108_V100a\sources/gui.c:1720
            else
            {
                Mask_Shift_Reg = *Screen_Lcd[Screen_Number].Screen_Objects->String_Mask;
            }

            while ( Str_Ptr != NULL )
  6e:	2d00      	cmp	r5, #0
  70:	d1e6      	bne.n	40 <Display_On_Screen+0x40>
C:\tien\PROJEKTY\procesory\STM\T108_V100a\sources/gui.c:1737
        }
/******************************************************************************/

/****************************Displaying menu list******************************/

        if ( Screen_Lcd[Screen_Number].Screen_Objects->Menu_Ptr != NULL )
  72:	4b5f      	ldr	r3, [pc, #380]	(1f0 <Display_On_Screen+0x1f0>)
  74:	4a63      	ldr	r2, [pc, #396]	(204 <Display_On_Screen+0x204>)
  76:	781b      	ldrb	r3, [r3, #0]
  78:	210c      	movs	r1, #12
  7a:	fb01 2303 	mla	r3, r1, r3, r2
  7e:	685a      	ldr	r2, [r3, #4]
  80:	6853      	ldr	r3, [r2, #4]
  82:	2b00      	cmp	r3, #0
  84:	d06f      	beq.n	166 <Display_On_Screen+0x166>
C:\tien\PROJEKTY\procesory\STM\T108_V100a\sources/gui.c:1739
        {
            if ( Screen_Lcd[Screen_Number].Screen_Objects->Menu_Mask == NULL )
  86:	6913      	ldr	r3, [r2, #16]
  88:	4c5c      	ldr	r4, [pc, #368]	(1fc <Display_On_Screen+0x1fc>)
  8a:	b90b      	cbnz	r3, 90 <Display_On_Screen+0x90>
C:\tien\PROJEKTY\procesory\STM\T108_V100a\sources/gui.c:1741
            {
                Mask_Shift_Reg = 0xffffffff;
  8c:	3b01      	subs	r3, #1
  8e:	e000      	b.n	92 <Display_On_Screen+0x92>
C:\tien\PROJEKTY\procesory\STM\T108_V100a\sources/gui.c:1745
            }
            else
            {
                Mask_Shift_Reg = *Screen_Lcd[Screen_Number].Screen_Objects->Menu_Mask;
  90:	681b      	ldr	r3, [r3, #0]
  92:	6363      	str	r3, [r4, #52]
C:\tien\PROJEKTY\procesory\STM\T108_V100a\sources/gui.c:1748
            }

            for ( i = 0; i < Screen_Lcd[Screen_Number].Screen_Objects->Menu_Ptr->Lines_On_Screen; i++ )
  94:	4b59      	ldr	r3, [pc, #356]	(1fc <Display_On_Screen+0x1fc>)
  96:	2200      	movs	r2, #0
  98:	f883 2038 	strb.w	r2, [r3, #56]
  9c:	e02a      	b.n	f4 <Display_On_Screen+0xf4>
C:\tien\PROJEKTY\procesory\STM\T108_V100a\sources/gui.c:1750
            {
                String_Number = Screen_Lcd[Screen_Number].Screen_Objects->Menu_Ptr->Menu_String_Num[(i+Menu_Keys.First_On_Screen)];
  9e:	f895 3038 	ldrb.w	r3, [r5, #56]
  a2:	7c6a      	ldrb	r2, [r5, #17]
  a4:	18c3      	adds	r3, r0, r3
  a6:	189b      	adds	r3, r3, r2
  a8:	7a1c      	ldrb	r4, [r3, #8]
C:\tien\PROJEKTY\procesory\STM\T108_V100a\sources/gui.c:1752

                Lcd_Set_Address( Screen_Lcd[Screen_Number].Screen_Objects->Menu_Ptr->Menu_X_Pos, Screen_Lcd[Screen_Number].Screen_Objects->Menu_Ptr->Menu_Y_Pos + i);
  aa:	f895 1038 	ldrb.w	r1, [r5, #56]
  ae:	7843      	ldrb	r3, [r0, #1]
  b0:	7800      	ldrb	r0, [r0, #0]
  b2:	18c9      	adds	r1, r1, r3
  b4:	b2c9      	uxtb	r1, r1
  b6:	f7ff fffe 	bl	0 <Lcd_Set_Address>
C:\tien\PROJEKTY\procesory\STM\T108_V100a\sources/gui.c:1754

                if ( Mask_Shift_Reg & ( Mask_Shift_Bit<<i ) )
  ba:	f895 2038 	ldrb.w	r2, [r5, #56]
  be:	2301      	movs	r3, #1
  c0:	4093      	lsls	r3, r2
  c2:	6b6a      	ldr	r2, [r5, #52]
  c4:	4213      	tst	r3, r2
  c6:	d00e      	beq.n	e6 <Display_On_Screen+0xe6>
C:\tien\PROJEKTY\procesory\STM\T108_V100a\sources/gui.c:1756
                {
                    Lcd_Write_Buffer ( &Lcd_Buffer, *(String_Number+Screen_Lcd[Screen_Number].Screen_Objects->Menu_Ptr->Languages_Ptr->Languages_Tab[Language_Num]) );
  c8:	783b      	ldrb	r3, [r7, #0]
  ca:	484b      	ldr	r0, [pc, #300]	(1f8 <Display_On_Screen+0x1f8>)
  cc:	fb08 9303 	mla	r3, r8, r3, r9
  d0:	685b      	ldr	r3, [r3, #4]
  d2:	685b      	ldr	r3, [r3, #4]
  d4:	685a      	ldr	r2, [r3, #4]
  d6:	4b4a      	ldr	r3, [pc, #296]	(200 <Display_On_Screen+0x200>)
  d8:	781b      	ldrb	r3, [r3, #0]
  da:	f852 3023 	ldr.w	r3, [r2, r3, lsl #2]
  de:	f853 1024 	ldr.w	r1, [r3, r4, lsl #2]
  e2:	f7ff fffe 	bl	0 <Lcd_Write_Buffer>
C:\tien\PROJEKTY\procesory\STM\T108_V100a\sources/gui.c:1748
            else
            {
                Mask_Shift_Reg = *Screen_Lcd[Screen_Number].Screen_Objects->Menu_Mask;
            }

            for ( i = 0; i < Screen_Lcd[Screen_Number].Screen_Objects->Menu_Ptr->Lines_On_Screen; i++ )
  e6:	4a45      	ldr	r2, [pc, #276]	(1fc <Display_On_Screen+0x1fc>)
  e8:	f892 3038 	ldrb.w	r3, [r2, #56]
  ec:	3301      	adds	r3, #1
  ee:	b2db      	uxtb	r3, r3
  f0:	f882 3038 	strb.w	r3, [r2, #56]
  f4:	4f3e      	ldr	r7, [pc, #248]	(1f0 <Display_On_Screen+0x1f0>)
  f6:	f8df 910c 	ldr.w	r9, [pc, #268]	; 204 <Display_On_Screen+0x204>
  fa:	783b      	ldrb	r3, [r7, #0]
  fc:	f04f 080c 	mov.w	r8, #12	; 0xc
 100:	fb08 9303 	mla	r3, r8, r3, r9
 104:	685b      	ldr	r3, [r3, #4]
 106:	4d3d      	ldr	r5, [pc, #244]	(1fc <Display_On_Screen+0x1fc>)
 108:	6858      	ldr	r0, [r3, #4]
 10a:	f895 2038 	ldrb.w	r2, [r5, #56]
 10e:	7883      	ldrb	r3, [r0, #2]
 110:	4293      	cmp	r3, r2
 112:	d8c4      	bhi.n	9e <Display_On_Screen+0x9e>
C:\tien\PROJEKTY\procesory\STM\T108_V100a\sources/gui.c:1760
                {
                    Lcd_Write_Buffer ( &Lcd_Buffer, *(String_Number+Screen_Lcd[Screen_Number].Screen_Objects->Menu_Ptr->Languages_Ptr->Languages_Tab[Language_Num]) );
                }
            }
            String_Number = St_R;
            Lcd_Set_Address ( 0, Menu_Keys.Active_On_Screen+1);
 114:	7ce9      	ldrb	r1, [r5, #19]
 116:	2000      	movs	r0, #0
 118:	3101      	adds	r1, #1
 11a:	b2c9      	uxtb	r1, r1
 11c:	f7ff fffe 	bl	0 <Lcd_Set_Address>
C:\tien\PROJEKTY\procesory\STM\T108_V100a\sources/gui.c:1761
            Lcd_Write_Buffer ( &Lcd_Buffer, *(String_Number+Screen_Lcd[Screen_Number].Screen_Objects->Menu_Ptr->Languages_Ptr->Languages_Tab[Language_Num]) );
 120:	783b      	ldrb	r3, [r7, #0]
 122:	4c37      	ldr	r4, [pc, #220]	(200 <Display_On_Screen+0x200>)
 124:	fb08 9303 	mla	r3, r8, r3, r9
 128:	685b      	ldr	r3, [r3, #4]
 12a:	4833      	ldr	r0, [pc, #204]	(1f8 <Display_On_Screen+0x1f8>)
 12c:	685b      	ldr	r3, [r3, #4]
 12e:	685a      	ldr	r2, [r3, #4]
 130:	7823      	ldrb	r3, [r4, #0]
 132:	f852 3023 	ldr.w	r3, [r2, r3, lsl #2]
 136:	f8d3 1110 	ldr.w	r1, [r3, #272]
 13a:	f7ff fffe 	bl	0 <Lcd_Write_Buffer>
C:\tien\PROJEKTY\procesory\STM\T108_V100a\sources/gui.c:1763
            String_Number = St_L;
            Lcd_Set_Address ( 19, Menu_Keys.Active_On_Screen+1);
 13e:	7ce9      	ldrb	r1, [r5, #19]
 140:	2013      	movs	r0, #19
 142:	3101      	adds	r1, #1
 144:	b2c9      	uxtb	r1, r1
 146:	f7ff fffe 	bl	0 <Lcd_Set_Address>
C:\tien\PROJEKTY\procesory\STM\T108_V100a\sources/gui.c:1764
            Lcd_Write_Buffer ( &Lcd_Buffer, *(String_Number+Screen_Lcd[Screen_Number].Screen_Objects->Menu_Ptr->Languages_Ptr->Languages_Tab[Language_Num]) );
 14a:	783b      	ldrb	r3, [r7, #0]
 14c:	482a      	ldr	r0, [pc, #168]	(1f8 <Display_On_Screen+0x1f8>)
 14e:	fb08 9303 	mla	r3, r8, r3, r9
 152:	685b      	ldr	r3, [r3, #4]
 154:	685b      	ldr	r3, [r3, #4]
 156:	685a      	ldr	r2, [r3, #4]
 158:	7823      	ldrb	r3, [r4, #0]
 15a:	f852 3023 	ldr.w	r3, [r2, r3, lsl #2]
 15e:	f8d3 1114 	ldr.w	r1, [r3, #276]
 162:	f7ff fffe 	bl	0 <Lcd_Write_Buffer>
C:\tien\PROJEKTY\procesory\STM\T108_V100a\sources/gui.c:1771
        }

/******************************************************************************/

/****************************Displaying Variables******************************/
        if ( Var_Ptr != NULL )
 166:	2e00      	cmp	r6, #0
 168:	f000 809c 	beq.w	2a4 <Display_On_Screen+0x2a4>
C:\tien\PROJEKTY\procesory\STM\T108_V100a\sources/gui.c:1773
        {
            if ( Screen_Lcd[Screen_Number].Screen_Objects->Variable_Mask == NULL )
 16c:	4b20      	ldr	r3, [pc, #128]	(1f0 <Display_On_Screen+0x1f0>)
 16e:	4a25      	ldr	r2, [pc, #148]	(204 <Display_On_Screen+0x204>)
 170:	781b      	ldrb	r3, [r3, #0]
 172:	210c      	movs	r1, #12
 174:	fb01 2303 	mla	r3, r1, r3, r2
 178:	685b      	ldr	r3, [r3, #4]
 17a:	4c20      	ldr	r4, [pc, #128]	(1fc <Display_On_Screen+0x1fc>)
 17c:	695b      	ldr	r3, [r3, #20]
 17e:	b90b      	cbnz	r3, 184 <Display_On_Screen+0x184>
C:\tien\PROJEKTY\procesory\STM\T108_V100a\sources/gui.c:1775
            {
                Mask_Shift_Reg = 0xffffffff;
 180:	3b01      	subs	r3, #1
 182:	e000      	b.n	186 <Display_On_Screen+0x186>
C:\tien\PROJEKTY\procesory\STM\T108_V100a\sources/gui.c:1779
            }
            else
            {
                Mask_Shift_Reg = *Screen_Lcd[Screen_Number].Screen_Objects->Variable_Mask;
 184:	681b      	ldr	r3, [r3, #0]
 186:	6363      	str	r3, [r4, #52]
C:\tien\PROJEKTY\procesory\STM\T108_V100a\sources/gui.c:1784
            }
 
            while ( Var_Ptr != NULL )
            {
                Lcd_Set_Address ( Var_Ptr->Variable_X_Pos, Var_Ptr->Variable_Y_Pos);
 188:	7870      	ldrb	r0, [r6, #1]
 18a:	78b1      	ldrb	r1, [r6, #2]
 18c:	f7ff fffe 	bl	0 <Lcd_Set_Address>
C:\tien\PROJEKTY\procesory\STM\T108_V100a\sources/gui.c:1786
           
                if ( Var_Ptr->Var_Param_Ptr->Variable_Type == TEXT_VAR )
 190:	68f4      	ldr	r4, [r6, #12]
 192:	7820      	ldrb	r0, [r4, #0]
 194:	b960      	cbnz	r0, 1b0 <Display_On_Screen+0x1b0>
C:\tien\PROJEKTY\procesory\STM\T108_V100a\sources/gui.c:1793
                    if ( String_Number > STRINGS_COUNT )
                    {
                        String_Number = STRINGS_COUNT;  
                    }                
                    String_Number = Var_Ptr->Var_Param_Ptr->Variable_String_Num[*(uint8_t *)(Var_Ptr->Var_Ptr)];
                    Lcd_Write_Buffer ( &Lcd_Buffer, *(String_Number+Var_Ptr->Languages_Ptr->Languages_Tab[Language_Num]) );
 196:	4b1a      	ldr	r3, [pc, #104]	(200 <Display_On_Screen+0x200>)
 198:	6930      	ldr	r0, [r6, #16]
 19a:	7819      	ldrb	r1, [r3, #0]
 19c:	6873      	ldr	r3, [r6, #4]
 19e:	781b      	ldrb	r3, [r3, #0]
 1a0:	18e3      	adds	r3, r4, r3
 1a2:	791a      	ldrb	r2, [r3, #4]
 1a4:	f850 3021 	ldr.w	r3, [r0, r1, lsl #2]
 1a8:	4813      	ldr	r0, [pc, #76]	(1f8 <Display_On_Screen+0x1f8>)
 1aa:	f853 1022 	ldr.w	r1, [r3, r2, lsl #2]
 1ae:	e03a      	b.n	226 <Display_On_Screen+0x226>
C:\tien\PROJEKTY\procesory\STM\T108_V100a\sources/gui.c:1798
 
                }
                else
                {
                    if ( Mask_Shift_Reg & ( Mask_Shift_Bit<<Var_Ptr->Variable_Index ) )
 1b0:	7833      	ldrb	r3, [r6, #0]
 1b2:	2201      	movs	r2, #1
 1b4:	409a      	lsls	r2, r3
 1b6:	4911      	ldr	r1, [pc, #68]	(1fc <Display_On_Screen+0x1fc>)
 1b8:	6b4b      	ldr	r3, [r1, #52]
 1ba:	421a      	tst	r2, r3
 1bc:	d035      	beq.n	22a <Display_On_Screen+0x22a>
C:\tien\PROJEKTY\procesory\STM\T108_V100a\sources/gui.c:1800
                    {
                        if ( Var_Ptr->Var_Param_Ptr->Variable_Type == DIGITS_VAR )
 1be:	2801      	cmp	r0, #1
 1c0:	d12f      	bne.n	222 <Display_On_Screen+0x222>
C:\tien\PROJEKTY\procesory\STM\T108_V100a\sources/gui.c:1802
                        {
                            switch ( Var_Ptr->Var_Param_Ptr->Variable_Size )
 1c2:	7863      	ldrb	r3, [r4, #1]
 1c4:	2b05      	cmp	r3, #5
 1c6:	d822      	bhi.n	20e <Display_On_Screen+0x20e>
 1c8:	e8df f003 	tbb	[pc, r3]
 1cc:	091e0603 	.word	0x091e0603
 1d0:	1e0d      	.short	0x1e0d
C:\tien\PROJEKTY\procesory\STM\T108_V100a\sources/gui.c:1805
                            {
                            case VAR_U8:
                                Digit_Conv = *(uint8_t*)Var_Ptr->Var_Ptr;//Bin2String ( *(uint8_t*)Var_Ptr->Var_Ptr, Variable_Tab, Var_Ptr->Var_Param_Ptr->Variable_Digits_Count, Var_Ptr->Var_Param_Ptr->Variable_Resolution, Var_Ptr->Var_Param_Ptr->Variable_Hide_Zeros );
 1d2:	6873      	ldr	r3, [r6, #4]
 1d4:	781b      	ldrb	r3, [r3, #0]
 1d6:	e019      	b.n	20c <Display_On_Screen+0x20c>
C:\tien\PROJEKTY\procesory\STM\T108_V100a\sources/gui.c:1809
                            break;

                            case VAR_U16:
                                Digit_Conv = *(uint16_t*)Var_Ptr->Var_Ptr;//Bin2String ( *(uint16_t*)Var_Ptr->Var_Ptr, Variable_Tab, Var_Ptr->Var_Param_Ptr->Variable_Digits_Count, Var_Ptr->Var_Param_Ptr->Variable_Resolution, Var_Ptr->Var_Param_Ptr->Variable_Hide_Zeros );
 1d8:	6873      	ldr	r3, [r6, #4]
 1da:	881b      	ldrh	r3, [r3, #0]
 1dc:	e016      	b.n	20c <Display_On_Screen+0x20c>
C:\tien\PROJEKTY\procesory\STM\T108_V100a\sources/gui.c:1817
                            case VAR_U32:
                                Digit_Conv = *(uint32_t*)Var_Ptr->Var_Ptr;//Bin2String ( *(uint32_t*)Var_Ptr->Var_Ptr, Variable_Tab, Var_Ptr->Var_Param_Ptr->Variable_Digits_Count, Var_Ptr->Var_Param_Ptr->Variable_Resolution, Var_Ptr->Var_Param_Ptr->Variable_Hide_Zeros );
                            break;
  
                            case VAR_S8:
                                Digit_Conv = *(int8_t*)Var_Ptr->Var_Ptr;//Bin2String ( *(int8_t*)Var_Ptr->Var_Ptr, Variable_Tab, Var_Ptr->Var_Param_Ptr->Variable_Digits_Count, Var_Ptr->Var_Param_Ptr->Variable_Resolution, Var_Ptr->Var_Param_Ptr->Variable_Hide_Zeros );
 1de:	6873      	ldr	r3, [r6, #4]
 1e0:	f993 3000 	ldrsb.w	r3, [r3]
 1e4:	e012      	b.n	20c <Display_On_Screen+0x20c>
C:\tien\PROJEKTY\procesory\STM\T108_V100a\sources/gui.c:1821
                            break;

                            case VAR_S16:
                                Digit_Conv = *(int16_t*)Var_Ptr->Var_Ptr;//Bin2String ( *(int16_t*)Var_Ptr->Var_Ptr, Variable_Tab, Var_Ptr->Var_Param_Ptr->Variable_Digits_Count, Var_Ptr->Var_Param_Ptr->Variable_Resolution, Var_Ptr->Var_Param_Ptr->Variable_Hide_Zeros );
 1e6:	6873      	ldr	r3, [r6, #4]
 1e8:	f9b3 3000 	ldrsh.w	r3, [r3]
 1ec:	e00e      	b.n	20c <Display_On_Screen+0x20c>
 1ee:	46c0      	nop			(mov r8, r8)
	...
C:\tien\PROJEKTY\procesory\STM\T108_V100a\sources/gui.c:1825
                            break;

                            case VAR_S32:
                                Digit_Conv = *(int32_t*)Var_Ptr->Var_Ptr;//Bin2String ( *(int32_t*)Var_Ptr->Var_Ptr, Variable_Tab, Var_Ptr->Var_Param_Ptr->Variable_Digits_Count, Var_Ptr->Var_Param_Ptr->Variable_Resolution, Var_Ptr->Var_Param_Ptr->Variable_Hide_Zeros );
 208:	6873      	ldr	r3, [r6, #4]
 20a:	681b      	ldr	r3, [r3, #0]
 20c:	63cb      	str	r3, [r1, #60]
C:\tien\PROJEKTY\procesory\STM\T108_V100a\sources/gui.c:1829
                            break;
                            }

                            Bin2String ( Digit_Conv, Variable_Tab, Var_Ptr->Var_Param_Ptr->Variable_Digits_Count, Var_Ptr->Var_Param_Ptr->Variable_Resolution, Var_Ptr->Var_Param_Ptr->Variable_Hide_Zeros );
 20e:	68f0      	ldr	r0, [r6, #12]
 210:	493a      	ldr	r1, [pc, #232]	(2fc <Display_On_Screen+0x2fc>)
 212:	7882      	ldrb	r2, [r0, #2]
 214:	78c3      	ldrb	r3, [r0, #3]
 216:	7d00      	ldrb	r0, [r0, #20]
 218:	9000      	str	r0, [sp, #0]
 21a:	6bc8      	ldr	r0, [r1, #60]
 21c:	3140      	adds	r1, #64
 21e:	f7ff fffe 	bl	0 <Display_On_Screen>
C:\tien\PROJEKTY\procesory\STM\T108_V100a\sources/gui.c:1832
                        }
                    
                        Lcd_Write_Buffer ( &Lcd_Buffer, Variable_Tab);
 222:	4837      	ldr	r0, [pc, #220]	(300 <Display_On_Screen+0x300>)
 224:	4937      	ldr	r1, [pc, #220]	(304 <Display_On_Screen+0x304>)
 226:	f7ff fffe 	bl	0 <Lcd_Write_Buffer>
C:\tien\PROJEKTY\procesory\STM\T108_V100a\sources/gui.c:1836
                    }
                }       

                if ( Variable_Editing_Ptr != NULL )
 22a:	4d37      	ldr	r5, [pc, #220]	(308 <Display_On_Screen+0x308>)
 22c:	4c33      	ldr	r4, [pc, #204]	(2fc <Display_On_Screen+0x2fc>)
 22e:	682b      	ldr	r3, [r5, #0]
 230:	2b00      	cmp	r3, #0
 232:	d031      	beq.n	298 <Display_On_Screen+0x298>
C:\tien\PROJEKTY\procesory\STM\T108_V100a\sources/gui.c:1839
                {
                   String_Number = St_R;
                   Lcd_Set_Address ( (Variable_Editing_Ptr->Variable_X_Pos)-1, Variable_Editing_Ptr->Variable_Y_Pos);
 234:	7858      	ldrb	r0, [r3, #1]
 236:	7899      	ldrb	r1, [r3, #2]
 238:	3801      	subs	r0, #1
 23a:	b2c0      	uxtb	r0, r0
 23c:	f7ff fffe 	bl	0 <Lcd_Set_Address>
C:\tien\PROJEKTY\procesory\STM\T108_V100a\sources/gui.c:1840
                   Lcd_Write_Buffer ( &Lcd_Buffer, *(String_Number+Var_Ptr->Languages_Ptr->Languages_Tab[Language_Num]) );
 240:	4b32      	ldr	r3, [pc, #200]	(30c <Display_On_Screen+0x30c>)
 242:	6932      	ldr	r2, [r6, #16]
 244:	781b      	ldrb	r3, [r3, #0]
 246:	482e      	ldr	r0, [pc, #184]	(300 <Display_On_Screen+0x300>)
 248:	f852 3023 	ldr.w	r3, [r2, r3, lsl #2]
 24c:	f8d3 1110 	ldr.w	r1, [r3, #272]
 250:	f7ff fffe 	bl	0 <Lcd_Write_Buffer>
C:\tien\PROJEKTY\procesory\STM\T108_V100a\sources/gui.c:1842

                   i = Variable_Editing_Ptr->Variable_X_Pos+(Variable_Editing_Ptr->Var_Param_Ptr->Variable_Digits_Count-1)-Count_Add;
 254:	6828      	ldr	r0, [r5, #0]
 256:	68c2      	ldr	r2, [r0, #12]
 258:	7843      	ldrb	r3, [r0, #1]
 25a:	7892      	ldrb	r2, [r2, #2]
 25c:	189b      	adds	r3, r3, r2
 25e:	4a2c      	ldr	r2, [pc, #176]	(310 <Display_On_Screen+0x310>)
 260:	3b01      	subs	r3, #1
 262:	7812      	ldrb	r2, [r2, #0]
 264:	1a9b      	subs	r3, r3, r2
 266:	b2db      	uxtb	r3, r3
 268:	f884 3038 	strb.w	r3, [r4, #56]
C:\tien\PROJEKTY\procesory\STM\T108_V100a\sources/gui.c:1844

                   if ( Variable_Editing_Ptr->Var_Param_Ptr->Variable_Resolution != 0 )
 26c:	68c3      	ldr	r3, [r0, #12]
 26e:	78db      	ldrb	r3, [r3, #3]
 270:	b13b      	cbz	r3, 282 <Display_On_Screen+0x282>
C:\tien\PROJEKTY\procesory\STM\T108_V100a\sources/gui.c:1846
                   {
                       if ( Count_Add < Variable_Editing_Ptr->Var_Param_Ptr->Variable_Resolution )
 272:	429a      	cmp	r2, r3
 274:	d205      	bcs.n	282 <Display_On_Screen+0x282>
C:\tien\PROJEKTY\procesory\STM\T108_V100a\sources/gui.c:1848
                       {
                           i++;
 276:	f894 3038 	ldrb.w	r3, [r4, #56]
 27a:	3301      	adds	r3, #1
 27c:	b2db      	uxtb	r3, r3
 27e:	f884 3038 	strb.w	r3, [r4, #56]
C:\tien\PROJEKTY\procesory\STM\T108_V100a\sources/gui.c:1852
                       }    
                   }
               
                   Object_Pos_Temp.Object_X_Pos = i;
 282:	491e      	ldr	r1, [pc, #120]	(2fc <Display_On_Screen+0x2fc>)
 284:	4a23      	ldr	r2, [pc, #140]	(314 <Display_On_Screen+0x314>)
 286:	f891 3038 	ldrb.w	r3, [r1, #56]
 28a:	7013      	strb	r3, [r2, #0]
C:\tien\PROJEKTY\procesory\STM\T108_V100a\sources/gui.c:1853
                   Object_Pos_Temp.Object_Y_Pos = Variable_Editing_Ptr->Variable_Y_Pos;
 28c:	7883      	ldrb	r3, [r0, #2]
 28e:	7053      	strb	r3, [r2, #1]
C:\tien\PROJEKTY\procesory\STM\T108_V100a\sources/gui.c:1854
                   Var_Underline = TRUE;    
 290:	2301      	movs	r3, #1
 292:	f881 304b 	strb.w	r3, [r1, #75]
 296:	e001      	b.n	29c <Display_On_Screen+0x29c>
C:\tien\PROJEKTY\procesory\STM\T108_V100a\sources/gui.c:1858
                }
                else
                {
                    Var_Underline = FALSE;
 298:	f884 304b 	strb.w	r3, [r4, #75]
C:\tien\PROJEKTY\procesory\STM\T108_V100a\sources/gui.c:1861
                }

                Var_Ptr = Var_Ptr->Next_Variable;
 29c:	6976      	ldr	r6, [r6, #20]
C:\tien\PROJEKTY\procesory\STM\T108_V100a\sources/gui.c:1782
            else
            {
                Mask_Shift_Reg = *Screen_Lcd[Screen_Number].Screen_Objects->Variable_Mask;
            }
 
            while ( Var_Ptr != NULL )
 29e:	2e00      	cmp	r6, #0
 2a0:	f47f af72 	bne.w	188 <Display_On_Screen+0x188>
C:\tien\PROJEKTY\procesory\STM\T108_V100a\sources/gui.c:1865

                Var_Ptr = Var_Ptr->Next_Variable;
            };
        }
/******************************************************************************/
        Reload_Screen = FALSE;
 2a4:	4b1c      	ldr	r3, [pc, #112]	(318 <Display_On_Screen+0x318>)
 2a6:	2200      	movs	r2, #0
C:\tien\PROJEKTY\procesory\STM\T108_V100a\sources/gui.c:1867

        Enable_Lcd_Write = TRUE;
 2a8:	4914      	ldr	r1, [pc, #80]	(2fc <Display_On_Screen+0x2fc>)
C:\tien\PROJEKTY\procesory\STM\T108_V100a\sources/gui.c:1865

                Var_Ptr = Var_Ptr->Next_Variable;
            };
        }
/******************************************************************************/
        Reload_Screen = FALSE;
 2aa:	701a      	strb	r2, [r3, #0]
C:\tien\PROJEKTY\procesory\STM\T108_V100a\sources/gui.c:1867

        Enable_Lcd_Write = TRUE;
 2ac:	2301      	movs	r3, #1
 2ae:	f881 304c 	strb.w	r3, [r1, #76]
C:\tien\PROJEKTY\procesory\STM\T108_V100a\sources/gui.c:1869
        Lcd_Write_Strobe = FALSE;
        Lcd_Write_Ptr = 0;
 2b2:	4b1a      	ldr	r3, [pc, #104]	(31c <Display_On_Screen+0x31c>)
C:\tien\PROJEKTY\procesory\STM\T108_V100a\sources/gui.c:1868
        }
/******************************************************************************/
        Reload_Screen = FALSE;

        Enable_Lcd_Write = TRUE;
        Lcd_Write_Strobe = FALSE;
 2b4:	f881 204d 	strb.w	r2, [r1, #77]
C:\tien\PROJEKTY\procesory\STM\T108_V100a\sources/gui.c:1869
        Lcd_Write_Ptr = 0;
 2b8:	701a      	strb	r2, [r3, #0]
C:\tien\PROJEKTY\procesory\STM\T108_V100a\sources/gui.c:1872
    }

    if ( Enable_Lcd_Write == TRUE )
 2ba:	4b10      	ldr	r3, [pc, #64]	(2fc <Display_On_Screen+0x2fc>)
 2bc:	f893 304c 	ldrb.w	r3, [r3, #76]
 2c0:	2b01      	cmp	r3, #1
 2c2:	d102      	bne.n	2ca <Display_On_Screen+0x2ca>
C:\tien\PROJEKTY\procesory\STM\T108_V100a\sources/gui.c:1874
    {
        Lcd_Load_Buffer ( &Lcd_Buffer );           
 2c4:	480e      	ldr	r0, [pc, #56]	(300 <Display_On_Screen+0x300>)
 2c6:	f7ff fffe 	bl	0 <Lcd_Load_Buffer>
C:\tien\PROJEKTY\procesory\STM\T108_V100a\sources/gui.c:1877
    }

    if ( Var_Underline == TRUE && Enable_Lcd_Write == FALSE )
 2ca:	4c0c      	ldr	r4, [pc, #48]	(2fc <Display_On_Screen+0x2fc>)
 2cc:	f894 304b 	ldrb.w	r3, [r4, #75]
 2d0:	2b01      	cmp	r3, #1
 2d2:	d110      	bne.n	2f6 <Display_On_Screen+0x2f6>
 2d4:	f894 504c 	ldrb.w	r5, [r4, #76]
 2d8:	b96d      	cbnz	r5, 2f6 <Display_On_Screen+0x2f6>
C:\tien\PROJEKTY\procesory\STM\T108_V100a\sources/gui.c:1879
    {
        Lcd_Cmd(Lcd_Address_Base[Object_Pos_Temp.Object_Y_Pos]+Object_Pos_Temp.Object_X_Pos);    
 2da:	490e      	ldr	r1, [pc, #56]	(314 <Display_On_Screen+0x314>)
 2dc:	4b10      	ldr	r3, [pc, #64]	(320 <Display_On_Screen+0x320>)
 2de:	784a      	ldrb	r2, [r1, #1]
 2e0:	5c98      	ldrb	r0, [r3, r2]
 2e2:	780b      	ldrb	r3, [r1, #0]
 2e4:	18c0      	adds	r0, r0, r3
 2e6:	b2c0      	uxtb	r0, r0
 2e8:	f7ff fffe 	bl	0 <Lcd_Cmd>
C:\tien\PROJEKTY\procesory\STM\T108_V100a\sources/gui.c:1881

        Lcd_Cmd ( 0x0E);  
 2ec:	200e      	movs	r0, #14
 2ee:	f7ff fffe 	bl	0 <Lcd_Cmd>
C:\tien\PROJEKTY\procesory\STM\T108_V100a\sources/gui.c:1882
        Var_Underline = FALSE;    
 2f2:	f884 504b 	strb.w	r5, [r4, #75]
C:\tien\PROJEKTY\procesory\STM\T108_V100a\sources/gui.c:1884
    }
}
 2f6:	e8bd 83fe 	ldmia.w	sp!, {r1, r2, r3, r4, r5, r6, r7, r8, r9, pc}
 2fa:	46c0      	nop			(mov r8, r8)
	...
 304:	00000040 	.word	0x00000040
	...
Disassembly of section .text.Gui:

00000000 <Gui>:
Gui():
C:\tien\PROJEKTY\procesory\STM\T108_V100a\sources/gui.c:2199
* Input          : None
* Output         : None
* Return         : None
*******************************************************************************/
void Gui ( void )
{
   0:	b510      	push	{r4, lr}
C:\tien\PROJEKTY\procesory\STM\T108_V100a\sources/gui.c:2204

/**************************************************************/
/**************************************************************/
//Lock Handling function
    Lock_Handling();
   2:	f7ff fffe 	bl	0 <Gui>
C:\tien\PROJEKTY\procesory\STM\T108_V100a\sources/gui.c:2209

/**************************************************************/
/**************************************************************/
//Keyboard handling function call
    if ( Screen_Lcd[Screen_Number].Keybord_Ptr != NULL )
   6:	4b8b      	ldr	r3, [pc, #556]	(234 <Gui+0x234>)
   8:	781a      	ldrb	r2, [r3, #0]
   a:	230c      	movs	r3, #12
   c:	4353      	muls	r3, r2
   e:	4a8a      	ldr	r2, [pc, #552]	(238 <Gui+0x238>)
  10:	58d3      	ldr	r3, [r2, r3]
  12:	b103      	cbz	r3, 16 <Gui+0x16>
C:\tien\PROJEKTY\procesory\STM\T108_V100a\sources/gui.c:2211
    {
        (*Screen_Lcd[Screen_Number].Keybord_Ptr)();
  14:	4798      	blx	r3
C:\tien\PROJEKTY\procesory\STM\T108_V100a\sources/gui.c:2216
    }
/**************************************************************/
/**************************************************************/
//One second pulse timer reload screen in selected screen
	if ( System_Timer_Check ( &Screen_Reload_Timer.Timer, T_10msec ) == TRUE )
  16:	2101      	movs	r1, #1
  18:	4888      	ldr	r0, [pc, #544]	(23c <Gui+0x23c>)
  1a:	f7ff fffe 	bl	0 <System_Timer_Check>
  1e:	2801      	cmp	r0, #1
  20:	d11e      	bne.n	60 <Gui+0x60>
C:\tien\PROJEKTY\procesory\STM\T108_V100a\sources/gui.c:2218
	{
        SCREEN_PULSE ^= 1;
  22:	4b87      	ldr	r3, [pc, #540]	(240 <Gui+0x240>)
  24:	f893 204e 	ldrb.w	r2, [r3, #78]
  28:	f082 0201 	eor.w	r2, r2, #1	; 0x1
  2c:	f883 204e 	strb.w	r2, [r3, #78]
C:\tien\PROJEKTY\procesory\STM\T108_V100a\sources/gui.c:2220
    
        if ( Screen_Number == STANDBY_SCR || Screen_Number == CONTROLLER_ON || Screen_Number == ODCZYT_SERWISOWY1 || Screen_Number == ODCZYT_SERWISOWY2 || Screen_Number == ODCZYT_SERWISOWY3 || Screen_Number == TEST_WEWY || Screen_Number == PRAD1 || Screen_Number == CZUJNIKI1 )
  30:	4b80      	ldr	r3, [pc, #512]	(234 <Gui+0x234>)
  32:	781b      	ldrb	r3, [r3, #0]
  34:	2b01      	cmp	r3, #1
  36:	d90b      	bls.n	50 <Gui+0x50>
  38:	2b2f      	cmp	r3, #47
  3a:	d009      	beq.n	50 <Gui+0x50>
  3c:	2b30      	cmp	r3, #48
  3e:	d007      	beq.n	50 <Gui+0x50>
  40:	2b31      	cmp	r3, #49
  42:	d005      	beq.n	50 <Gui+0x50>
  44:	2b2a      	cmp	r3, #42
  46:	d003      	beq.n	50 <Gui+0x50>
  48:	2b15      	cmp	r3, #21
  4a:	d001      	beq.n	50 <Gui+0x50>
  4c:	2b21      	cmp	r3, #33
  4e:	d102      	bne.n	56 <Gui+0x56>
C:\tien\PROJEKTY\procesory\STM\T108_V100a\sources/gui.c:2222
        {
            Reload_Screen = TRUE;
  50:	4b7c      	ldr	r3, [pc, #496]	(244 <Gui+0x244>)
  52:	2201      	movs	r2, #1
  54:	701a      	strb	r2, [r3, #0]
C:\tien\PROJEKTY\procesory\STM\T108_V100a\sources/gui.c:2224
        }
		System_Timer_Setting ( &Screen_Reload_Timer.Timer, SCREEN_RELOAD_TIME, T_10msec );
  56:	4879      	ldr	r0, [pc, #484]	(23c <Gui+0x23c>)
  58:	2164      	movs	r1, #100
  5a:	2201      	movs	r2, #1
  5c:	f7ff fffe 	bl	0 <System_Timer_Setting>
C:\tien\PROJEKTY\procesory\STM\T108_V100a\sources/gui.c:2229
	}
/**************************************************************/
/**************************************************************/
//LICENCE STRING MASK HANDLING
    if ( Service_Variables.Serv_Vars.Blokada == 0 )
  60:	4b79      	ldr	r3, [pc, #484]	(248 <Gui+0x248>)
  62:	4a7a      	ldr	r2, [pc, #488]	(24c <Gui+0x24c>)
  64:	7a1b      	ldrb	r3, [r3, #8]
  66:	497a      	ldr	r1, [pc, #488]	(250 <Gui+0x250>)
  68:	b91b      	cbnz	r3, 72 <Gui+0x72>
C:\tien\PROJEKTY\procesory\STM\T108_V100a\sources/gui.c:2231
    {
        String_Lic_Mask = STRING_LICENCE_LOCKED;
  6a:	3377      	adds	r3, #119
  6c:	6013      	str	r3, [r2, #0]
C:\tien\PROJEKTY\procesory\STM\T108_V100a\sources/gui.c:2232
        Var_Lic_Mask = VAR_LICENCE_LOCKED;
  6e:	2307      	movs	r3, #7
  70:	e002      	b.n	78 <Gui+0x78>
C:\tien\PROJEKTY\procesory\STM\T108_V100a\sources/gui.c:2236
    }
    else
    {
        String_Lic_Mask = STRING_LICENCE_UNLOCKED;
  72:	230b      	movs	r3, #11
  74:	6013      	str	r3, [r2, #0]
C:\tien\PROJEKTY\procesory\STM\T108_V100a\sources/gui.c:2237
        Var_Lic_Mask = VAR_LICENCE_UNLOCKED; 
  76:	2300      	movs	r3, #0
  78:	600b      	str	r3, [r1, #0]
C:\tien\PROJEKTY\procesory\STM\T108_V100a\sources/gui.c:2244
/**************************************************************/
/**************************************************************/
//ENABLE SCREEN STRING MASK HANDLING
    Enable_String_Mask = ENABLE_STRING;

    Inputs_Error_Mask |= Controller_Variables.Controller_Vars.Inputs_Error;
  7a:	4a76      	ldr	r2, [pc, #472]	(254 <Gui+0x254>)
  7c:	4976      	ldr	r1, [pc, #472]	(258 <Gui+0x258>)
  7e:	8bd2      	ldrh	r2, [r2, #30]
  80:	880b      	ldrh	r3, [r1, #0]
C:\tien\PROJEKTY\procesory\STM\T108_V100a\sources/gui.c:2242
        Var_Lic_Mask = VAR_LICENCE_UNLOCKED; 
    }
/**************************************************************/
/**************************************************************/
//ENABLE SCREEN STRING MASK HANDLING
    Enable_String_Mask = ENABLE_STRING;
  82:	4876      	ldr	r0, [pc, #472]	(25c <Gui+0x25c>)
C:\tien\PROJEKTY\procesory\STM\T108_V100a\sources/gui.c:2244

    Inputs_Error_Mask |= Controller_Variables.Controller_Vars.Inputs_Error;
  84:	4313      	orrs	r3, r2
  86:	fa1f fe83 	uxth.w	lr, r3
C:\tien\PROJEKTY\procesory\STM\T108_V100a\sources/gui.c:2246

    if ( Inputs_Error_Mask & INPUT_STOP )
  8a:	f01e 0f01 	tst.w	lr, #1	; 0x1
C:\tien\PROJEKTY\procesory\STM\T108_V100a\sources/gui.c:2242
        Var_Lic_Mask = VAR_LICENCE_UNLOCKED; 
    }
/**************************************************************/
/**************************************************************/
//ENABLE SCREEN STRING MASK HANDLING
    Enable_String_Mask = ENABLE_STRING;
  8e:	f640 74ff 	movw	r4, #4095	; 0xfff
C:\tien\PROJEKTY\procesory\STM\T108_V100a\sources/gui.c:2244

    Inputs_Error_Mask |= Controller_Variables.Controller_Vars.Inputs_Error;
  92:	f8a1 e000 	strh.w	lr, [r1]
C:\tien\PROJEKTY\procesory\STM\T108_V100a\sources/gui.c:2246

    if ( Inputs_Error_Mask & INPUT_STOP )
  96:	d008      	beq.n	aa <Gui+0xaa>
C:\tien\PROJEKTY\procesory\STM\T108_V100a\sources/gui.c:2248
    {
        if ( SCREEN_PULSE == 1 )
  98:	4b69      	ldr	r3, [pc, #420]	(240 <Gui+0x240>)
  9a:	f893 304e 	ldrb.w	r3, [r3, #78]
  9e:	2b01      	cmp	r3, #1
  a0:	d103      	bne.n	aa <Gui+0xaa>
C:\tien\PROJEKTY\procesory\STM\T108_V100a\sources/gui.c:2249
            Enable_String_Mask &= ~ENABLE_STRING_STOP;
  a2:	f640 737f 	movw	r3, #3967	; 0xf7f
  a6:	6003      	str	r3, [r0, #0]
  a8:	e000      	b.n	ac <Gui+0xac>
C:\tien\PROJEKTY\procesory\STM\T108_V100a\sources/gui.c:2255
        else
            Enable_String_Mask |= ENABLE_STRING_STOP;     
    }
    else
    {
        Enable_String_Mask |= ENABLE_STRING_STOP;     
  aa:	6004      	str	r4, [r0, #0]
C:\tien\PROJEKTY\procesory\STM\T108_V100a\sources/gui.c:2261
    }




    if ( Inputs_Error_Mask & INPUT_PHOTO1 )
  ac:	f01e 0f20 	tst.w	lr, #32	; 0x20
  b0:	d009      	beq.n	c6 <Gui+0xc6>
C:\tien\PROJEKTY\procesory\STM\T108_V100a\sources/gui.c:2263
    {
        if ( SCREEN_PULSE == 1 )
  b2:	4b63      	ldr	r3, [pc, #396]	(240 <Gui+0x240>)
  b4:	4a69      	ldr	r2, [pc, #420]	(25c <Gui+0x25c>)
  b6:	f893 304e 	ldrb.w	r3, [r3, #78]
  ba:	2b01      	cmp	r3, #1
  bc:	d104      	bne.n	c8 <Gui+0xc8>
C:\tien\PROJEKTY\procesory\STM\T108_V100a\sources/gui.c:2264
            Enable_String_Mask &= ~ENABLE_STRING_PHOTO;
  be:	6813      	ldr	r3, [r2, #0]
  c0:	f023 0340 	bic.w	r3, r3, #64	; 0x40
  c4:	e003      	b.n	ce <Gui+0xce>
C:\tien\PROJEKTY\procesory\STM\T108_V100a\sources/gui.c:2270
        else
            Enable_String_Mask |= ENABLE_STRING_PHOTO;
    }
    else
    {
        Enable_String_Mask |= ENABLE_STRING_PHOTO;     
  c6:	4a65      	ldr	r2, [pc, #404]	(25c <Gui+0x25c>)
  c8:	6813      	ldr	r3, [r2, #0]
  ca:	f043 0340 	orr.w	r3, r3, #64	; 0x40
  ce:	6013      	str	r3, [r2, #0]
C:\tien\PROJEKTY\procesory\STM\T108_V100a\sources/gui.c:2275
    } 



    if ( Service_Variables.Serv_Vars.In7_Fun != 0 ) //Not disabled
  d0:	4b5d      	ldr	r3, [pc, #372]	(248 <Gui+0x248>)
  d2:	f893 305c 	ldrb.w	r3, [r3, #92]
  d6:	b173      	cbz	r3, f6 <Gui+0xf6>
C:\tien\PROJEKTY\procesory\STM\T108_V100a\sources/gui.c:2277
    {
        if ( Inputs_Error_Mask & INPUT_SE1 )
  d8:	f01e 0f02 	tst.w	lr, #2	; 0x2
  dc:	d006      	beq.n	ec <Gui+0xec>
C:\tien\PROJEKTY\procesory\STM\T108_V100a\sources/gui.c:2279
        {
            if ( SCREEN_PULSE == 1 )
  de:	4b58      	ldr	r3, [pc, #352]	(240 <Gui+0x240>)
  e0:	4a5e      	ldr	r2, [pc, #376]	(25c <Gui+0x25c>)
  e2:	f893 304e 	ldrb.w	r3, [r3, #78]
  e6:	2b01      	cmp	r3, #1
  e8:	d101      	bne.n	ee <Gui+0xee>
  ea:	e005      	b.n	f8 <Gui+0xf8>
C:\tien\PROJEKTY\procesory\STM\T108_V100a\sources/gui.c:2286
            else
                Enable_String_Mask |= ENABLE_STRING_SE1;
        }
        else
        {
            Enable_String_Mask |= ENABLE_STRING_SE1;     
  ec:	4a5b      	ldr	r2, [pc, #364]	(25c <Gui+0x25c>)
  ee:	6813      	ldr	r3, [r2, #0]
  f0:	f043 0304 	orr.w	r3, r3, #4	; 0x4
  f4:	e003      	b.n	fe <Gui+0xfe>
C:\tien\PROJEKTY\procesory\STM\T108_V100a\sources/gui.c:2291
        } 
    }
    else
    {
        Enable_String_Mask &= ~ENABLE_STRING_SE1;        
  f6:	4a59      	ldr	r2, [pc, #356]	(25c <Gui+0x25c>)
  f8:	6813      	ldr	r3, [r2, #0]
  fa:	f023 0304 	bic.w	r3, r3, #4	; 0x4
  fe:	6013      	str	r3, [r2, #0]
C:\tien\PROJEKTY\procesory\STM\T108_V100a\sources/gui.c:2294
    }

    if ( Service_Variables.Serv_Vars.In8_Fun != 0 ) //Not disabled
 100:	4b51      	ldr	r3, [pc, #324]	(248 <Gui+0x248>)
 102:	f893 305d 	ldrb.w	r3, [r3, #93]
 106:	b173      	cbz	r3, 126 <Gui+0x126>
C:\tien\PROJEKTY\procesory\STM\T108_V100a\sources/gui.c:2296
    {
        if ( Inputs_Error_Mask & INPUT_SE2 )
 108:	f01e 0f04 	tst.w	lr, #4	; 0x4
 10c:	d006      	beq.n	11c <Gui+0x11c>
C:\tien\PROJEKTY\procesory\STM\T108_V100a\sources/gui.c:2298
        {
            if ( SCREEN_PULSE == 1 )
 10e:	4b4c      	ldr	r3, [pc, #304]	(240 <Gui+0x240>)
 110:	4a52      	ldr	r2, [pc, #328]	(25c <Gui+0x25c>)
 112:	f893 304e 	ldrb.w	r3, [r3, #78]
 116:	2b01      	cmp	r3, #1
 118:	d101      	bne.n	11e <Gui+0x11e>
 11a:	e005      	b.n	128 <Gui+0x128>
C:\tien\PROJEKTY\procesory\STM\T108_V100a\sources/gui.c:2305
            else
                Enable_String_Mask |= ENABLE_STRING_SE2;
        }
        else
        {
            Enable_String_Mask |= ENABLE_STRING_SE2;     
 11c:	4a4f      	ldr	r2, [pc, #316]	(25c <Gui+0x25c>)
 11e:	6813      	ldr	r3, [r2, #0]
 120:	f043 0308 	orr.w	r3, r3, #8	; 0x8
 124:	e003      	b.n	12e <Gui+0x12e>
C:\tien\PROJEKTY\procesory\STM\T108_V100a\sources/gui.c:2310
        }
    }
    else
    {
        Enable_String_Mask &= ~ENABLE_STRING_SE2;        
 126:	4a4d      	ldr	r2, [pc, #308]	(25c <Gui+0x25c>)
 128:	6813      	ldr	r3, [r2, #0]
 12a:	f023 0308 	bic.w	r3, r3, #8	; 0x8
 12e:	6013      	str	r3, [r2, #0]
C:\tien\PROJEKTY\procesory\STM\T108_V100a\sources/gui.c:2313
    }

    if ( Service_Variables.Serv_Vars.In9_Fun != 0 ) //Not disabled
 130:	4b45      	ldr	r3, [pc, #276]	(248 <Gui+0x248>)
 132:	f893 305e 	ldrb.w	r3, [r3, #94]
 136:	b173      	cbz	r3, 156 <Gui+0x156>
C:\tien\PROJEKTY\procesory\STM\T108_V100a\sources/gui.c:2315
    {
        if ( Inputs_Error_Mask & INPUT_SE3 )
 138:	f01e 0f08 	tst.w	lr, #8	; 0x8
 13c:	d006      	beq.n	14c <Gui+0x14c>
C:\tien\PROJEKTY\procesory\STM\T108_V100a\sources/gui.c:2317
        {
            if ( SCREEN_PULSE == 1 )
 13e:	4b40      	ldr	r3, [pc, #256]	(240 <Gui+0x240>)
 140:	4a46      	ldr	r2, [pc, #280]	(25c <Gui+0x25c>)
 142:	f893 304e 	ldrb.w	r3, [r3, #78]
 146:	2b01      	cmp	r3, #1
 148:	d101      	bne.n	14e <Gui+0x14e>
 14a:	e005      	b.n	158 <Gui+0x158>
C:\tien\PROJEKTY\procesory\STM\T108_V100a\sources/gui.c:2324
            else
                Enable_String_Mask |= ENABLE_STRING_SE3;
        }
        else
        {
            Enable_String_Mask |= ENABLE_STRING_SE3;     
 14c:	4a43      	ldr	r2, [pc, #268]	(25c <Gui+0x25c>)
 14e:	6813      	ldr	r3, [r2, #0]
 150:	f043 0310 	orr.w	r3, r3, #16	; 0x10
 154:	e003      	b.n	15e <Gui+0x15e>
C:\tien\PROJEKTY\procesory\STM\T108_V100a\sources/gui.c:2329
        }
    }
    else
    {
        Enable_String_Mask &= ~ENABLE_STRING_SE3;        
 156:	4a41      	ldr	r2, [pc, #260]	(25c <Gui+0x25c>)
 158:	6813      	ldr	r3, [r2, #0]
 15a:	f023 0310 	bic.w	r3, r3, #16	; 0x10
 15e:	6013      	str	r3, [r2, #0]
C:\tien\PROJEKTY\procesory\STM\T108_V100a\sources/gui.c:2332
    }

    if ( Service_Variables.Serv_Vars.In10_Fun != 0 ) //Not disabled
 160:	4b39      	ldr	r3, [pc, #228]	(248 <Gui+0x248>)
 162:	f893 305f 	ldrb.w	r3, [r3, #95]
 166:	b173      	cbz	r3, 186 <Gui+0x186>
C:\tien\PROJEKTY\procesory\STM\T108_V100a\sources/gui.c:2334
    {
        if ( Inputs_Error_Mask & INPUT_SE4 )
 168:	f01e 0f10 	tst.w	lr, #16	; 0x10
 16c:	d006      	beq.n	17c <Gui+0x17c>
C:\tien\PROJEKTY\procesory\STM\T108_V100a\sources/gui.c:2336
        {
            if ( SCREEN_PULSE == 1 )
 16e:	4b34      	ldr	r3, [pc, #208]	(240 <Gui+0x240>)
 170:	4a3a      	ldr	r2, [pc, #232]	(25c <Gui+0x25c>)
 172:	f893 304e 	ldrb.w	r3, [r3, #78]
 176:	2b01      	cmp	r3, #1
 178:	d101      	bne.n	17e <Gui+0x17e>
 17a:	e005      	b.n	188 <Gui+0x188>
C:\tien\PROJEKTY\procesory\STM\T108_V100a\sources/gui.c:2343
            else
                Enable_String_Mask |= ENABLE_STRING_SE4;
        }
        else
        {
            Enable_String_Mask |= ENABLE_STRING_SE4;     
 17c:	4a37      	ldr	r2, [pc, #220]	(25c <Gui+0x25c>)
 17e:	6813      	ldr	r3, [r2, #0]
 180:	f043 0320 	orr.w	r3, r3, #32	; 0x20
 184:	e003      	b.n	18e <Gui+0x18e>
C:\tien\PROJEKTY\procesory\STM\T108_V100a\sources/gui.c:2348
        }
    }
    else
    {
        Enable_String_Mask &= ~ENABLE_STRING_SE4;        
 186:	4a35      	ldr	r2, [pc, #212]	(25c <Gui+0x25c>)
 188:	6813      	ldr	r3, [r2, #0]
 18a:	f023 0320 	bic.w	r3, r3, #32	; 0x20
 18e:	6013      	str	r3, [r2, #0]
C:\tien\PROJEKTY\procesory\STM\T108_V100a\sources/gui.c:2352
    }


    if ( Controlling_Variables.Ctrl_Vars.Motor_Type == 0 ) //Inverters
 190:	4b33      	ldr	r3, [pc, #204]	(260 <Gui+0x260>)
 192:	f893 302e 	ldrb.w	r3, [r3, #46]
 196:	b973      	cbnz	r3, 1b6 <Gui+0x1b6>
C:\tien\PROJEKTY\procesory\STM\T108_V100a\sources/gui.c:2354
    {
        if ( Inputs_Error_Mask & F1_DISCONNECTED )
 198:	f01e 0f80 	tst.w	lr, #128	; 0x80
 19c:	d006      	beq.n	1ac <Gui+0x1ac>
C:\tien\PROJEKTY\procesory\STM\T108_V100a\sources/gui.c:2356
        {
            if ( SCREEN_PULSE == 1 )
 19e:	4b28      	ldr	r3, [pc, #160]	(240 <Gui+0x240>)
 1a0:	4a2e      	ldr	r2, [pc, #184]	(25c <Gui+0x25c>)
 1a2:	f893 304e 	ldrb.w	r3, [r3, #78]
 1a6:	2b01      	cmp	r3, #1
 1a8:	d101      	bne.n	1ae <Gui+0x1ae>
 1aa:	e005      	b.n	1b8 <Gui+0x1b8>
C:\tien\PROJEKTY\procesory\STM\T108_V100a\sources/gui.c:2363
            else
                Enable_String_Mask |= ENABLE_STRING_F1;
        }
        else
        {
            Enable_String_Mask |= ENABLE_STRING_F1;     
 1ac:	4a2b      	ldr	r2, [pc, #172]	(25c <Gui+0x25c>)
 1ae:	6813      	ldr	r3, [r2, #0]
 1b0:	f443 7380 	orr.w	r3, r3, #256	; 0x100
 1b4:	e003      	b.n	1be <Gui+0x1be>
C:\tien\PROJEKTY\procesory\STM\T108_V100a\sources/gui.c:2368
        } 
    }
    else
    {
        Enable_String_Mask &= ~ENABLE_STRING_F1;    
 1b6:	4a29      	ldr	r2, [pc, #164]	(25c <Gui+0x25c>)
 1b8:	6813      	ldr	r3, [r2, #0]
 1ba:	f423 7380 	bic.w	r3, r3, #256	; 0x100
 1be:	6013      	str	r3, [r2, #0]
C:\tien\PROJEKTY\procesory\STM\T108_V100a\sources/gui.c:2371
    }

    if ( Controlling_Variables.Ctrl_Vars.Fast_Gate_Type == 0 ) // Two wings gate
 1c0:	4b27      	ldr	r3, [pc, #156]	(260 <Gui+0x260>)
 1c2:	7edb      	ldrb	r3, [r3, #27]
 1c4:	b973      	cbnz	r3, 1e4 <Gui+0x1e4>
C:\tien\PROJEKTY\procesory\STM\T108_V100a\sources/gui.c:2373
    {   
        if ( Inputs_Error_Mask & F2_DISCONNECTED )
 1c6:	f41e 7f80 	tst.w	lr, #256	; 0x100
 1ca:	d006      	beq.n	1da <Gui+0x1da>
C:\tien\PROJEKTY\procesory\STM\T108_V100a\sources/gui.c:2375
        {
            if ( SCREEN_PULSE == 1 )
 1cc:	4b1c      	ldr	r3, [pc, #112]	(240 <Gui+0x240>)
 1ce:	4a23      	ldr	r2, [pc, #140]	(25c <Gui+0x25c>)
 1d0:	f893 304e 	ldrb.w	r3, [r3, #78]
 1d4:	2b01      	cmp	r3, #1
 1d6:	d101      	bne.n	1dc <Gui+0x1dc>
 1d8:	e009      	b.n	1ee <Gui+0x1ee>
C:\tien\PROJEKTY\procesory\STM\T108_V100a\sources/gui.c:2382
            else
                Enable_String_Mask |= ENABLE_STRING_F2;
        }
        else
        {
            Enable_String_Mask |= ENABLE_STRING_F2;     
 1da:	4a20      	ldr	r2, [pc, #128]	(25c <Gui+0x25c>)
 1dc:	6813      	ldr	r3, [r2, #0]
 1de:	f443 7300 	orr.w	r3, r3, #512	; 0x200
 1e2:	e007      	b.n	1f4 <Gui+0x1f4>
C:\tien\PROJEKTY\procesory\STM\T108_V100a\sources/gui.c:2385
        } 
    }
    else if ( Controlling_Variables.Ctrl_Vars.Fast_Gate_Type == 1  || // One wing gate
 1e4:	3b01      	subs	r3, #1
 1e6:	b2db      	uxtb	r3, r3
 1e8:	2b01      	cmp	r3, #1
 1ea:	d804      	bhi.n	1f6 <Gui+0x1f6>
C:\tien\PROJEKTY\procesory\STM\T108_V100a\sources/gui.c:2389
              Controlling_Variables.Ctrl_Vars.Fast_Gate_Type == 2  ) // sliding

    {
        Enable_String_Mask &= ~ENABLE_STRING_F2;
 1ec:	4a1b      	ldr	r2, [pc, #108]	(25c <Gui+0x25c>)
 1ee:	6813      	ldr	r3, [r2, #0]
 1f0:	f423 7300 	bic.w	r3, r3, #512	; 0x200
 1f4:	6013      	str	r3, [r2, #0]
C:\tien\PROJEKTY\procesory\STM\T108_V100a\sources/gui.c:2392
    }
    
    if ( Inputs_Error_Mask & CURRENT_OV1 )
 1f6:	f41e 7f00 	tst.w	lr, #512	; 0x200
 1fa:	d009      	beq.n	210 <Gui+0x210>
C:\tien\PROJEKTY\procesory\STM\T108_V100a\sources/gui.c:2394
    {
        if ( SCREEN_PULSE == 1 )
 1fc:	4b10      	ldr	r3, [pc, #64]	(240 <Gui+0x240>)
 1fe:	4a17      	ldr	r2, [pc, #92]	(25c <Gui+0x25c>)
 200:	f893 304e 	ldrb.w	r3, [r3, #78]
 204:	2b01      	cmp	r3, #1
 206:	d104      	bne.n	212 <Gui+0x212>
C:\tien\PROJEKTY\procesory\STM\T108_V100a\sources/gui.c:2395
            Enable_String_Mask &= ~ENABLE_STRING_COV1;
 208:	6813      	ldr	r3, [r2, #0]
 20a:	f423 6380 	bic.w	r3, r3, #1024	; 0x400
 20e:	e003      	b.n	218 <Gui+0x218>
C:\tien\PROJEKTY\procesory\STM\T108_V100a\sources/gui.c:2401
        else
            Enable_String_Mask |= ENABLE_STRING_COV1;
    }
    else
    {
        Enable_String_Mask |= ENABLE_STRING_COV1;     
 210:	4a12      	ldr	r2, [pc, #72]	(25c <Gui+0x25c>)
 212:	6813      	ldr	r3, [r2, #0]
 214:	f443 6380 	orr.w	r3, r3, #1024	; 0x400
C:\tien\PROJEKTY\procesory\STM\T108_V100a\sources/gui.c:2404
    } 
 
    if ( Inputs_Error_Mask & CURRENT_OV2 )
 218:	f41e 6f80 	tst.w	lr, #1024	; 0x400
C:\tien\PROJEKTY\procesory\STM\T108_V100a\sources/gui.c:2401
        else
            Enable_String_Mask |= ENABLE_STRING_COV1;
    }
    else
    {
        Enable_String_Mask |= ENABLE_STRING_COV1;     
 21c:	6013      	str	r3, [r2, #0]
C:\tien\PROJEKTY\procesory\STM\T108_V100a\sources/gui.c:2404
    } 
 
    if ( Inputs_Error_Mask & CURRENT_OV2 )
 21e:	d021      	beq.n	264 <Gui+0x264>
C:\tien\PROJEKTY\procesory\STM\T108_V100a\sources/gui.c:2406
    {
        if ( SCREEN_PULSE == 1 )
 220:	4b07      	ldr	r3, [pc, #28]	(240 <Gui+0x240>)
 222:	4a0e      	ldr	r2, [pc, #56]	(25c <Gui+0x25c>)
 224:	f893 304e 	ldrb.w	r3, [r3, #78]
 228:	2b01      	cmp	r3, #1
 22a:	d11c      	bne.n	266 <Gui+0x266>
C:\tien\PROJEKTY\procesory\STM\T108_V100a\sources/gui.c:2407
            Enable_String_Mask &= ~ENABLE_STRING_COV2;
 22c:	6813      	ldr	r3, [r2, #0]
 22e:	f423 6300 	bic.w	r3, r3, #2048	; 0x800
 232:	e01b      	b.n	3b <Gui+0x3b>
	...
C:\tien\PROJEKTY\procesory\STM\T108_V100a\sources/gui.c:2413
        else
            Enable_String_Mask |= ENABLE_STRING_COV2;
    }
    else
    {
        Enable_String_Mask |= ENABLE_STRING_COV2;     
 264:	4a06      	ldr	r2, [pc, #24]	(1c <Gui+0x1c>)
 266:	6813      	ldr	r3, [r2, #0]
 268:	f443 6300 	orr.w	r3, r3, #2048	; 0x800
 26c:	6013      	str	r3, [r2, #0]
C:\tien\PROJEKTY\procesory\STM\T108_V100a\sources/gui.c:2419
    }

/**************************************************************/
/**************************************************************/
//Manual test string mask
    Manual_Test_Mask = 0x00000100 | (uint32_t)Inputs_Level_Test;
 26e:	4b05      	ldr	r3, [pc, #20]	(284 <Gui+0x284>)
 270:	4a05      	ldr	r2, [pc, #20]	(288 <Gui+0x288>)
 272:	681b      	ldr	r3, [r3, #0]
 274:	f443 7380 	orr.w	r3, r3, #256	; 0x100
 278:	6013      	str	r3, [r2, #0]
C:\tien\PROJEKTY\procesory\STM\T108_V100a\sources/gui.c:2430
/**************************************************************/
/**************************************************************/
/**************************************************************/
//Display on screen function

    Display_On_Screen();
 27a:	f7ff fffe 	bl	0 <Gui>
C:\tien\PROJEKTY\procesory\STM\T108_V100a\sources/gui.c:2434
/**************************************************************/
/**************************************************************/
/**************************************************************/
}
 27e:	bd10      	pop	{r4, pc}
	...
