
C:\tien\PROJEKTY\procesory\STM\T108_V100a\sys.o:     file format elf32-littlearm
C:\tien\PROJEKTY\procesory\STM\T108_V100a\sys.o

Disassembly of section .text.System_Timer_Setting:

00000000 <System_Timer_Setting>:
System_Timer_Setting():
C:\tien\PROJEKTY\procesory\STM\T108_V100a\sources/sys.c:217
* Output         : None
* Return         : None
*******************************************************************************/
void System_Timer_Setting ( uint32_t * Timer_Counter, uint16_t Time_Value, _Sys_Tmr_Intervals Sys_Tmr_Intervals )
{
	*Timer_Counter = System_Timers.Time_Table[Sys_Tmr_Intervals] + Time_Value;
   0:	4b02      	ldr	r3, [pc, #8]	(c <System_Timer_Setting+0xc>)
   2:	f853 3022 	ldr.w	r3, [r3, r2, lsl #2]
   6:	185b      	adds	r3, r3, r1
   8:	6003      	str	r3, [r0, #0]
C:\tien\PROJEKTY\procesory\STM\T108_V100a\sources/sys.c:218
}
   a:	4770      	bx	lr
   c:	00000000 	.word	0x00000000
Disassembly of section .text.System_Timer_Check:

00000000 <System_Timer_Check>:
System_Timer_Check():
C:\tien\PROJEKTY\procesory\STM\T108_V100a\sources/sys.c:231
* Output         : None
* Return         : TRUE - Time match / FALSE Time no match
*******************************************************************************/
uint8_t System_Timer_Check ( uint32_t * Timer_Counter, _Sys_Tmr_Intervals Sys_Tmr_Intervals )
{
		if ( *Timer_Counter == System_Timers.Time_Table[Sys_Tmr_Intervals] )
   0:	4b04      	ldr	r3, [pc, #16]	(14 <System_Timer_Check+0x14>)
   2:	6800      	ldr	r0, [r0, #0]
   4:	f853 3021 	ldr.w	r3, [r3, r1, lsl #2]
C:\tien\PROJEKTY\procesory\STM\T108_V100a\sources/sys.c:239
		}
		else
		{
			return FALSE;
		}
}
   8:	4298      	cmp	r0, r3
   a:	bf14      	ite	ne
   c:	2000      	movne	r0, #0
   e:	2001      	moveq	r0, #1
  10:	4770      	bx	lr
  12:	46c0      	nop			(mov r8, r8)
  14:	00          	.byte	0x00
  15:	00          	.byte	0x00
	...
Disassembly of section .text.Sys_Init:

00000000 <Sys_Init>:
Sys_Init():
C:\tien\PROJEKTY\procesory\STM\T108_V100a\sources/sys.c:104
* Output         : None
* Return         : None
*******************************************************************************/
void Sys_Init ( void )
{
    Manual_Values.Values.Mos1_Manual_Value = 0;
   0:	4b3b      	ldr	r3, [pc, #236]	(f0 <Sys_Init+0xf0>)
   2:	f04f 0200 	mov.w	r2, #0	; 0x0
C:\tien\PROJEKTY\procesory\STM\T108_V100a\sources/sys.c:103
* Input          : None
* Output         : None
* Return         : None
*******************************************************************************/
void Sys_Init ( void )
{
   6:	b510      	push	{r4, lr}
C:\tien\PROJEKTY\procesory\STM\T108_V100a\sources/sys.c:107
    Manual_Values.Values.Mos1_Manual_Value = 0;
    Manual_Values.Values.Mos2_Manual_Value = 0;

	System_Timer_Setting ( &Startup_Timer.Timer, STARTUP_TIME, T_10msec );
   8:	483a      	ldr	r0, [pc, #232]	(f4 <Sys_Init+0xf4>)
C:\tien\PROJEKTY\procesory\STM\T108_V100a\sources/sys.c:104
* Output         : None
* Return         : None
*******************************************************************************/
void Sys_Init ( void )
{
    Manual_Values.Values.Mos1_Manual_Value = 0;
   a:	811a      	strh	r2, [r3, #8]
C:\tien\PROJEKTY\procesory\STM\T108_V100a\sources/sys.c:105
    Manual_Values.Values.Mos2_Manual_Value = 0;
   c:	815a      	strh	r2, [r3, #10]
C:\tien\PROJEKTY\procesory\STM\T108_V100a\sources/sys.c:107

	System_Timer_Setting ( &Startup_Timer.Timer, STARTUP_TIME, T_10msec );
   e:	2164      	movs	r1, #100
  10:	2201      	movs	r2, #1
  12:	f7ff fffe 	bl	0 <Sys_Init>
C:\tien\PROJEKTY\procesory\STM\T108_V100a\sources/sys.c:108
	while ( System_Timer_Check ( &Startup_Timer.Timer, T_10msec ) == FALSE );
  16:	4837      	ldr	r0, [pc, #220]	(f4 <Sys_Init+0xf4>)
  18:	2101      	movs	r1, #1
  1a:	f7ff fffe 	bl	0 <Sys_Init>
  1e:	2800      	cmp	r0, #0
  20:	d0f9      	beq.n	16 <Sys_Init+0x16>
C:\tien\PROJEKTY\procesory\STM\T108_V100a\sources/sys.c:109
	System_Timer_Setting ( &Keyboard_Timer.Timer, KBD_SAMPLE_TIME, T_10msec );
  22:	2101      	movs	r1, #1
  24:	460a      	mov	r2, r1
  26:	4834      	ldr	r0, [pc, #208]	(f8 <Sys_Init+0xf8>)
  28:	f7ff fffe 	bl	0 <Sys_Init>
C:\tien\PROJEKTY\procesory\STM\T108_V100a\sources/sys.c:110
    System_Timer_Setting ( &Inputs_Timer.Timer, INPUTS_SAMPLE_TIME, T_10msec );
  2c:	2103      	movs	r1, #3
  2e:	2201      	movs	r2, #1
  30:	4832      	ldr	r0, [pc, #200]	(fc <Sys_Init+0xfc>)
  32:	f7ff fffe 	bl	0 <Sys_Init>
C:\tien\PROJEKTY\procesory\STM\T108_V100a\sources/sys.c:111
    System_Timer_Setting ( &Screen_Reload_Timer.Timer, SCREEN_RELOAD_TIME, T_10msec );
  36:	2164      	movs	r1, #100
  38:	2201      	movs	r2, #1
  3a:	4831      	ldr	r0, [pc, #196]	(100 <Sys_Init+0x100>)
  3c:	f7ff fffe 	bl	0 <Sys_Init>
C:\tien\PROJEKTY\procesory\STM\T108_V100a\sources/sys.c:112
    System_Timer_Setting ( &Temperature_Timer.Timer, T_SAMPLE_TIME, T_10msec );
  40:	2103      	movs	r1, #3
  42:	2201      	movs	r2, #1
  44:	482f      	ldr	r0, [pc, #188]	(104 <Sys_Init+0x104>)
  46:	f7ff fffe 	bl	0 <Sys_Init>
C:\tien\PROJEKTY\procesory\STM\T108_V100a\sources/sys.c:114
 
    System_Timer_Setting ( &Pulse_OC1_Timer.Timer, PULSE_TIME, T_10msec );
  4a:	2164      	movs	r1, #100
  4c:	2201      	movs	r2, #1
  4e:	482e      	ldr	r0, [pc, #184]	(108 <Sys_Init+0x108>)
  50:	f7ff fffe 	bl	0 <Sys_Init>
C:\tien\PROJEKTY\procesory\STM\T108_V100a\sources/sys.c:115
    System_Timer_Setting ( &Pulse_OC2_Timer.Timer, PULSE_TIME, T_10msec );
  54:	2164      	movs	r1, #100
  56:	2201      	movs	r2, #1
  58:	482c      	ldr	r0, [pc, #176]	(10c <Sys_Init+0x10c>)
  5a:	f7ff fffe 	bl	0 <Sys_Init>
C:\tien\PROJEKTY\procesory\STM\T108_V100a\sources/sys.c:116
    System_Timer_Setting ( &Pulse_RL1_Timer.Timer, PULSE_TIME, T_10msec );
  5e:	2164      	movs	r1, #100
  60:	2201      	movs	r2, #1
  62:	482b      	ldr	r0, [pc, #172]	(110 <Sys_Init+0x110>)
  64:	f7ff fffe 	bl	0 <Sys_Init>
C:\tien\PROJEKTY\procesory\STM\T108_V100a\sources/sys.c:117
    System_Timer_Setting ( &Pulse_RL2_Timer.Timer, PULSE_TIME, T_10msec );
  68:	2164      	movs	r1, #100
  6a:	2201      	movs	r2, #1
  6c:	4829      	ldr	r0, [pc, #164]	(114 <Sys_Init+0x114>)
  6e:	f7ff fffe 	bl	0 <Sys_Init>
C:\tien\PROJEKTY\procesory\STM\T108_V100a\sources/sys.c:118
    System_Timer_Setting ( &Pulse_RL3_Timer.Timer, PULSE_TIME, T_10msec );
  72:	2164      	movs	r1, #100
  74:	2201      	movs	r2, #1
  76:	4828      	ldr	r0, [pc, #160]	(118 <Sys_Init+0x118>)
  78:	f7ff fffe 	bl	0 <Sys_Init>
C:\tien\PROJEKTY\procesory\STM\T108_V100a\sources/sys.c:119
    System_Timer_Setting ( &Pulse_RL4_Timer.Timer, PULSE_TIME, T_10msec );
  7c:	2164      	movs	r1, #100
  7e:	2201      	movs	r2, #1
  80:	4826      	ldr	r0, [pc, #152]	(11c <Sys_Init+0x11c>)
  82:	f7ff fffe 	bl	0 <Sys_Init>
C:\tien\PROJEKTY\procesory\STM\T108_V100a\sources/sys.c:120
    System_Timer_Setting ( &Pulse_RL5_Timer.Timer, PULSE_TIME, T_10msec );
  86:	2164      	movs	r1, #100
  88:	4825      	ldr	r0, [pc, #148]	(120 <Sys_Init+0x120>)
  8a:	2201      	movs	r2, #1
  8c:	f7ff fffe 	bl	0 <Sys_Init>
C:\tien\PROJEKTY\procesory\STM\T108_V100a\sources/sys.c:121
    System_Timer_Setting ( &Pulse_RL6_Timer.Timer, PULSE_TIME, T_10msec );
  90:	2164      	movs	r1, #100
  92:	4824      	ldr	r0, [pc, #144]	(124 <Sys_Init+0x124>)
  94:	2201      	movs	r2, #1
  96:	f7ff fffe 	bl	0 <Sys_Init>
C:\tien\PROJEKTY\procesory\STM\T108_V100a\sources/sys.c:122
    System_Timer_Setting ( &RS485_Timer.Timer, 40, T_10msec );
  9a:	2128      	movs	r1, #40
  9c:	2201      	movs	r2, #1
  9e:	4822      	ldr	r0, [pc, #136]	(128 <Sys_Init+0x128>)
  a0:	f7ff fffe 	bl	0 <Sys_Init>
C:\tien\PROJEKTY\procesory\STM\T108_V100a\sources/sys.c:123
    System_Timer_Setting ( &Lamp_Timer.Timer, 100, T_10msec );
  a4:	2164      	movs	r1, #100
  a6:	2201      	movs	r2, #1
  a8:	4820      	ldr	r0, [pc, #128]	(12c <Sys_Init+0x12c>)
  aa:	f7ff fffe 	bl	0 <Sys_Init>
C:\tien\PROJEKTY\procesory\STM\T108_V100a\sources/sys.c:125

    if ( Service_Variables.Serv_Vars.Marker_Blokady == STER_ZABLOKOWANY )
  ae:	4b20      	ldr	r3, [pc, #128]	(130 <Sys_Init+0x130>)
  b0:	7c5b      	ldrb	r3, [r3, #17]
  b2:	2b01      	cmp	r3, #1
  b4:	d001      	beq.n	ba <Sys_Init+0xba>
C:\tien\PROJEKTY\procesory\STM\T108_V100a\sources/sys.c:129
    {
        Machine_State = SW_LOCKED;
    }
    else if ( Service_Variables.Serv_Vars.Marker_Blokady == STER_BLOKADA_CALKOWITA )
  b6:	2b02      	cmp	r3, #2
  b8:	d101      	bne.n	be <Sys_Init+0xbe>
C:\tien\PROJEKTY\procesory\STM\T108_V100a\sources/sys.c:131
    {
        Machine_State = SW_LOCKED;    
  ba:	220f      	movs	r2, #15
  bc:	e011      	b.n	e2 <Sys_Init+0xe2>
C:\tien\PROJEKTY\procesory\STM\T108_V100a\sources/sys.c:135
    }
    else
    {
        if ( Controlling_Variables.Ctrl_Vars.Motor_Type == 0 ) //Freqw_Inverter
  be:	4a1d      	ldr	r2, [pc, #116]	(134 <Sys_Init+0x134>)
  c0:	f892 302e 	ldrb.w	r3, [r2, #46]
  c4:	b953      	cbnz	r3, dc <Sys_Init+0xdc>
C:\tien\PROJEKTY\procesory\STM\T108_V100a\sources/sys.c:137
        {
            if ( Controlling_Variables.Ctrl_Vars.Fast_Gate_Type == 0 )//Two wings gate
  c6:	7ed3      	ldrb	r3, [r2, #27]
  c8:	4a1b      	ldr	r2, [pc, #108]	(138 <Sys_Init+0x138>)
  ca:	b913      	cbnz	r3, d2 <Sys_Init+0xd2>
C:\tien\PROJEKTY\procesory\STM\T108_V100a\sources/sys.c:139
            {
                Controller_Variables.Controller_Vars.Inputs_Error = F1_DISCONNECTED | F2_DISCONNECTED;
  cc:	f44f 73c0 	mov.w	r3, #384	; 0x180
  d0:	e001      	b.n	d6 <Sys_Init+0xd6>
C:\tien\PROJEKTY\procesory\STM\T108_V100a\sources/sys.c:143
            }
            else//one wing gate
            {
                Controller_Variables.Controller_Vars.Inputs_Error = F1_DISCONNECTED;
  d2:	f04f 0380 	mov.w	r3, #128	; 0x80
  d6:	83d3      	strh	r3, [r2, #30]
C:\tien\PROJEKTY\procesory\STM\T108_V100a\sources/sys.c:146
            }
        
            Machine_State = INVERTER_PROG;
  d8:	2229      	movs	r2, #41
  da:	e002      	b.n	e2 <Sys_Init+0xe2>
C:\tien\PROJEKTY\procesory\STM\T108_V100a\sources/sys.c:148
        }
        else if ( Controlling_Variables.Ctrl_Vars.Motor_Type == 1 ) // 24V sliding gate
  dc:	2b01      	cmp	r3, #1
  de:	d102      	bne.n	e6 <Sys_Init+0xe6>
C:\tien\PROJEKTY\procesory\STM\T108_V100a\sources/sys.c:150
        {
            Machine_State = WG_POWER_ON;
  e0:	2211      	movs	r2, #17
  e2:	4b16      	ldr	r3, [pc, #88]	(13c <Sys_Init+0x13c>)
  e4:	701a      	strb	r2, [r3, #0]
C:\tien\PROJEKTY\procesory\STM\T108_V100a\sources/sys.c:166
            Machine_State = POWER_ON;              
        }
*/
    }

    Controller_Variables.Controller_Vars.Controller_Status = STATUS_WG_POWER_ON;
  e6:	4b14      	ldr	r3, [pc, #80]	(138 <Sys_Init+0x138>)
  e8:	2204      	movs	r2, #4
  ea:	f883 204a 	strb.w	r2, [r3, #74]
C:\tien\PROJEKTY\procesory\STM\T108_V100a\sources/sys.c:168

}
  ee:	bd10      	pop	{r4, pc}
	...
Disassembly of section .text.Square_Generator:

00000000 <Square_Generator>:
Square_Generator():
C:\tien\PROJEKTY\procesory\STM\T108_V100a\sources/sys.c:252
* Input3         : Sys_Tmr_Intervals - base time interval
* Output         : None
* Return         : TRUE - Time match / FALSE Time no match
*******************************************************************************/
uint8_t Square_Generator ( uint32_t * Timer_Counter, uint16_t Time_Value, _Sys_Tmr_Intervals Sys_Tmr_Intervals )
{
   0:	b510      	push	{r4, lr}
   2:	460c      	mov	r4, r1
C:\tien\PROJEKTY\procesory\STM\T108_V100a\sources/sys.c:255
    static bool Flag;

    if ( *Timer_Counter == System_Timers.Time_Table[Sys_Tmr_Intervals] )
   4:	490c      	ldr	r1, [pc, #48]	(38 <Square_Generator+0x38>)
C:\tien\PROJEKTY\procesory\STM\T108_V100a\sources/sys.c:252
* Input3         : Sys_Tmr_Intervals - base time interval
* Output         : None
* Return         : TRUE - Time match / FALSE Time no match
*******************************************************************************/
uint8_t Square_Generator ( uint32_t * Timer_Counter, uint16_t Time_Value, _Sys_Tmr_Intervals Sys_Tmr_Intervals )
{
   6:	4694      	mov	ip, r2
C:\tien\PROJEKTY\procesory\STM\T108_V100a\sources/sys.c:255
    static bool Flag;

    if ( *Timer_Counter == System_Timers.Time_Table[Sys_Tmr_Intervals] )
   8:	6803      	ldr	r3, [r0, #0]
   a:	f851 2022 	ldr.w	r2, [r1, r2, lsl #2]
   e:	4293      	cmp	r3, r2
  10:	d10f      	bne.n	32 <Square_Generator+0x32>
C:\tien\PROJEKTY\procesory\STM\T108_V100a\sources/sys.c:257
    {
        if ( Flag == TRUE )
  12:	4a0a      	ldr	r2, [pc, #40]	(3c <Square_Generator+0x3c>)
  14:	7813      	ldrb	r3, [r2, #0]
  16:	2b01      	cmp	r3, #1
  18:	d105      	bne.n	26 <Square_Generator+0x26>
C:\tien\PROJEKTY\procesory\STM\T108_V100a\sources/sys.c:259
        {
            *Timer_Counter = System_Timers.Time_Table[Sys_Tmr_Intervals] + Time_Value;
  1a:	f851 302c 	ldr.w	r3, [r1, ip, lsl #2]
  1e:	191b      	adds	r3, r3, r4
  20:	6003      	str	r3, [r0, #0]
C:\tien\PROJEKTY\procesory\STM\T108_V100a\sources/sys.c:260
            Flag =  FALSE;	    
  22:	2300      	movs	r3, #0
  24:	e004      	b.n	30 <Square_Generator+0x30>
C:\tien\PROJEKTY\procesory\STM\T108_V100a\sources/sys.c:264
        }
        else
        {
        	*Timer_Counter = System_Timers.Time_Table[Sys_Tmr_Intervals] + Time_Value;
  26:	f851 302c 	ldr.w	r3, [r1, ip, lsl #2]
  2a:	191b      	adds	r3, r3, r4
  2c:	6003      	str	r3, [r0, #0]
C:\tien\PROJEKTY\procesory\STM\T108_V100a\sources/sys.c:265
            Flag = TRUE;       
  2e:	2301      	movs	r3, #1
  30:	7013      	strb	r3, [r2, #0]
C:\tien\PROJEKTY\procesory\STM\T108_V100a\sources/sys.c:269
        }
    }
    return Flag;
}
  32:	4b02      	ldr	r3, [pc, #8]	(3c <Square_Generator+0x3c>)
  34:	7818      	ldrb	r0, [r3, #0]
  36:	bd10      	pop	{r4, pc}
	...
Disassembly of section .text.Enable_Manual_Control:

00000000 <Enable_Manual_Control>:
Enable_Manual_Control():
C:\tien\PROJEKTY\procesory\STM\T108_V100a\sources/sys.c:1014
* Input          : None
* Output         : None
* Return         : None
*******************************************************************************/
void Enable_Manual_Control ( void )
{
   0:	2100      	movs	r1, #0
C:\tien\PROJEKTY\procesory\STM\T108_V100a\sources/sys.c:1019
    uint8_t Manual_For_Temp;

    for ( Manual_For_Temp = 0; Manual_For_Temp < sizeof(Manual_Control_Enable.Manual_Control_Bool_Tab); Manual_For_Temp++)
    {
        Manual_Control_Enable.Manual_Control_Bool_Tab[Manual_For_Temp] = TRUE;
   2:	4b03      	ldr	r3, [pc, #12]	(10 <Enable_Manual_Control+0x10>)
   4:	2201      	movs	r2, #1
   6:	545a      	strb	r2, [r3, r1]
   8:	1889      	adds	r1, r1, r2
C:\tien\PROJEKTY\procesory\STM\T108_V100a\sources/sys.c:1017
*******************************************************************************/
void Enable_Manual_Control ( void )
{
    uint8_t Manual_For_Temp;

    for ( Manual_For_Temp = 0; Manual_For_Temp < sizeof(Manual_Control_Enable.Manual_Control_Bool_Tab); Manual_For_Temp++)
   a:	290b      	cmp	r1, #11
   c:	d1f9      	bne.n	2 <Enable_Manual_Control+0x2>
C:\tien\PROJEKTY\procesory\STM\T108_V100a\sources/sys.c:1021
    {
        Manual_Control_Enable.Manual_Control_Bool_Tab[Manual_For_Temp] = TRUE;
    }
}
   e:	4770      	bx	lr
  10:	00000000 	.word	0x00000000
Disassembly of section .text.Disable_Manual_Control:

00000000 <Disable_Manual_Control>:
Disable_Manual_Control():
C:\tien\PROJEKTY\procesory\STM\T108_V100a\sources/sys.c:1031
* Input          : None
* Output         : None
* Return         : None
*******************************************************************************/
void Disable_Manual_Control ( void )
{
   0:	2200      	movs	r2, #0
C:\tien\PROJEKTY\procesory\STM\T108_V100a\sources/sys.c:1036
    uint8_t Manual_For_Temp1;

    for ( Manual_For_Temp1 = 0; Manual_For_Temp1 < sizeof(Manual_Control_Enable.Manual_Control_Bool_Tab); Manual_For_Temp1++)
    {
        Manual_Control_Enable.Manual_Control_Bool_Tab[Manual_For_Temp1] = FALSE;
   2:	4907      	ldr	r1, [pc, #28]	(20 <Disable_Manual_Control+0x20>)
   4:	2300      	movs	r3, #0
   6:	548b      	strb	r3, [r1, r2]
   8:	3201      	adds	r2, #1
C:\tien\PROJEKTY\procesory\STM\T108_V100a\sources/sys.c:1034
*******************************************************************************/
void Disable_Manual_Control ( void )
{
    uint8_t Manual_For_Temp1;

    for ( Manual_For_Temp1 = 0; Manual_For_Temp1 < sizeof(Manual_Control_Enable.Manual_Control_Bool_Tab); Manual_For_Temp1++)
   a:	2a0b      	cmp	r2, #11
   c:	d1f9      	bne.n	2 <Disable_Manual_Control+0x2>
C:\tien\PROJEKTY\procesory\STM\T108_V100a\sources/sys.c:1039
    {
        Manual_Control_Enable.Manual_Control_Bool_Tab[Manual_For_Temp1] = FALSE;
    }

    Manual_Control_Enable.Manual_Control.Relay1_Manual = TRUE;
   e:	3301      	adds	r3, #1
  10:	708b      	strb	r3, [r1, #2]
C:\tien\PROJEKTY\procesory\STM\T108_V100a\sources/sys.c:1040
    Manual_Control_Enable.Manual_Control.Relay2_Manual = TRUE;
  12:	70cb      	strb	r3, [r1, #3]
C:\tien\PROJEKTY\procesory\STM\T108_V100a\sources/sys.c:1041
    Manual_Control_Enable.Manual_Control.Relay3_Manual = TRUE;
  14:	710b      	strb	r3, [r1, #4]
C:\tien\PROJEKTY\procesory\STM\T108_V100a\sources/sys.c:1042
    Manual_Control_Enable.Manual_Control.Relay4_Manual = TRUE;
  16:	714b      	strb	r3, [r1, #5]
C:\tien\PROJEKTY\procesory\STM\T108_V100a\sources/sys.c:1043
    Manual_Control_Enable.Manual_Control.Relay5_Manual = TRUE;
  18:	718b      	strb	r3, [r1, #6]
C:\tien\PROJEKTY\procesory\STM\T108_V100a\sources/sys.c:1044
    Manual_Control_Enable.Manual_Control.Relay6_Manual = TRUE;
  1a:	71cb      	strb	r3, [r1, #7]
C:\tien\PROJEKTY\procesory\STM\T108_V100a\sources/sys.c:1047


}
  1c:	4770      	bx	lr
  1e:	46c0      	nop			(mov r8, r8)
  20:	00000000 	.word	0x00000000
Disassembly of section .text.Disable_Manual_Values:

00000000 <Disable_Manual_Values>:
Disable_Manual_Values():
C:\tien\PROJEKTY\procesory\STM\T108_V100a\sources/sys.c:1056
* Input          : None
* Output         : None
* Return         : None
*******************************************************************************/
void Disable_Manual_Values ( void )
{
   0:	2100      	movs	r1, #0
C:\tien\PROJEKTY\procesory\STM\T108_V100a\sources/sys.c:1061
    uint8_t Manual_For_Temp2;

    for ( Manual_For_Temp2 = 0; Manual_For_Temp2 < sizeof(Manual_Values.Manual_Byte_Value_Tab); Manual_For_Temp2++)
    {
        Manual_Values.Manual_Byte_Value_Tab[Manual_For_Temp2] = 0;
   2:	4b03      	ldr	r3, [pc, #12]	(10 <Disable_Manual_Values+0x10>)
   4:	2200      	movs	r2, #0
   6:	545a      	strb	r2, [r3, r1]
   8:	3101      	adds	r1, #1
C:\tien\PROJEKTY\procesory\STM\T108_V100a\sources/sys.c:1059
*******************************************************************************/
void Disable_Manual_Values ( void )
{
    uint8_t Manual_For_Temp2;

    for ( Manual_For_Temp2 = 0; Manual_For_Temp2 < sizeof(Manual_Values.Manual_Byte_Value_Tab); Manual_For_Temp2++)
   a:	290e      	cmp	r1, #14
   c:	d1f9      	bne.n	2 <Disable_Manual_Values+0x2>
C:\tien\PROJEKTY\procesory\STM\T108_V100a\sources/sys.c:1063
    {
        Manual_Values.Manual_Byte_Value_Tab[Manual_For_Temp2] = 0;
    }
}
   e:	4770      	bx	lr
  10:	00000000 	.word	0x00000000
Disassembly of section .text.CRC16_CCITT:

00000000 <CRC16_CCITT>:
CRC16_CCITT():
C:\tien\PROJEKTY\procesory\STM\T108_V100a\sources/sys.c:1572
    }
}


uint16_t CRC16_CCITT ( uint8_t * buf_ptr, uint16_t buf_size)
{
   0:	4b14      	ldr	r3, [pc, #80]	(54 <CRC16_CCITT+0x54>)
   2:	b570      	push	{r4, r5, r6, lr}
   4:	460d      	mov	r5, r1
   6:	4606      	mov	r6, r0
   8:	8859      	ldrh	r1, [r3, #2]
   a:	889a      	ldrh	r2, [r3, #4]
   c:	462c      	mov	r4, r5
   e:	f04f 0c00 	mov.w	ip, #0	; 0x0
  12:	f64f 70ff 	movw	r0, #65535	; 0xffff
  16:	e015      	b.n	44 <CRC16_CCITT+0x44>
C:\tien\PROJEKTY\procesory\STM\T108_V100a\sources/sys.c:1580
    buf_counter = 0;
    CRC_value = 0xffff;

    while( buf_size-- > 0 ) 
    {
        CRC_value ^= buf_ptr[buf_counter];
  18:	f816 300c 	ldrb.w	r3, [r6, ip]
  1c:	2200      	movs	r2, #0
  1e:	4058      	eors	r0, r3
  20:	f10c 0301 	add.w	r3, ip, #1	; 0x1
  24:	fa1f fc83 	uxth.w	ip, r3
C:\tien\PROJEKTY\procesory\STM\T108_V100a\sources/sys.c:1584
        buf_counter += 1;
        for (buf_for = 0; buf_for <= 7; buf_for++ )
        {
            flag = CRC_value & 0x0001;
  28:	f000 0101 	and.w	r1, r0, #1	; 0x1
C:\tien\PROJEKTY\procesory\STM\T108_V100a\sources/sys.c:1585
            CRC_value  >>=1;
  2c:	0840      	lsrs	r0, r0, #1
C:\tien\PROJEKTY\procesory\STM\T108_V100a\sources/sys.c:1586
            if ( flag == 0x0001 )
  2e:	b121      	cbz	r1, 3a <CRC16_CCITT+0x3a>
C:\tien\PROJEKTY\procesory\STM\T108_V100a\sources/sys.c:1587
                CRC_value ^= 0xA001;;
  30:	f24a 0301 	movw	r3, #40961	; 0xa001
  34:	ea80 0303 	eor.w	r3, r0, r3
  38:	b298      	uxth	r0, r3
  3a:	3201      	adds	r2, #1
C:\tien\PROJEKTY\procesory\STM\T108_V100a\sources/sys.c:1582

    while( buf_size-- > 0 ) 
    {
        CRC_value ^= buf_ptr[buf_counter];
        buf_counter += 1;
        for (buf_for = 0; buf_for <= 7; buf_for++ )
  3c:	2a08      	cmp	r2, #8
  3e:	d1f3      	bne.n	28 <CRC16_CCITT+0x28>
  40:	1e63      	subs	r3, r4, #1
  42:	b29c      	uxth	r4, r3
C:\tien\PROJEKTY\procesory\STM\T108_V100a\sources/sys.c:1578
    static uint16_t CRC_value, flag, buf_counter,buf_for;

    buf_counter = 0;
    CRC_value = 0xffff;

    while( buf_size-- > 0 ) 
  44:	2c00      	cmp	r4, #0
  46:	d1e7      	bne.n	18 <CRC16_CCITT+0x18>
  48:	4b02      	ldr	r3, [pc, #8]	(54 <CRC16_CCITT+0x54>)
  4a:	8059      	strh	r1, [r3, #2]
  4c:	80dd      	strh	r5, [r3, #6]
  4e:	8118      	strh	r0, [r3, #8]
  50:	809a      	strh	r2, [r3, #4]
C:\tien\PROJEKTY\procesory\STM\T108_V100a\sources/sys.c:1591
            if ( flag == 0x0001 )
                CRC_value ^= 0xA001;;
        }
    }
    return CRC_value;
}
  52:	bd70      	pop	{r4, r5, r6, pc}
  54:	00000000 	.word	0x00000000
Disassembly of section .text.Analog_Inputs_Fun:

00000000 <Analog_Inputs_Fun>:
Analog_Inputs_Fun():
C:\tien\PROJEKTY\procesory\STM\T108_V100a\sources/sys.c:1621
void Analog_Inputs_Fun( uint16_t Analog,
                        uint8_t Type,
                        uint8_t Fun,
                        uint32_t * Source, 
                        uint32_t Marker )
{
   0:	b510      	push	{r4, lr}
   2:	f8dd c008 	ldr.w	ip, [sp, #8]
   6:	4604      	mov	r4, r0
   8:	4618      	mov	r0, r3
C:\tien\PROJEKTY\procesory\STM\T108_V100a\sources/sys.c:1624
    uint16_t Safety_Edge_Value;
    
    if ( Fun != 0 )//No OFF
   a:	b30a      	cbz	r2, 50 <Analog_Inputs_Fun+0x50>
C:\tien\PROJEKTY\procesory\STM\T108_V100a\sources/sys.c:1626
    {
        if ( Type == 0 )//2.0kohm
   c:	b911      	cbnz	r1, 14 <Analog_Inputs_Fun+0x14>
   e:	f240 4106 	movw	r1, #1030	; 0x406
  12:	e00f      	b.n	34 <Analog_Inputs_Fun+0x34>
C:\tien\PROJEKTY\procesory\STM\T108_V100a\sources/sys.c:1630
        {
            Safety_Edge_Value = SAFETY_EDGE_2_0_KOHM;
        }
        else if ( Type == 1 )//4.1kohm
  14:	2901      	cmp	r1, #1
  16:	d102      	bne.n	1e <Analog_Inputs_Fun+0x1e>
  18:	f240 61ea 	movw	r1, #1770	; 0x6ea
  1c:	e00a      	b.n	34 <Analog_Inputs_Fun+0x34>
C:\tien\PROJEKTY\procesory\STM\T108_V100a\sources/sys.c:1634
        {
            Safety_Edge_Value = SAFETY_EDGE_4_1_KOHM;
        }
        else if ( Type == 2 )//8.2kohm
  1e:	2902      	cmp	r1, #2
  20:	d102      	bne.n	28 <Analog_Inputs_Fun+0x28>
  22:	f44f 612f 	mov.w	r1, #2800	; 0xaf0
  26:	e005      	b.n	34 <Analog_Inputs_Fun+0x34>
C:\tien\PROJEKTY\procesory\STM\T108_V100a\sources/sys.c:1638
        {
            Safety_Edge_Value = SAFETY_EDGE_8_2_KOHM;
        }
        else if ( Type == 3 )//16.4kohm
  28:	f640 730a 	movw	r3, #3850	; 0xf0a
  2c:	2903      	cmp	r1, #3
  2e:	bf0c      	ite	eq
  30:	4619      	moveq	r1, r3
  32:	2100      	movne	r1, #0
C:\tien\PROJEKTY\procesory\STM\T108_V100a\sources/sys.c:1643
        {
            Safety_Edge_Value = SAFETY_EDGE_16_4_KOHM;
        }

        if ( Analog < (Safety_Edge_Value - Service_Variables.Serv_Vars.Serwis_005) )
  34:	4a09      	ldr	r2, [pc, #36]	(5c <Analog_Inputs_Fun+0x5c>)
  36:	8c93      	ldrh	r3, [r2, #36]
  38:	1acb      	subs	r3, r1, r3
  3a:	429c      	cmp	r4, r3
  3c:	da01      	bge.n	42 <Analog_Inputs_Fun+0x42>
C:\tien\PROJEKTY\procesory\STM\T108_V100a\sources/sys.c:1645
        {
            *Source |= Marker;
  3e:	6803      	ldr	r3, [r0, #0]
  40:	e003      	b.n	4a <Analog_Inputs_Fun+0x4a>
C:\tien\PROJEKTY\procesory\STM\T108_V100a\sources/sys.c:1647
        }
        else if ( Analog >= Service_Variables.Serv_Vars.Serwis_006 )
  42:	8cd3      	ldrh	r3, [r2, #38]
  44:	42a3      	cmp	r3, r4
  46:	6803      	ldr	r3, [r0, #0]
  48:	d803      	bhi.n	52 <Analog_Inputs_Fun+0x52>
C:\tien\PROJEKTY\procesory\STM\T108_V100a\sources/sys.c:1649
        {
            *Source |= Marker;
  4a:	ea43 030c 	orr.w	r3, r3, ip
  4e:	e002      	b.n	56 <Analog_Inputs_Fun+0x56>
C:\tien\PROJEKTY\procesory\STM\T108_V100a\sources/sys.c:1658
            *Source &= ~Marker;
        }            
    }
    else // OFF
    {
       *Source &= ~Marker;
  50:	681b      	ldr	r3, [r3, #0]
  52:	ea23 030c 	bic.w	r3, r3, ip
  56:	6003      	str	r3, [r0, #0]
C:\tien\PROJEKTY\procesory\STM\T108_V100a\sources/sys.c:1660
    }
}
  58:	bd10      	pop	{r4, pc}
  5a:	46c0      	nop			(mov r8, r8)
  5c:	00000000 	.word	0x00000000
Disassembly of section .text.Motors_Enable_Fun:

00000000 <Motors_Enable_Fun>:
Motors_Enable_Fun():
C:\tien\PROJEKTY\procesory\STM\T108_V100a\sources/sys.c:1665


void Motors_Enable_Fun ( void )
{
    Motors_Enable = 0;
   0:	4a56      	ldr	r2, [pc, #344]	(15c <Motors_Enable_Fun+0x15c>)
   2:	2300      	movs	r3, #0
   4:	7013      	strb	r3, [r2, #0]
C:\tien\PROJEKTY\procesory\STM\T108_V100a\sources/sys.c:1667

    if ( Machine_State == WG_POWER_ON_CLOSING_1 )
   6:	4b56      	ldr	r3, [pc, #344]	(160 <Motors_Enable_Fun+0x160>)
   8:	781b      	ldrb	r3, [r3, #0]
   a:	2b12      	cmp	r3, #18
   c:	d101      	bne.n	12 <Motors_Enable_Fun+0x12>
C:\tien\PROJEKTY\procesory\STM\T108_V100a\sources/sys.c:1668
        Motors_Enable |= MOTOR_1_CLOSING;
   e:	2310      	movs	r3, #16
  10:	7013      	strb	r3, [r2, #0]
C:\tien\PROJEKTY\procesory\STM\T108_V100a\sources/sys.c:1670
    
    if ( Machine_State == WG_POWER_ON_CLOSING_2 )
  12:	4b53      	ldr	r3, [pc, #332]	(160 <Motors_Enable_Fun+0x160>)
  14:	781b      	ldrb	r3, [r3, #0]
  16:	2b13      	cmp	r3, #19
  18:	d104      	bne.n	24 <Motors_Enable_Fun+0x24>
C:\tien\PROJEKTY\procesory\STM\T108_V100a\sources/sys.c:1671
        Motors_Enable |= MOTOR_2_CLOSING;
  1a:	4a50      	ldr	r2, [pc, #320]	(15c <Motors_Enable_Fun+0x15c>)
  1c:	7813      	ldrb	r3, [r2, #0]
  1e:	f043 0320 	orr.w	r3, r3, #32	; 0x20
  22:	7013      	strb	r3, [r2, #0]
C:\tien\PROJEKTY\procesory\STM\T108_V100a\sources/sys.c:1673
        
    if ( Machine_State == WG_POWER_ON_CLOSING_1_2 )
  24:	4b4e      	ldr	r3, [pc, #312]	(160 <Motors_Enable_Fun+0x160>)
  26:	781b      	ldrb	r3, [r3, #0]
  28:	2b14      	cmp	r3, #20
  2a:	d104      	bne.n	36 <Motors_Enable_Fun+0x36>
C:\tien\PROJEKTY\procesory\STM\T108_V100a\sources/sys.c:1674
        Motors_Enable |= (MOTOR_1_CLOSING | MOTOR_2_CLOSING);
  2c:	4a4b      	ldr	r2, [pc, #300]	(15c <Motors_Enable_Fun+0x15c>)
  2e:	7813      	ldrb	r3, [r2, #0]
  30:	f043 0330 	orr.w	r3, r3, #48	; 0x30
  34:	7013      	strb	r3, [r2, #0]
C:\tien\PROJEKTY\procesory\STM\T108_V100a\sources/sys.c:1676
        
    if ( Machine_State == WG_CLOSING_1 )
  36:	4b4a      	ldr	r3, [pc, #296]	(160 <Motors_Enable_Fun+0x160>)
  38:	781b      	ldrb	r3, [r3, #0]
  3a:	2b1f      	cmp	r3, #31
  3c:	d104      	bne.n	48 <Motors_Enable_Fun+0x48>
C:\tien\PROJEKTY\procesory\STM\T108_V100a\sources/sys.c:1677
        Motors_Enable |= MOTOR_1_CLOSING;
  3e:	4a47      	ldr	r2, [pc, #284]	(15c <Motors_Enable_Fun+0x15c>)
  40:	7813      	ldrb	r3, [r2, #0]
  42:	f043 0310 	orr.w	r3, r3, #16	; 0x10
  46:	7013      	strb	r3, [r2, #0]
C:\tien\PROJEKTY\procesory\STM\T108_V100a\sources/sys.c:1679
        
    if ( Machine_State == WG_CLOSING_2 )
  48:	4b45      	ldr	r3, [pc, #276]	(160 <Motors_Enable_Fun+0x160>)
  4a:	781b      	ldrb	r3, [r3, #0]
  4c:	2b20      	cmp	r3, #32
  4e:	d104      	bne.n	5a <Motors_Enable_Fun+0x5a>
C:\tien\PROJEKTY\procesory\STM\T108_V100a\sources/sys.c:1680
        Motors_Enable |= MOTOR_2_CLOSING;
  50:	4a42      	ldr	r2, [pc, #264]	(15c <Motors_Enable_Fun+0x15c>)
  52:	7813      	ldrb	r3, [r2, #0]
  54:	f043 0320 	orr.w	r3, r3, #32	; 0x20
  58:	7013      	strb	r3, [r2, #0]
C:\tien\PROJEKTY\procesory\STM\T108_V100a\sources/sys.c:1682
        
    if ( Machine_State == WG_CLOSING_1_2 )
  5a:	4b41      	ldr	r3, [pc, #260]	(160 <Motors_Enable_Fun+0x160>)
  5c:	781b      	ldrb	r3, [r3, #0]
  5e:	2b21      	cmp	r3, #33
  60:	d104      	bne.n	6c <Motors_Enable_Fun+0x6c>
C:\tien\PROJEKTY\procesory\STM\T108_V100a\sources/sys.c:1683
        Motors_Enable |= (MOTOR_1_CLOSING | MOTOR_2_CLOSING);
  62:	4a3e      	ldr	r2, [pc, #248]	(15c <Motors_Enable_Fun+0x15c>)
  64:	7813      	ldrb	r3, [r2, #0]
  66:	f043 0330 	orr.w	r3, r3, #48	; 0x30
  6a:	7013      	strb	r3, [r2, #0]
C:\tien\PROJEKTY\procesory\STM\T108_V100a\sources/sys.c:1685
        
    if ( Machine_State == WG_OPENING_1 )
  6c:	4b3c      	ldr	r3, [pc, #240]	(160 <Motors_Enable_Fun+0x160>)
  6e:	781b      	ldrb	r3, [r3, #0]
  70:	2b1a      	cmp	r3, #26
  72:	d104      	bne.n	7e <Motors_Enable_Fun+0x7e>
C:\tien\PROJEKTY\procesory\STM\T108_V100a\sources/sys.c:1686
        Motors_Enable |= MOTOR_1_OPENING;
  74:	4a39      	ldr	r2, [pc, #228]	(15c <Motors_Enable_Fun+0x15c>)
  76:	7813      	ldrb	r3, [r2, #0]
  78:	f043 0301 	orr.w	r3, r3, #1	; 0x1
  7c:	7013      	strb	r3, [r2, #0]
C:\tien\PROJEKTY\procesory\STM\T108_V100a\sources/sys.c:1688
        
    if ( Machine_State == WG_OPENING_2 )
  7e:	4b38      	ldr	r3, [pc, #224]	(160 <Motors_Enable_Fun+0x160>)
  80:	781b      	ldrb	r3, [r3, #0]
  82:	2b1b      	cmp	r3, #27
  84:	d104      	bne.n	90 <Motors_Enable_Fun+0x90>
C:\tien\PROJEKTY\procesory\STM\T108_V100a\sources/sys.c:1689
        Motors_Enable |= MOTOR_2_OPENING;
  86:	4a35      	ldr	r2, [pc, #212]	(15c <Motors_Enable_Fun+0x15c>)
  88:	7813      	ldrb	r3, [r2, #0]
  8a:	f043 0302 	orr.w	r3, r3, #2	; 0x2
  8e:	7013      	strb	r3, [r2, #0]
C:\tien\PROJEKTY\procesory\STM\T108_V100a\sources/sys.c:1691
        
    if ( Machine_State == WG_OPENING_1_2 )
  90:	4b33      	ldr	r3, [pc, #204]	(160 <Motors_Enable_Fun+0x160>)
  92:	781b      	ldrb	r3, [r3, #0]
  94:	2b1c      	cmp	r3, #28
  96:	d104      	bne.n	a2 <Motors_Enable_Fun+0xa2>
C:\tien\PROJEKTY\procesory\STM\T108_V100a\sources/sys.c:1692
        Motors_Enable |= (MOTOR_1_OPENING | MOTOR_2_OPENING);
  98:	4a30      	ldr	r2, [pc, #192]	(15c <Motors_Enable_Fun+0x15c>)
  9a:	7813      	ldrb	r3, [r2, #0]
  9c:	f043 0303 	orr.w	r3, r3, #3	; 0x3
  a0:	7013      	strb	r3, [r2, #0]
C:\tien\PROJEKTY\procesory\STM\T108_V100a\sources/sys.c:1694

    if ( Machine_State == START_OPENING )
  a2:	4b2f      	ldr	r3, [pc, #188]	(160 <Motors_Enable_Fun+0x160>)
  a4:	781b      	ldrb	r3, [r3, #0]
  a6:	2b26      	cmp	r3, #38
  a8:	d104      	bne.n	b4 <Motors_Enable_Fun+0xb4>
C:\tien\PROJEKTY\procesory\STM\T108_V100a\sources/sys.c:1695
        Motors_Enable |= MOTOR_1_OPENING;
  aa:	4a2c      	ldr	r2, [pc, #176]	(15c <Motors_Enable_Fun+0x15c>)
  ac:	7813      	ldrb	r3, [r2, #0]
  ae:	f043 0301 	orr.w	r3, r3, #1	; 0x1
  b2:	7013      	strb	r3, [r2, #0]
C:\tien\PROJEKTY\procesory\STM\T108_V100a\sources/sys.c:1697
        
    if ( Machine_State == START_CLOSING )
  b4:	4b2a      	ldr	r3, [pc, #168]	(160 <Motors_Enable_Fun+0x160>)
  b6:	781b      	ldrb	r3, [r3, #0]
  b8:	2b27      	cmp	r3, #39
  ba:	d104      	bne.n	c6 <Motors_Enable_Fun+0xc6>
C:\tien\PROJEKTY\procesory\STM\T108_V100a\sources/sys.c:1698
        Motors_Enable |= MOTOR_2_CLOSING;
  bc:	4a27      	ldr	r2, [pc, #156]	(15c <Motors_Enable_Fun+0x15c>)
  be:	7813      	ldrb	r3, [r2, #0]
  c0:	f043 0320 	orr.w	r3, r3, #32	; 0x20
  c4:	7013      	strb	r3, [r2, #0]
C:\tien\PROJEKTY\procesory\STM\T108_V100a\sources/sys.c:1700

    if ( Machine_State == OP_AL_BACK )
  c6:	4b26      	ldr	r3, [pc, #152]	(160 <Motors_Enable_Fun+0x160>)
  c8:	781b      	ldrb	r3, [r3, #0]
  ca:	2b03      	cmp	r3, #3
  cc:	d104      	bne.n	d8 <Motors_Enable_Fun+0xd8>
C:\tien\PROJEKTY\procesory\STM\T108_V100a\sources/sys.c:1701
        Motors_Enable |= MOTOR_1_CLOSING;
  ce:	4a23      	ldr	r2, [pc, #140]	(15c <Motors_Enable_Fun+0x15c>)
  d0:	7813      	ldrb	r3, [r2, #0]
  d2:	f043 0310 	orr.w	r3, r3, #16	; 0x10
  d6:	7013      	strb	r3, [r2, #0]
C:\tien\PROJEKTY\procesory\STM\T108_V100a\sources/sys.c:1703

    if ( Machine_State == CL_AL_BACK )
  d8:	4b21      	ldr	r3, [pc, #132]	(160 <Motors_Enable_Fun+0x160>)
  da:	781b      	ldrb	r3, [r3, #0]
  dc:	2b07      	cmp	r3, #7
  de:	d104      	bne.n	ea <Motors_Enable_Fun+0xea>
C:\tien\PROJEKTY\procesory\STM\T108_V100a\sources/sys.c:1704
        Motors_Enable |= MOTOR_1_OPENING;
  e0:	4a1e      	ldr	r2, [pc, #120]	(15c <Motors_Enable_Fun+0x15c>)
  e2:	7813      	ldrb	r3, [r2, #0]
  e4:	f043 0301 	orr.w	r3, r3, #1	; 0x1
  e8:	7013      	strb	r3, [r2, #0]
C:\tien\PROJEKTY\procesory\STM\T108_V100a\sources/sys.c:1706

    if ( Machine_State == SENSOR_SETTING && Screen_Number == CZUJNIKI1 )
  ea:	4b1d      	ldr	r3, [pc, #116]	(160 <Motors_Enable_Fun+0x160>)
  ec:	781b      	ldrb	r3, [r3, #0]
  ee:	2b2b      	cmp	r3, #43
  f0:	d133      	bne.n	15a <Motors_Enable_Fun+0x15a>
  f2:	4b1c      	ldr	r3, [pc, #112]	(164 <Motors_Enable_Fun+0x164>)
  f4:	781b      	ldrb	r3, [r3, #0]
  f6:	2b21      	cmp	r3, #33
  f8:	d12f      	bne.n	15a <Motors_Enable_Fun+0x15a>
C:\tien\PROJEKTY\procesory\STM\T108_V100a\sources/sys.c:1708
    {
        if ( Keyboards_Level & KEY_LEFT )
  fa:	4b1b      	ldr	r3, [pc, #108]	(168 <Motors_Enable_Fun+0x168>)
  fc:	7a99      	ldrb	r1, [r3, #10]
  fe:	f011 0f04 	tst.w	r1, #4	; 0x4
 102:	d013      	beq.n	12c <Motors_Enable_Fun+0x12c>
C:\tien\PROJEKTY\procesory\STM\T108_V100a\sources/sys.c:1710
        {
            if ( Edit_Parameter_Counter <= 1)
 104:	4b19      	ldr	r3, [pc, #100]	(16c <Motors_Enable_Fun+0x16c>)
 106:	781b      	ldrb	r3, [r3, #0]
 108:	2b01      	cmp	r3, #1
 10a:	d90a      	bls.n	122 <Motors_Enable_Fun+0x122>
C:\tien\PROJEKTY\procesory\STM\T108_V100a\sources/sys.c:1716
            {
                Motors_Enable |= MOTOR_1_CLOSING;
            }
            else
            {
                if ( Controlling_Variables.Ctrl_Vars.One_Wing_Gate_Type == 0 ) // Normal
 10c:	4b18      	ldr	r3, [pc, #96]	(170 <Motors_Enable_Fun+0x170>)
 10e:	f893 302c 	ldrb.w	r3, [r3, #44]
 112:	b923      	cbnz	r3, 11e <Motors_Enable_Fun+0x11e>
C:\tien\PROJEKTY\procesory\STM\T108_V100a\sources/sys.c:1718
                { 
                    Motors_Enable |= MOTOR_2_CLOSING;
 114:	4a11      	ldr	r2, [pc, #68]	(15c <Motors_Enable_Fun+0x15c>)
 116:	7813      	ldrb	r3, [r2, #0]
 118:	f043 0320 	orr.w	r3, r3, #32	; 0x20
 11c:	e005      	b.n	12a <Motors_Enable_Fun+0x12a>
C:\tien\PROJEKTY\procesory\STM\T108_V100a\sources/sys.c:1720
                }
                else if ( Controlling_Variables.Ctrl_Vars.One_Wing_Gate_Type == 1 ) // Reverse
 11e:	2b01      	cmp	r3, #1
 120:	d104      	bne.n	12c <Motors_Enable_Fun+0x12c>
C:\tien\PROJEKTY\procesory\STM\T108_V100a\sources/sys.c:1722
                {
                    Motors_Enable |= MOTOR_1_CLOSING;                
 122:	4a0e      	ldr	r2, [pc, #56]	(15c <Motors_Enable_Fun+0x15c>)
 124:	7813      	ldrb	r3, [r2, #0]
 126:	f043 0310 	orr.w	r3, r3, #16	; 0x10
 12a:	7013      	strb	r3, [r2, #0]
C:\tien\PROJEKTY\procesory\STM\T108_V100a\sources/sys.c:1726
                }
            }
        }
        if ( Keyboards_Level & KEY_RIGHT )
 12c:	f011 0f10 	tst.w	r1, #16	; 0x10
 130:	d013      	beq.n	15a <Motors_Enable_Fun+0x15a>
C:\tien\PROJEKTY\procesory\STM\T108_V100a\sources/sys.c:1728
        {
            if ( Edit_Parameter_Counter <= 1)
 132:	4b0e      	ldr	r3, [pc, #56]	(16c <Motors_Enable_Fun+0x16c>)
 134:	781b      	ldrb	r3, [r3, #0]
 136:	2b01      	cmp	r3, #1
 138:	d90a      	bls.n	150 <Motors_Enable_Fun+0x150>
C:\tien\PROJEKTY\procesory\STM\T108_V100a\sources/sys.c:1734
            {
                Motors_Enable |= MOTOR_1_OPENING;
            }
            else
            {
                if ( Controlling_Variables.Ctrl_Vars.One_Wing_Gate_Type == 0 ) // Normal
 13a:	4b0d      	ldr	r3, [pc, #52]	(170 <Motors_Enable_Fun+0x170>)
 13c:	f893 302c 	ldrb.w	r3, [r3, #44]
 140:	b923      	cbnz	r3, 14c <Motors_Enable_Fun+0x14c>
C:\tien\PROJEKTY\procesory\STM\T108_V100a\sources/sys.c:1736
                { 
                    Motors_Enable |= MOTOR_2_OPENING;
 142:	4a06      	ldr	r2, [pc, #24]	(15c <Motors_Enable_Fun+0x15c>)
 144:	7813      	ldrb	r3, [r2, #0]
 146:	f043 0302 	orr.w	r3, r3, #2	; 0x2
 14a:	e005      	b.n	158 <Motors_Enable_Fun+0x158>
C:\tien\PROJEKTY\procesory\STM\T108_V100a\sources/sys.c:1738
                }
                else if ( Controlling_Variables.Ctrl_Vars.One_Wing_Gate_Type == 1 ) // Reverse
 14c:	2b01      	cmp	r3, #1
 14e:	d104      	bne.n	15a <Motors_Enable_Fun+0x15a>
C:\tien\PROJEKTY\procesory\STM\T108_V100a\sources/sys.c:1740
                {
                    Motors_Enable |= MOTOR_1_OPENING;                
 150:	4a02      	ldr	r2, [pc, #8]	(15c <Motors_Enable_Fun+0x15c>)
 152:	7813      	ldrb	r3, [r2, #0]
 154:	f043 0301 	orr.w	r3, r3, #1	; 0x1
 158:	7013      	strb	r3, [r2, #0]
C:\tien\PROJEKTY\procesory\STM\T108_V100a\sources/sys.c:1745
                }
            }
        }
    }
}
 15a:	4770      	bx	lr
	...
Disassembly of section .text.Status_Handling:

00000000 <Status_Handling>:
Status_Handling():
C:\tien\PROJEKTY\procesory\STM\T108_V100a\sources/sys.c:1749

void Status_Handling ( void )
{
    if ( Machine_State >= WG_POWER_ON &&
   0:	4a23      	ldr	r2, [pc, #140]	(90 <Status_Handling+0x90>)
   2:	7813      	ldrb	r3, [r2, #0]
   4:	2b10      	cmp	r3, #16
   6:	d904      	bls.n	12 <Status_Handling+0x12>
   8:	7813      	ldrb	r3, [r2, #0]
   a:	2b16      	cmp	r3, #22
   c:	d801      	bhi.n	12 <Status_Handling+0x12>
C:\tien\PROJEKTY\procesory\STM\T108_V100a\sources/sys.c:1752
         Machine_State <= WG_POWER_ON_EXT_ALERT )
    {
        Controller_Variables.Controller_Vars.Status = STATUS_WAYDETECT;
   e:	2200      	movs	r2, #0
  10:	e03a      	b.n	88 <Status_Handling+0x88>
C:\tien\PROJEKTY\procesory\STM\T108_V100a\sources/sys.c:1754
    }
    else if (   Machine_State == START_OPENING ||
  12:	4a1f      	ldr	r2, [pc, #124]	(90 <Status_Handling+0x90>)
  14:	7813      	ldrb	r3, [r2, #0]
  16:	2b26      	cmp	r3, #38
  18:	d008      	beq.n	2c <Status_Handling+0x2c>
  1a:	7813      	ldrb	r3, [r2, #0]
  1c:	2b1a      	cmp	r3, #26
  1e:	d005      	beq.n	2c <Status_Handling+0x2c>
  20:	7813      	ldrb	r3, [r2, #0]
  22:	2b1b      	cmp	r3, #27
  24:	d002      	beq.n	2c <Status_Handling+0x2c>
  26:	7813      	ldrb	r3, [r2, #0]
  28:	2b1c      	cmp	r3, #28
  2a:	d101      	bne.n	30 <Status_Handling+0x30>
C:\tien\PROJEKTY\procesory\STM\T108_V100a\sources/sys.c:1759
                Machine_State == WG_OPENING_1 ||
                Machine_State == WG_OPENING_2 ||
                Machine_State == WG_OPENING_1_2 )
    {
        Controller_Variables.Controller_Vars.Status = STATUS_GATEOPENING;
  2c:	2203      	movs	r2, #3
  2e:	e02b      	b.n	88 <Status_Handling+0x88>
C:\tien\PROJEKTY\procesory\STM\T108_V100a\sources/sys.c:1761
    }
    else if (   Machine_State == START_CLOSING ||
  30:	7813      	ldrb	r3, [r2, #0]
  32:	2b27      	cmp	r3, #39
  34:	d008      	beq.n	48 <Status_Handling+0x48>
  36:	7813      	ldrb	r3, [r2, #0]
  38:	2b1f      	cmp	r3, #31
  3a:	d005      	beq.n	48 <Status_Handling+0x48>
  3c:	7813      	ldrb	r3, [r2, #0]
  3e:	2b20      	cmp	r3, #32
  40:	d002      	beq.n	48 <Status_Handling+0x48>
  42:	7813      	ldrb	r3, [r2, #0]
  44:	2b21      	cmp	r3, #33
  46:	d101      	bne.n	4c <Status_Handling+0x4c>
C:\tien\PROJEKTY\procesory\STM\T108_V100a\sources/sys.c:1766
                Machine_State == WG_CLOSING_1 ||
                Machine_State == WG_CLOSING_2 ||
                Machine_State == WG_CLOSING_1_2 )
    {
        Controller_Variables.Controller_Vars.Status = STATUS_GATECLOSING;
  48:	2206      	movs	r2, #6
  4a:	e01d      	b.n	88 <Status_Handling+0x88>
C:\tien\PROJEKTY\procesory\STM\T108_V100a\sources/sys.c:1768
    }
    else if (   Machine_State == WG_OPENED_HALF )
  4c:	7813      	ldrb	r3, [r2, #0]
  4e:	2b1d      	cmp	r3, #29
  50:	d101      	bne.n	56 <Status_Handling+0x56>
C:\tien\PROJEKTY\procesory\STM\T108_V100a\sources/sys.c:1770
    {
        Controller_Variables.Controller_Vars.Status = STATUS_HALFOPENED;
  52:	2205      	movs	r2, #5
  54:	e018      	b.n	88 <Status_Handling+0x88>
C:\tien\PROJEKTY\procesory\STM\T108_V100a\sources/sys.c:1772
    } 
    else if (   Machine_State == WG_CLOSED_HALF )
  56:	7813      	ldrb	r3, [r2, #0]
  58:	2b19      	cmp	r3, #25
  5a:	d101      	bne.n	60 <Status_Handling+0x60>
C:\tien\PROJEKTY\procesory\STM\T108_V100a\sources/sys.c:1774
    {
        Controller_Variables.Controller_Vars.Status = STATUS_HALFCLOSED;
  5c:	2202      	movs	r2, #2
  5e:	e013      	b.n	88 <Status_Handling+0x88>
C:\tien\PROJEKTY\procesory\STM\T108_V100a\sources/sys.c:1776
    }
    else if (   Machine_State == WG_OPENED )
  60:	4a0b      	ldr	r2, [pc, #44]	(90 <Status_Handling+0x90>)
  62:	7813      	ldrb	r3, [r2, #0]
  64:	2b1e      	cmp	r3, #30
  66:	d101      	bne.n	6c <Status_Handling+0x6c>
C:\tien\PROJEKTY\procesory\STM\T108_V100a\sources/sys.c:1778
    {
        Controller_Variables.Controller_Vars.Status = STATUS_GATEOPENED;
  68:	2204      	movs	r2, #4
  6a:	e00d      	b.n	88 <Status_Handling+0x88>
C:\tien\PROJEKTY\procesory\STM\T108_V100a\sources/sys.c:1780
    }
    else if (   Machine_State == WG_CLOSED )
  6c:	7813      	ldrb	r3, [r2, #0]
  6e:	2b18      	cmp	r3, #24
  70:	d101      	bne.n	76 <Status_Handling+0x76>
C:\tien\PROJEKTY\procesory\STM\T108_V100a\sources/sys.c:1782
    {
        Controller_Variables.Controller_Vars.Status = STATUS_GATECLOSED;
  72:	2201      	movs	r2, #1
  74:	e008      	b.n	88 <Status_Handling+0x88>
C:\tien\PROJEKTY\procesory\STM\T108_V100a\sources/sys.c:1785
    }

    else if (   Machine_State == WG_ALERTS )
  76:	7813      	ldrb	r3, [r2, #0]
  78:	2b22      	cmp	r3, #34
  7a:	d101      	bne.n	80 <Status_Handling+0x80>
C:\tien\PROJEKTY\procesory\STM\T108_V100a\sources/sys.c:1787
    {
        Controller_Variables.Controller_Vars.Status = STATUS_GATEALERT;
  7c:	2208      	movs	r2, #8
  7e:	e003      	b.n	88 <Status_Handling+0x88>
C:\tien\PROJEKTY\procesory\STM\T108_V100a\sources/sys.c:1789
    }
    else if (   Machine_State == WG_STOP )
  80:	7813      	ldrb	r3, [r2, #0]
  82:	2b23      	cmp	r3, #35
  84:	d102      	bne.n	8c <Status_Handling+0x8c>
C:\tien\PROJEKTY\procesory\STM\T108_V100a\sources/sys.c:1791
    {
        Controller_Variables.Controller_Vars.Status = STATUS_GATESTOPPED;
  86:	2207      	movs	r2, #7
  88:	4b02      	ldr	r3, [pc, #8]	(94 <Status_Handling+0x94>)
  8a:	73da      	strb	r2, [r3, #15]
C:\tien\PROJEKTY\procesory\STM\T108_V100a\sources/sys.c:1793
    }
}
  8c:	4770      	bx	lr
  8e:	46c0      	nop			(mov r8, r8)
	...
Disassembly of section .text.Relays_Handling:

00000000 <Relays_Handling>:
Relays_Handling():
C:\tien\PROJEKTY\procesory\STM\T108_V100a\sources/sys.c:1799

uint8_t Relays_Handling ( uint8_t Fun )
{
    uint8_t  Relay_Value;

    if ( Fun == 0 ) //Off
   0:	4601      	mov	r1, r0
   2:	2800      	cmp	r0, #0
   4:	f000 8159 	beq.w	2ba <Relays_Handling+0x2ba>
C:\tien\PROJEKTY\procesory\STM\T108_V100a\sources/sys.c:1803
    {
        Relay_Value = FALSE;
    }
    else if ( Fun == 1 || Fun == 4 ) //Lamp or pulse lamp
   8:	2801      	cmp	r0, #1
   a:	d001      	beq.n	10 <Relays_Handling+0x10>
   c:	2804      	cmp	r0, #4
   e:	d174      	bne.n	fa <Relays_Handling+0xfa>
C:\tien\PROJEKTY\procesory\STM\T108_V100a\sources/sys.c:1805
    {
        if ( Machine_State == OPENING_RELAY ||
  10:	4a7e      	ldr	r2, [pc, #504]	(20c <Relays_Handling+0x20c>)
  12:	7813      	ldrb	r3, [r2, #0]
  14:	2b00      	cmp	r3, #0
  16:	d069      	beq.n	ec <Relays_Handling+0xec>
  18:	7813      	ldrb	r3, [r2, #0]
  1a:	2b01      	cmp	r3, #1
  1c:	d066      	beq.n	ec <Relays_Handling+0xec>
  1e:	7813      	ldrb	r3, [r2, #0]
  20:	2b02      	cmp	r3, #2
  22:	d063      	beq.n	ec <Relays_Handling+0xec>
  24:	7813      	ldrb	r3, [r2, #0]
  26:	2b03      	cmp	r3, #3
  28:	d060      	beq.n	ec <Relays_Handling+0xec>
  2a:	7813      	ldrb	r3, [r2, #0]
  2c:	2b04      	cmp	r3, #4
  2e:	d05d      	beq.n	ec <Relays_Handling+0xec>
  30:	7813      	ldrb	r3, [r2, #0]
  32:	2b05      	cmp	r3, #5
  34:	d05a      	beq.n	ec <Relays_Handling+0xec>
  36:	7813      	ldrb	r3, [r2, #0]
  38:	2b06      	cmp	r3, #6
  3a:	d057      	beq.n	ec <Relays_Handling+0xec>
  3c:	7813      	ldrb	r3, [r2, #0]
  3e:	2b07      	cmp	r3, #7
  40:	d054      	beq.n	ec <Relays_Handling+0xec>
  42:	7813      	ldrb	r3, [r2, #0]
  44:	2b08      	cmp	r3, #8
  46:	d051      	beq.n	ec <Relays_Handling+0xec>
  48:	7813      	ldrb	r3, [r2, #0]
  4a:	2b09      	cmp	r3, #9
  4c:	d04e      	beq.n	ec <Relays_Handling+0xec>
  4e:	7813      	ldrb	r3, [r2, #0]
  50:	2b0a      	cmp	r3, #10
  52:	d04b      	beq.n	ec <Relays_Handling+0xec>
  54:	7813      	ldrb	r3, [r2, #0]
  56:	2b0b      	cmp	r3, #11
  58:	d048      	beq.n	ec <Relays_Handling+0xec>
  5a:	7813      	ldrb	r3, [r2, #0]
  5c:	2b0c      	cmp	r3, #12
  5e:	d045      	beq.n	ec <Relays_Handling+0xec>
  60:	7813      	ldrb	r3, [r2, #0]
  62:	2b0d      	cmp	r3, #13
  64:	d042      	beq.n	ec <Relays_Handling+0xec>
  66:	7813      	ldrb	r3, [r2, #0]
  68:	2b10      	cmp	r3, #16
  6a:	d03f      	beq.n	ec <Relays_Handling+0xec>
  6c:	7813      	ldrb	r3, [r2, #0]
  6e:	2b11      	cmp	r3, #17
  70:	d03c      	beq.n	ec <Relays_Handling+0xec>
  72:	7813      	ldrb	r3, [r2, #0]
  74:	2b12      	cmp	r3, #18
  76:	d039      	beq.n	ec <Relays_Handling+0xec>
  78:	7813      	ldrb	r3, [r2, #0]
  7a:	2b13      	cmp	r3, #19
  7c:	d036      	beq.n	ec <Relays_Handling+0xec>
  7e:	7813      	ldrb	r3, [r2, #0]
  80:	2b14      	cmp	r3, #20
  82:	d033      	beq.n	ec <Relays_Handling+0xec>
  84:	7813      	ldrb	r3, [r2, #0]
  86:	2b15      	cmp	r3, #21
  88:	d030      	beq.n	ec <Relays_Handling+0xec>
  8a:	7813      	ldrb	r3, [r2, #0]
  8c:	2b16      	cmp	r3, #22
  8e:	d02d      	beq.n	ec <Relays_Handling+0xec>
  90:	7813      	ldrb	r3, [r2, #0]
  92:	2b1a      	cmp	r3, #26
  94:	d02a      	beq.n	ec <Relays_Handling+0xec>
  96:	7813      	ldrb	r3, [r2, #0]
  98:	2b1b      	cmp	r3, #27
  9a:	d027      	beq.n	ec <Relays_Handling+0xec>
  9c:	7813      	ldrb	r3, [r2, #0]
  9e:	2b1c      	cmp	r3, #28
  a0:	d024      	beq.n	ec <Relays_Handling+0xec>
  a2:	7813      	ldrb	r3, [r2, #0]
  a4:	2b1f      	cmp	r3, #31
  a6:	d021      	beq.n	ec <Relays_Handling+0xec>
  a8:	7813      	ldrb	r3, [r2, #0]
  aa:	2b20      	cmp	r3, #32
  ac:	d01e      	beq.n	ec <Relays_Handling+0xec>
  ae:	7813      	ldrb	r3, [r2, #0]
  b0:	2b21      	cmp	r3, #33
  b2:	d01b      	beq.n	ec <Relays_Handling+0xec>
  b4:	7813      	ldrb	r3, [r2, #0]
  b6:	2b25      	cmp	r3, #37
  b8:	d018      	beq.n	ec <Relays_Handling+0xec>
  ba:	7813      	ldrb	r3, [r2, #0]
  bc:	2b28      	cmp	r3, #40
  be:	d015      	beq.n	ec <Relays_Handling+0xec>
  c0:	7813      	ldrb	r3, [r2, #0]
  c2:	2b26      	cmp	r3, #38
  c4:	d012      	beq.n	ec <Relays_Handling+0xec>
  c6:	7813      	ldrb	r3, [r2, #0]
  c8:	2b27      	cmp	r3, #39
  ca:	d00f      	beq.n	ec <Relays_Handling+0xec>
  cc:	7813      	ldrb	r3, [r2, #0]
  ce:	2b29      	cmp	r3, #41
  d0:	d00c      	beq.n	ec <Relays_Handling+0xec>
  d2:	7813      	ldrb	r3, [r2, #0]
  d4:	2b2a      	cmp	r3, #42
  d6:	d009      	beq.n	ec <Relays_Handling+0xec>
  d8:	7813      	ldrb	r3, [r2, #0]
  da:	2b2c      	cmp	r3, #44
  dc:	d006      	beq.n	ec <Relays_Handling+0xec>
  de:	7813      	ldrb	r3, [r2, #0]
  e0:	2b2d      	cmp	r3, #45
  e2:	d003      	beq.n	ec <Relays_Handling+0xec>
  e4:	7813      	ldrb	r3, [r2, #0]
  e6:	2b2e      	cmp	r3, #46
  e8:	f040 80e7 	bne.w	2ba <Relays_Handling+0x2ba>
C:\tien\PROJEKTY\procesory\STM\T108_V100a\sources/sys.c:1849
            Machine_State == INVERTER_ERR ||
            Machine_State == PH_WAIT_OPENING ||
            Machine_State == PH_WAIT_CLOSING ||
            Machine_State == WG_OPENING_ALERTS)
        {
            if ( Fun == 1 )
  ec:	2901      	cmp	r1, #1
  ee:	f000 80e6 	beq.w	2be <Relays_Handling+0x2be>
C:\tien\PROJEKTY\procesory\STM\T108_V100a\sources/sys.c:1853
            {
                Relay_Value = TRUE;
            }
            else if ( Fun == 4 )
  f2:	2904      	cmp	r1, #4
  f4:	f040 80e4 	bne.w	2c0 <Relays_Handling+0x2c0>
  f8:	e081      	b.n	1fe <Relays_Handling+0x1fe>
C:\tien\PROJEKTY\procesory\STM\T108_V100a\sources/sys.c:1870
        else
        {
            Relay_Value = FALSE;
        }      
    }
    else if ( Fun == 2 ) //Green
  fa:	2802      	cmp	r0, #2
  fc:	f000 80a6 	beq.w	24c <Relays_Handling+0x24c>
C:\tien\PROJEKTY\procesory\STM\T108_V100a\sources/sys.c:1881
        else
        {
            Relay_Value = FALSE;
        }    
    }
    else if ( Fun == 3 ) //Red
 100:	2803      	cmp	r0, #3
 102:	f040 8090 	bne.w	226 <Relays_Handling+0x226>
C:\tien\PROJEKTY\procesory\STM\T108_V100a\sources/sys.c:1883
    {
        if (Machine_State == OPENING_RELAY ||
 106:	4a41      	ldr	r2, [pc, #260]	(20c <Relays_Handling+0x20c>)
 108:	7813      	ldrb	r3, [r2, #0]
 10a:	2b00      	cmp	r3, #0
 10c:	d077      	beq.n	1fe <Relays_Handling+0x1fe>
 10e:	7813      	ldrb	r3, [r2, #0]
 110:	2b01      	cmp	r3, #1
 112:	d074      	beq.n	1fe <Relays_Handling+0x1fe>
 114:	7813      	ldrb	r3, [r2, #0]
 116:	2b02      	cmp	r3, #2
 118:	d071      	beq.n	1fe <Relays_Handling+0x1fe>
 11a:	7813      	ldrb	r3, [r2, #0]
 11c:	2b03      	cmp	r3, #3
 11e:	d06e      	beq.n	1fe <Relays_Handling+0x1fe>
 120:	7813      	ldrb	r3, [r2, #0]
 122:	2b04      	cmp	r3, #4
 124:	d06b      	beq.n	1fe <Relays_Handling+0x1fe>
 126:	7813      	ldrb	r3, [r2, #0]
 128:	2b05      	cmp	r3, #5
 12a:	d068      	beq.n	1fe <Relays_Handling+0x1fe>
 12c:	7813      	ldrb	r3, [r2, #0]
 12e:	2b06      	cmp	r3, #6
 130:	d065      	beq.n	1fe <Relays_Handling+0x1fe>
 132:	7813      	ldrb	r3, [r2, #0]
 134:	2b07      	cmp	r3, #7
 136:	d062      	beq.n	1fe <Relays_Handling+0x1fe>
 138:	7813      	ldrb	r3, [r2, #0]
 13a:	2b08      	cmp	r3, #8
 13c:	d05f      	beq.n	1fe <Relays_Handling+0x1fe>
 13e:	7813      	ldrb	r3, [r2, #0]
 140:	2b09      	cmp	r3, #9
 142:	d05c      	beq.n	1fe <Relays_Handling+0x1fe>
 144:	7813      	ldrb	r3, [r2, #0]
 146:	2b0a      	cmp	r3, #10
 148:	d059      	beq.n	1fe <Relays_Handling+0x1fe>
 14a:	7813      	ldrb	r3, [r2, #0]
 14c:	2b0b      	cmp	r3, #11
 14e:	d056      	beq.n	1fe <Relays_Handling+0x1fe>
 150:	7813      	ldrb	r3, [r2, #0]
 152:	2b0c      	cmp	r3, #12
 154:	d053      	beq.n	1fe <Relays_Handling+0x1fe>
 156:	7813      	ldrb	r3, [r2, #0]
 158:	2b0d      	cmp	r3, #13
 15a:	d050      	beq.n	1fe <Relays_Handling+0x1fe>
 15c:	7813      	ldrb	r3, [r2, #0]
 15e:	2b0f      	cmp	r3, #15
 160:	d04d      	beq.n	1fe <Relays_Handling+0x1fe>
 162:	7813      	ldrb	r3, [r2, #0]
 164:	2b10      	cmp	r3, #16
 166:	d04a      	beq.n	1fe <Relays_Handling+0x1fe>
 168:	7813      	ldrb	r3, [r2, #0]
 16a:	2b11      	cmp	r3, #17
 16c:	d047      	beq.n	1fe <Relays_Handling+0x1fe>
 16e:	7813      	ldrb	r3, [r2, #0]
 170:	2b12      	cmp	r3, #18
 172:	d044      	beq.n	1fe <Relays_Handling+0x1fe>
 174:	7813      	ldrb	r3, [r2, #0]
 176:	2b13      	cmp	r3, #19
 178:	d041      	beq.n	1fe <Relays_Handling+0x1fe>
 17a:	7813      	ldrb	r3, [r2, #0]
 17c:	2b14      	cmp	r3, #20
 17e:	d03e      	beq.n	1fe <Relays_Handling+0x1fe>
 180:	7813      	ldrb	r3, [r2, #0]
 182:	2b15      	cmp	r3, #21
 184:	d03b      	beq.n	1fe <Relays_Handling+0x1fe>
 186:	7813      	ldrb	r3, [r2, #0]
 188:	2b16      	cmp	r3, #22
 18a:	d038      	beq.n	1fe <Relays_Handling+0x1fe>
 18c:	7813      	ldrb	r3, [r2, #0]
 18e:	2b1a      	cmp	r3, #26
 190:	d035      	beq.n	1fe <Relays_Handling+0x1fe>
 192:	7813      	ldrb	r3, [r2, #0]
 194:	2b1b      	cmp	r3, #27
 196:	d032      	beq.n	1fe <Relays_Handling+0x1fe>
 198:	7813      	ldrb	r3, [r2, #0]
 19a:	2b1c      	cmp	r3, #28
 19c:	d02f      	beq.n	1fe <Relays_Handling+0x1fe>
 19e:	7813      	ldrb	r3, [r2, #0]
 1a0:	2b1f      	cmp	r3, #31
 1a2:	d02c      	beq.n	1fe <Relays_Handling+0x1fe>
 1a4:	7813      	ldrb	r3, [r2, #0]
 1a6:	2b20      	cmp	r3, #32
 1a8:	d029      	beq.n	1fe <Relays_Handling+0x1fe>
 1aa:	7813      	ldrb	r3, [r2, #0]
 1ac:	2b21      	cmp	r3, #33
 1ae:	d026      	beq.n	1fe <Relays_Handling+0x1fe>
 1b0:	7813      	ldrb	r3, [r2, #0]
 1b2:	2b22      	cmp	r3, #34
 1b4:	d023      	beq.n	1fe <Relays_Handling+0x1fe>
 1b6:	7813      	ldrb	r3, [r2, #0]
 1b8:	2b23      	cmp	r3, #35
 1ba:	d020      	beq.n	1fe <Relays_Handling+0x1fe>
 1bc:	7813      	ldrb	r3, [r2, #0]
 1be:	2b24      	cmp	r3, #36
 1c0:	d01d      	beq.n	1fe <Relays_Handling+0x1fe>
 1c2:	7813      	ldrb	r3, [r2, #0]
 1c4:	2b25      	cmp	r3, #37
 1c6:	d01a      	beq.n	1fe <Relays_Handling+0x1fe>
 1c8:	7813      	ldrb	r3, [r2, #0]
 1ca:	2b28      	cmp	r3, #40
 1cc:	d017      	beq.n	1fe <Relays_Handling+0x1fe>
 1ce:	7813      	ldrb	r3, [r2, #0]
 1d0:	2b26      	cmp	r3, #38
 1d2:	d014      	beq.n	1fe <Relays_Handling+0x1fe>
 1d4:	7813      	ldrb	r3, [r2, #0]
 1d6:	2b27      	cmp	r3, #39
 1d8:	d011      	beq.n	1fe <Relays_Handling+0x1fe>
 1da:	7813      	ldrb	r3, [r2, #0]
 1dc:	2b29      	cmp	r3, #41
 1de:	d00e      	beq.n	1fe <Relays_Handling+0x1fe>
 1e0:	7813      	ldrb	r3, [r2, #0]
 1e2:	2b2a      	cmp	r3, #42
 1e4:	d00b      	beq.n	1fe <Relays_Handling+0x1fe>
 1e6:	7813      	ldrb	r3, [r2, #0]
 1e8:	2b2b      	cmp	r3, #43
 1ea:	d008      	beq.n	1fe <Relays_Handling+0x1fe>
 1ec:	7813      	ldrb	r3, [r2, #0]
 1ee:	2b2c      	cmp	r3, #44
 1f0:	d005      	beq.n	1fe <Relays_Handling+0x1fe>
 1f2:	7813      	ldrb	r3, [r2, #0]
 1f4:	2b2d      	cmp	r3, #45
 1f6:	d002      	beq.n	1fe <Relays_Handling+0x1fe>
 1f8:	7813      	ldrb	r3, [r2, #0]
 1fa:	2b2e      	cmp	r3, #46
 1fc:	d10a      	bne.n	214 <Relays_Handling+0x214>
 1fe:	4b04      	ldr	r3, [pc, #16]	(210 <Relays_Handling+0x210>)
 200:	781b      	ldrb	r3, [r3, #0]
 202:	2b01      	cmp	r3, #1
 204:	bf14      	ite	ne
 206:	2000      	movne	r0, #0
 208:	2001      	moveq	r0, #1
 20a:	e059      	b.n	2c0 <Relays_Handling+0x2c0>
	...
C:\tien\PROJEKTY\procesory\STM\T108_V100a\sources/sys.c:1943
            else
            {
                Relay_Value = FALSE;
            }        
        }
        else if ( Machine_State == WG_CLOSED ||
 214:	7813      	ldrb	r3, [r2, #0]
 216:	2b18      	cmp	r3, #24
 218:	d051      	beq.n	2be <Relays_Handling+0x2be>
 21a:	7813      	ldrb	r3, [r2, #0]
 21c:	2b19      	cmp	r3, #25
 21e:	bf14      	ite	ne
 220:	2000      	movne	r0, #0
 222:	2001      	moveq	r0, #1
 224:	e04c      	b.n	2c0 <Relays_Handling+0x2c0>
C:\tien\PROJEKTY\procesory\STM\T108_V100a\sources/sys.c:1953
        else
        {
            Relay_Value = FALSE;
        } 
    }
    else if ( Fun == 5 ) //S Zewnetrzny
 226:	2805      	cmp	r0, #5
 228:	d10e      	bne.n	248 <Relays_Handling+0x248>
C:\tien\PROJEKTY\procesory\STM\T108_V100a\sources/sys.c:1955
    {
        if (Machine_State == START_OPENING ||
 22a:	4a26      	ldr	r2, [pc, #152]	(2c4 <Relays_Handling+0x2c4>)
 22c:	7813      	ldrb	r3, [r2, #0]
 22e:	2b26      	cmp	r3, #38
 230:	d045      	beq.n	2be <Relays_Handling+0x2be>
 232:	7813      	ldrb	r3, [r2, #0]
 234:	2b1a      	cmp	r3, #26
 236:	d042      	beq.n	2be <Relays_Handling+0x2be>
 238:	7813      	ldrb	r3, [r2, #0]
 23a:	2b1b      	cmp	r3, #27
 23c:	d03f      	beq.n	2be <Relays_Handling+0x2be>
 23e:	7813      	ldrb	r3, [r2, #0]
 240:	2b1c      	cmp	r3, #28
 242:	d03c      	beq.n	2be <Relays_Handling+0x2be>
 244:	4613      	mov	r3, r2
 246:	e002      	b.n	24e <Relays_Handling+0x24e>
C:\tien\PROJEKTY\procesory\STM\T108_V100a\sources/sys.c:1969
        else
        {
            Relay_Value = FALSE;
        }  
    }
    else if ( Fun == 6 ) //S Zwrotny otw
 248:	2806      	cmp	r0, #6
 24a:	d106      	bne.n	25a <Relays_Handling+0x25a>
C:\tien\PROJEKTY\procesory\STM\T108_V100a\sources/sys.c:1971
    {
        if ( Machine_State == WG_OPENED )
 24c:	4b1d      	ldr	r3, [pc, #116]	(2c4 <Relays_Handling+0x2c4>)
 24e:	781b      	ldrb	r3, [r3, #0]
 250:	2b1e      	cmp	r3, #30
 252:	bf14      	ite	ne
 254:	2000      	movne	r0, #0
 256:	2001      	moveq	r0, #1
 258:	e032      	b.n	2c0 <Relays_Handling+0x2c0>
C:\tien\PROJEKTY\procesory\STM\T108_V100a\sources/sys.c:1980
        else
        {
            Relay_Value = FALSE;
        }     
    }
    else if ( Fun == 7 ) //S Zwrotny Zam
 25a:	2807      	cmp	r0, #7
 25c:	d106      	bne.n	26c <Relays_Handling+0x26c>
C:\tien\PROJEKTY\procesory\STM\T108_V100a\sources/sys.c:1982
    {
        if ( Machine_State == WG_CLOSED )
 25e:	4b19      	ldr	r3, [pc, #100]	(2c4 <Relays_Handling+0x2c4>)
 260:	781b      	ldrb	r3, [r3, #0]
 262:	2b18      	cmp	r3, #24
 264:	bf14      	ite	ne
 266:	2000      	movne	r0, #0
 268:	2001      	moveq	r0, #1
 26a:	e029      	b.n	2c0 <Relays_Handling+0x2c0>
C:\tien\PROJEKTY\procesory\STM\T108_V100a\sources/sys.c:1991
        else
        {
            Relay_Value = FALSE;
        }     
    }
    else if ( Fun == 8 ) //Elektromagnes
 26c:	2808      	cmp	r0, #8
 26e:	d10a      	bne.n	286 <Relays_Handling+0x286>
C:\tien\PROJEKTY\procesory\STM\T108_V100a\sources/sys.c:1993
    {
        if ( Machine_State == WG_CLOSED ||
 270:	4b14      	ldr	r3, [pc, #80]	(2c4 <Relays_Handling+0x2c4>)
 272:	781b      	ldrb	r3, [r3, #0]
 274:	2b18      	cmp	r3, #24
 276:	d022      	beq.n	2be <Relays_Handling+0x2be>
 278:	4b12      	ldr	r3, [pc, #72]	(2c4 <Relays_Handling+0x2c4>)
 27a:	781b      	ldrb	r3, [r3, #0]
 27c:	2b23      	cmp	r3, #35
 27e:	bf14      	ite	ne
 280:	2000      	movne	r0, #0
 282:	2001      	moveq	r0, #1
 284:	e01c      	b.n	2c0 <Relays_Handling+0x2c0>
C:\tien\PROJEKTY\procesory\STM\T108_V100a\sources/sys.c:2003
        else
        {
            Relay_Value = FALSE;
        }     
    }
    else if ( Fun == 9 )//Stop
 286:	2809      	cmp	r0, #9
 288:	d104      	bne.n	294 <Relays_Handling+0x294>
 28a:	4b0f      	ldr	r3, [pc, #60]	(2c8 <Relays_Handling+0x2c8>)
 28c:	8bdb      	ldrh	r3, [r3, #30]
 28e:	f003 0001 	and.w	r0, r3, #1	; 0x1
 292:	e015      	b.n	2c0 <Relays_Handling+0x2c0>
C:\tien\PROJEKTY\procesory\STM\T108_V100a\sources/sys.c:2014
        else
        {
            Relay_Value = FALSE;
        } 
    }
    else if ( Fun == 10 )//Safety edges
 294:	280a      	cmp	r0, #10
 296:	d113      	bne.n	2c0 <Relays_Handling+0x2c0>
C:\tien\PROJEKTY\procesory\STM\T108_V100a\sources/sys.c:2017
    {

        if ((Inputs_Level & INPUT7) !=0 ||
 298:	4a0c      	ldr	r2, [pc, #48]	(2cc <Relays_Handling+0x2cc>)
 29a:	68d3      	ldr	r3, [r2, #12]
 29c:	f013 0f40 	tst.w	r3, #64	; 0x40
 2a0:	d10d      	bne.n	2be <Relays_Handling+0x2be>
 2a2:	68d3      	ldr	r3, [r2, #12]
 2a4:	f013 0f80 	tst.w	r3, #128	; 0x80
 2a8:	d109      	bne.n	2be <Relays_Handling+0x2be>
 2aa:	68d3      	ldr	r3, [r2, #12]
 2ac:	f413 7f80 	tst.w	r3, #256	; 0x100
 2b0:	d105      	bne.n	2be <Relays_Handling+0x2be>
 2b2:	68d3      	ldr	r3, [r2, #12]
 2b4:	f3c3 2040 	ubfx	r0, r3, #9, #1
 2b8:	e002      	b.n	2c0 <Relays_Handling+0x2c0>
 2ba:	2000      	movs	r0, #0
 2bc:	e000      	b.n	2c0 <Relays_Handling+0x2c0>
 2be:	2001      	movs	r0, #1
C:\tien\PROJEKTY\procesory\STM\T108_V100a\sources/sys.c:2032
        } 
    }


    return Relay_Value;
}
 2c0:	4770      	bx	lr
 2c2:	46c0      	nop			(mov r8, r8)
	...
Disassembly of section .text.AS5040_Angle_Handling:

00000000 <AS5040_Angle_Handling>:
AS5040_Angle_Handling():
C:\tien\PROJEKTY\procesory\STM\T108_V100a\sources/sys.c:2036

void AS5040_Angle_Handling ( void )
{
    if ( Machine_State == WG_POWER_ON ||
   0:	4a2f      	ldr	r2, [pc, #188]	(c0 <AS5040_Angle_Handling+0xc0>)
C:\tien\PROJEKTY\procesory\STM\T108_V100a\sources/sys.c:2035

    return Relay_Value;
}

void AS5040_Angle_Handling ( void )
{
   2:	b530      	push	{r4, r5, lr}
C:\tien\PROJEKTY\procesory\STM\T108_V100a\sources/sys.c:2036
    if ( Machine_State == WG_POWER_ON ||
   4:	7813      	ldrb	r3, [r2, #0]
   6:	2b11      	cmp	r3, #17
   8:	d011      	beq.n	2e <AS5040_Angle_Handling+0x2e>
   a:	7813      	ldrb	r3, [r2, #0]
   c:	2b18      	cmp	r3, #24
   e:	d00e      	beq.n	2e <AS5040_Angle_Handling+0x2e>
  10:	7813      	ldrb	r3, [r2, #0]
  12:	2b19      	cmp	r3, #25
  14:	d00b      	beq.n	2e <AS5040_Angle_Handling+0x2e>
  16:	7813      	ldrb	r3, [r2, #0]
  18:	2b1d      	cmp	r3, #29
  1a:	d008      	beq.n	2e <AS5040_Angle_Handling+0x2e>
  1c:	7813      	ldrb	r3, [r2, #0]
  1e:	2b1e      	cmp	r3, #30
  20:	d005      	beq.n	2e <AS5040_Angle_Handling+0x2e>
  22:	7813      	ldrb	r3, [r2, #0]
  24:	2b23      	cmp	r3, #35
  26:	d002      	beq.n	2e <AS5040_Angle_Handling+0x2e>
  28:	7813      	ldrb	r3, [r2, #0]
  2a:	2b29      	cmp	r3, #41
  2c:	d10a      	bne.n	44 <AS5040_Angle_Handling+0x44>
C:\tien\PROJEKTY\procesory\STM\T108_V100a\sources/sys.c:2044
         Machine_State == WG_OPENED_HALF ||
         Machine_State ==  WG_OPENED ||
         Machine_State == WG_STOP ||
         Machine_State == INVERTER_PROG )
    {
        Angle1_Max = Controller_Variables.Controller_Vars.MSens1_Pulse_High + Controller_Variables.Controller_Vars.MSens1_Pulse_Low;
  2e:	4925      	ldr	r1, [pc, #148]	(c4 <AS5040_Angle_Handling+0xc4>)
  30:	8d0a      	ldrh	r2, [r1, #40]
  32:	8d4b      	ldrh	r3, [r1, #42]
  34:	189b      	adds	r3, r3, r2
  36:	4a24      	ldr	r2, [pc, #144]	(c8 <AS5040_Angle_Handling+0xc8>)
  38:	8013      	strh	r3, [r2, #0]
C:\tien\PROJEKTY\procesory\STM\T108_V100a\sources/sys.c:2045
        Angle2_Max = Controller_Variables.Controller_Vars.MSens2_Pulse_High + Controller_Variables.Controller_Vars.MSens2_Pulse_Low;
  3a:	8d8a      	ldrh	r2, [r1, #44]
  3c:	8dcb      	ldrh	r3, [r1, #46]
  3e:	189b      	adds	r3, r3, r2
  40:	4a22      	ldr	r2, [pc, #136]	(cc <AS5040_Angle_Handling+0xcc>)
  42:	8013      	strh	r3, [r2, #0]
C:\tien\PROJEKTY\procesory\STM\T108_V100a\sources/sys.c:2048
    }

    if (Angle1_Max > 1060)
  44:	4920      	ldr	r1, [pc, #128]	(c8 <AS5040_Angle_Handling+0xc8>)
  46:	f240 4224 	movw	r2, #1060	; 0x424
  4a:	880b      	ldrh	r3, [r1, #0]
C:\tien\PROJEKTY\procesory\STM\T108_V100a\sources/sys.c:2057
        Angle2_Max = 1060;

    Controller_Variables.Controller_Vars.MSens1_Angle = Controller_Variables.Controller_Vars.MSens1_Pulse_High;
    Controller_Variables.Controller_Vars.MSens2_Angle = Controller_Variables.Controller_Vars.MSens2_Pulse_High;

    Controller_Variables.Controller_Vars.Deg_Angle1_Op = (uint16_t)((Controlling_Variables.Ctrl_Vars.Angle1_Op*3600)/Angle1_Max);
  4c:	4820      	ldr	r0, [pc, #128]	(d0 <AS5040_Angle_Handling+0xd0>)
C:\tien\PROJEKTY\procesory\STM\T108_V100a\sources/sys.c:2048
    {
        Angle1_Max = Controller_Variables.Controller_Vars.MSens1_Pulse_High + Controller_Variables.Controller_Vars.MSens1_Pulse_Low;
        Angle2_Max = Controller_Variables.Controller_Vars.MSens2_Pulse_High + Controller_Variables.Controller_Vars.MSens2_Pulse_Low;
    }

    if (Angle1_Max > 1060)
  4e:	4293      	cmp	r3, r2
C:\tien\PROJEKTY\procesory\STM\T108_V100a\sources/sys.c:2049
        Angle1_Max = 1060;
  50:	bf88      	it	hi
  52:	800a      	strhhi	r2, [r1, #0]
C:\tien\PROJEKTY\procesory\STM\T108_V100a\sources/sys.c:2051

    if (Angle2_Max > 1060)
  54:	491d      	ldr	r1, [pc, #116]	(cc <AS5040_Angle_Handling+0xcc>)
  56:	f240 4224 	movw	r2, #1060	; 0x424
  5a:	880b      	ldrh	r3, [r1, #0]
  5c:	4293      	cmp	r3, r2
C:\tien\PROJEKTY\procesory\STM\T108_V100a\sources/sys.c:2052
        Angle2_Max = 1060;
  5e:	bf88      	it	hi
  60:	800a      	strhhi	r2, [r1, #0]
C:\tien\PROJEKTY\procesory\STM\T108_V100a\sources/sys.c:2054

    Controller_Variables.Controller_Vars.MSens1_Angle = Controller_Variables.Controller_Vars.MSens1_Pulse_High;
  62:	4918      	ldr	r1, [pc, #96]	(c4 <AS5040_Angle_Handling+0xc4>)
C:\tien\PROJEKTY\procesory\STM\T108_V100a\sources/sys.c:2057
    Controller_Variables.Controller_Vars.MSens2_Angle = Controller_Variables.Controller_Vars.MSens2_Pulse_High;

    Controller_Variables.Controller_Vars.Deg_Angle1_Op = (uint16_t)((Controlling_Variables.Ctrl_Vars.Angle1_Op*3600)/Angle1_Max);
  64:	f44f 6261 	mov.w	r2, #3600	; 0xe10
C:\tien\PROJEKTY\procesory\STM\T108_V100a\sources/sys.c:2054
        Angle1_Max = 1060;

    if (Angle2_Max > 1060)
        Angle2_Max = 1060;

    Controller_Variables.Controller_Vars.MSens1_Angle = Controller_Variables.Controller_Vars.MSens1_Pulse_High;
  68:	8d0b      	ldrh	r3, [r1, #40]
  6a:	860b      	strh	r3, [r1, #48]
C:\tien\PROJEKTY\procesory\STM\T108_V100a\sources/sys.c:2055
    Controller_Variables.Controller_Vars.MSens2_Angle = Controller_Variables.Controller_Vars.MSens2_Pulse_High;
  6c:	8d8b      	ldrh	r3, [r1, #44]
  6e:	864b      	strh	r3, [r1, #50]
C:\tien\PROJEKTY\procesory\STM\T108_V100a\sources/sys.c:2057

    Controller_Variables.Controller_Vars.Deg_Angle1_Op = (uint16_t)((Controlling_Variables.Ctrl_Vars.Angle1_Op*3600)/Angle1_Max);
  70:	4b15      	ldr	r3, [pc, #84]	(c8 <AS5040_Angle_Handling+0xc8>)
  72:	881d      	ldrh	r5, [r3, #0]
  74:	8e43      	ldrh	r3, [r0, #50]
  76:	4353      	muls	r3, r2
  78:	fb93 f3f5 	sdiv	r3, r3, r5
  7c:	87cb      	strh	r3, [r1, #62]
C:\tien\PROJEKTY\procesory\STM\T108_V100a\sources/sys.c:2058
    Controller_Variables.Controller_Vars.Deg_Angle1_Cl = (uint16_t)((Controlling_Variables.Ctrl_Vars.Angle1_Cl*3600)/Angle1_Max);
  7e:	8e03      	ldrh	r3, [r0, #48]
  80:	4353      	muls	r3, r2
  82:	fb93 f3f5 	sdiv	r3, r3, r5
  86:	878b      	strh	r3, [r1, #60]
C:\tien\PROJEKTY\procesory\STM\T108_V100a\sources/sys.c:2060

    Controller_Variables.Controller_Vars.Deg_Angle2_Op = (uint16_t)((Controlling_Variables.Ctrl_Vars.Angle2_Op*3600)/Angle2_Max);
  88:	4b10      	ldr	r3, [pc, #64]	(cc <AS5040_Angle_Handling+0xcc>)
  8a:	881c      	ldrh	r4, [r3, #0]
  8c:	8ec3      	ldrh	r3, [r0, #54]
  8e:	4353      	muls	r3, r2
  90:	fb93 f3f4 	sdiv	r3, r3, r4
  94:	f8a1 3042 	strh.w	r3, [r1, #66]
C:\tien\PROJEKTY\procesory\STM\T108_V100a\sources/sys.c:2061
    Controller_Variables.Controller_Vars.Deg_Angle2_Cl = (uint16_t)((Controlling_Variables.Ctrl_Vars.Angle2_Cl*3600)/Angle2_Max);
  98:	8e83      	ldrh	r3, [r0, #52]
  9a:	4353      	muls	r3, r2
  9c:	fb93 f3f4 	sdiv	r3, r3, r4
  a0:	f8a1 3040 	strh.w	r3, [r1, #64]
C:\tien\PROJEKTY\procesory\STM\T108_V100a\sources/sys.c:2063

    Controller_Variables.Controller_Vars.Deg_MSens1_Angle = (uint16_t)((Controller_Variables.Controller_Vars.MSens1_Angle *3600)/Angle1_Max);
  a4:	8e0b      	ldrh	r3, [r1, #48]
  a6:	4353      	muls	r3, r2
  a8:	fb93 f3f5 	sdiv	r3, r3, r5
  ac:	f8a1 3044 	strh.w	r3, [r1, #68]
C:\tien\PROJEKTY\procesory\STM\T108_V100a\sources/sys.c:2064
    Controller_Variables.Controller_Vars.Deg_MSens2_Angle = (uint16_t)((Controller_Variables.Controller_Vars.MSens2_Angle *3600)/Angle2_Max);
  b0:	8e4b      	ldrh	r3, [r1, #50]
  b2:	435a      	muls	r2, r3
  b4:	fb92 f2f4 	sdiv	r2, r2, r4
  b8:	f8a1 2046 	strh.w	r2, [r1, #70]
C:\tien\PROJEKTY\procesory\STM\T108_V100a\sources/sys.c:2091
//PH_WAIT_OPENING
//PH_WAIT_CLOSING
//WG_OPENING_ALERTS, 

//TEST
}
  bc:	bd30      	pop	{r4, r5, pc}
  be:	46c0      	nop			(mov r8, r8)
	...
Disassembly of section .text.Motor_24VDC_handling:

00000000 <Motor_24VDC_handling>:
Motor_24VDC_handling():
C:\tien\PROJEKTY\procesory\STM\T108_V100a\sources/sys.c:2095

void Motor_24VDC_handling ( void )
{
    if ( Controlling_Variables.Ctrl_Vars.Motor_Type == 1 ) //F24VDC
   0:	4b0a      	ldr	r3, [pc, #40]	(2c <Motor_24VDC_handling+0x2c>)
   2:	f893 102e 	ldrb.w	r1, [r3, #46]
   6:	2901      	cmp	r1, #1
   8:	d10f      	bne.n	2a <Motor_24VDC_handling+0x2a>
C:\tien\PROJEKTY\procesory\STM\T108_V100a\sources/sys.c:2097
    {
        if ( Motors_Enable & MOTOR_1_OPENING )
   a:	4b09      	ldr	r3, [pc, #36]	(30 <Motor_24VDC_handling+0x30>)
   c:	781b      	ldrb	r3, [r3, #0]
   e:	f013 0f01 	tst.w	r3, #1	; 0x1
  12:	d002      	beq.n	1a <Motor_24VDC_handling+0x1a>
C:\tien\PROJEKTY\procesory\STM\T108_V100a\sources/sys.c:2099
        {
            Manual_Values.Values.Mos1_Dir_Manual_Value = FALSE;
  14:	2200      	movs	r2, #0
  16:	4b07      	ldr	r3, [pc, #28]	(34 <Motor_24VDC_handling+0x34>)
  18:	e006      	b.n	28 <Motor_24VDC_handling+0x28>
C:\tien\PROJEKTY\procesory\STM\T108_V100a\sources/sys.c:2101
        }
        else if ( Motors_Enable & MOTOR_1_CLOSING )
  1a:	f013 0210 	ands.w	r2, r3, #16	; 0x10
  1e:	4b05      	ldr	r3, [pc, #20]	(34 <Motor_24VDC_handling+0x34>)
  20:	d001      	beq.n	26 <Motor_24VDC_handling+0x26>
C:\tien\PROJEKTY\procesory\STM\T108_V100a\sources/sys.c:2103
        {
            Manual_Values.Values.Mos1_Dir_Manual_Value = TRUE;
  22:	7319      	strb	r1, [r3, #12]
  24:	e001      	b.n	2a <Motor_24VDC_handling+0x2a>
C:\tien\PROJEKTY\procesory\STM\T108_V100a\sources/sys.c:2107
        }
        else
        {
            Manual_Values.Values.Mos1_Manual_Value = 0;
  26:	811a      	strh	r2, [r3, #8]
C:\tien\PROJEKTY\procesory\STM\T108_V100a\sources/sys.c:2108
            Manual_Values.Values.Mos1_Dir_Manual_Value = FALSE;    
  28:	731a      	strb	r2, [r3, #12]
C:\tien\PROJEKTY\procesory\STM\T108_V100a\sources/sys.c:2114
        }
    }
    //Manual_Values.Values.Mos2_Manua2_Value = 0;


}
  2a:	4770      	bx	lr
	...
Disassembly of section .text.Inputs_On_Off:

00000000 <Inputs_On_Off>:
Inputs_On_Off():
C:\tien\PROJEKTY\procesory\STM\T108_V100a\sources/sys.c:1598
void Inputs_On_Off ( GPIO_TypeDef* GPIOx, 
                     uint16_t GPIO_Pin,
                     uint8_t Type,
                     uint32_t * Source, 
                     uint32_t Marker )
{
   0:	b570      	push	{r4, r5, r6, lr}
   2:	9d04      	ldr	r5, [sp, #16]
   4:	461c      	mov	r4, r3
C:\tien\PROJEKTY\procesory\STM\T108_V100a\sources/sys.c:1599
    if ( Type == 0 )
   6:	b922      	cbnz	r2, 12 <Inputs_On_Off+0x12>
C:\tien\PROJEKTY\procesory\STM\T108_V100a\sources/sys.c:1601
    {
        if ( GPIO_ReadInputDataBit(GPIOx, GPIO_Pin) == 0 )
   8:	f7ff fffe 	bl	0 <GPIO_ReadInputDataBit>
   c:	6823      	ldr	r3, [r4, #0]
   e:	b948      	cbnz	r0, 24 <Inputs_On_Off+0x24>
  10:	e006      	b.n	20 <Inputs_On_Off+0x20>
C:\tien\PROJEKTY\procesory\STM\T108_V100a\sources/sys.c:1606
            *Source |= Marker;
        else
            *Source &= ~Marker;
    }
    else if ( Type == 1 )
  12:	2a01      	cmp	r2, #1
  14:	d109      	bne.n	2a <Inputs_On_Off+0x2a>
C:\tien\PROJEKTY\procesory\STM\T108_V100a\sources/sys.c:1608
    {
        if ( GPIO_ReadInputDataBit(GPIOx, GPIO_Pin) == 1 )
  16:	f7ff fffe 	bl	0 <GPIO_ReadInputDataBit>
  1a:	2801      	cmp	r0, #1
  1c:	6823      	ldr	r3, [r4, #0]
  1e:	d101      	bne.n	24 <GPIO_ReadInputDataBit+0x24>
C:\tien\PROJEKTY\procesory\STM\T108_V100a\sources/sys.c:1609
            *Source |= Marker;
  20:	432b      	orrs	r3, r5
  22:	e001      	b.n	28 <GPIO_ReadInputDataBit+0x28>
C:\tien\PROJEKTY\procesory\STM\T108_V100a\sources/sys.c:1611
        else
            *Source &= ~Marker;        
  24:	ea23 0305 	bic.w	r3, r3, r5
  28:	6023      	str	r3, [r4, #0]
C:\tien\PROJEKTY\procesory\STM\T108_V100a\sources/sys.c:1613
    }
}
  2a:	bd70      	pop	{r4, r5, r6, pc}
Disassembly of section .text.Inputs_Handling:

00000000 <Inputs_Handling>:
Inputs_Handling():
C:\tien\PROJEKTY\procesory\STM\T108_V100a\sources/sys.c:538
* Input          : None
* Output         : None
* Return         : None
*******************************************************************************/
void Inputs_Handling ( void )
{
   0:	e92d 41f3 	stmdb	sp!, {r0, r1, r4, r5, r6, r7, r8, lr}
C:\tien\PROJEKTY\procesory\STM\T108_V100a\sources/sys.c:539
	if ( System_Timer_Check ( &Inputs_Timer.Timer, T_10msec ) == TRUE )
   4:	2101      	movs	r1, #1
   6:	4877      	ldr	r0, [pc, #476]	(1e4 <Inputs_Handling+0x1e4>)
   8:	f7ff fffe 	bl	0 <Inputs_Handling>
   c:	2801      	cmp	r0, #1
   e:	f040 8250 	bne.w	4b2 <Inputs_Handling+0x4b2>
C:\tien\PROJEKTY\procesory\STM\T108_V100a\sources/sys.c:541
	{
        Inputs.Keyboard_State = 0;
  12:	4c75      	ldr	r4, [pc, #468]	(1e8 <Inputs_Handling+0x1e8>)
  14:	2300      	movs	r3, #0
  16:	7063      	strb	r3, [r4, #1]
C:\tien\PROJEKTY\procesory\STM\T108_V100a\sources/sys.c:544
   
//Edge handling
        if ( Service_Variables.Serv_Vars.In11_Fun == 1 )//O/S/C
  18:	4b74      	ldr	r3, [pc, #464]	(1ec <Inputs_Handling+0x1ec>)
  1a:	f893 3064 	ldrb.w	r3, [r3, #100]
  1e:	2b01      	cmp	r3, #1
  20:	d109      	bne.n	36 <Inputs_Handling+0x36>
C:\tien\PROJEKTY\procesory\STM\T108_V100a\sources/sys.c:546
        {
            if ( GPIO_ReadInputDataBit(PORT_IN11, PIN_IN11) == 0 )    
  22:	4873      	ldr	r0, [pc, #460]	(1f0 <Inputs_Handling+0x1f0>)
  24:	f44f 5100 	mov.w	r1, #8192	; 0x2000
  28:	f7ff fffe 	bl	0 <GPIO_ReadInputDataBit>
  2c:	b918      	cbnz	r0, 36 <Inputs_Handling+0x36>
C:\tien\PROJEKTY\procesory\STM\T108_V100a\sources/sys.c:547
                Inputs.Keyboard_State |= OPEN_CLOSE_GATE;
  2e:	7863      	ldrb	r3, [r4, #1]
  30:	f043 0301 	orr.w	r3, r3, #1	; 0x1
  34:	7063      	strb	r3, [r4, #1]
C:\tien\PROJEKTY\procesory\STM\T108_V100a\sources/sys.c:550
        }

        if ( Service_Variables.Serv_Vars.In14_Fun == 1 )//O/S/C
  36:	4b6d      	ldr	r3, [pc, #436]	(1ec <Inputs_Handling+0x1ec>)
  38:	f893 3067 	ldrb.w	r3, [r3, #103]
  3c:	2b01      	cmp	r3, #1
  3e:	d109      	bne.n	54 <Inputs_Handling+0x54>
C:\tien\PROJEKTY\procesory\STM\T108_V100a\sources/sys.c:552
        { 
            if ((Inputs_Level & INPUT14) != 0 )
  40:	4b6c      	ldr	r3, [pc, #432]	(1f4 <Inputs_Handling+0x1f4>)
  42:	68db      	ldr	r3, [r3, #12]
  44:	f413 5f00 	tst.w	r3, #8192	; 0x2000
  48:	d004      	beq.n	54 <Inputs_Handling+0x54>
C:\tien\PROJEKTY\procesory\STM\T108_V100a\sources/sys.c:554
            {
                Inputs.Keyboard_State |= OPEN_CLOSE_GATE1;            
  4a:	4a67      	ldr	r2, [pc, #412]	(1e8 <Inputs_Handling+0x1e8>)
  4c:	7853      	ldrb	r3, [r2, #1]
  4e:	f043 0302 	orr.w	r3, r3, #2	; 0x2
  52:	7053      	strb	r3, [r2, #1]
C:\tien\PROJEKTY\procesory\STM\T108_V100a\sources/sys.c:557
            }
        }   
        if ( Service_Variables.Serv_Vars.In15_Fun == 1 )//O/S/C
  54:	4b65      	ldr	r3, [pc, #404]	(1ec <Inputs_Handling+0x1ec>)
  56:	f893 3068 	ldrb.w	r3, [r3, #104]
  5a:	2b01      	cmp	r3, #1
  5c:	d109      	bne.n	72 <Inputs_Handling+0x72>
C:\tien\PROJEKTY\procesory\STM\T108_V100a\sources/sys.c:559
        { 
            if ((Inputs_Level & INPUT15) != 0 )
  5e:	4b65      	ldr	r3, [pc, #404]	(1f4 <Inputs_Handling+0x1f4>)
  60:	68db      	ldr	r3, [r3, #12]
  62:	f413 4f80 	tst.w	r3, #16384	; 0x4000
  66:	d004      	beq.n	72 <Inputs_Handling+0x72>
C:\tien\PROJEKTY\procesory\STM\T108_V100a\sources/sys.c:561
            {
                Inputs.Keyboard_State |= OPEN_CLOSE_GATE2;            
  68:	4a5f      	ldr	r2, [pc, #380]	(1e8 <Inputs_Handling+0x1e8>)
  6a:	7853      	ldrb	r3, [r2, #1]
  6c:	f043 0304 	orr.w	r3, r3, #4	; 0x4
  70:	7053      	strb	r3, [r2, #1]
C:\tien\PROJEKTY\procesory\STM\T108_V100a\sources/sys.c:564
            }
        }
        if ( Service_Variables.Serv_Vars.In16_Fun == 1 )//O/S/C
  72:	4b5e      	ldr	r3, [pc, #376]	(1ec <Inputs_Handling+0x1ec>)
  74:	f893 3069 	ldrb.w	r3, [r3, #105]
  78:	2b01      	cmp	r3, #1
  7a:	d109      	bne.n	90 <Inputs_Handling+0x90>
C:\tien\PROJEKTY\procesory\STM\T108_V100a\sources/sys.c:566
        { 
            if ((Inputs_Level & INPUT16) != 0 )
  7c:	4b5d      	ldr	r3, [pc, #372]	(1f4 <Inputs_Handling+0x1f4>)
  7e:	68db      	ldr	r3, [r3, #12]
  80:	f413 4f00 	tst.w	r3, #32768	; 0x8000
  84:	d004      	beq.n	90 <Inputs_Handling+0x90>
C:\tien\PROJEKTY\procesory\STM\T108_V100a\sources/sys.c:568
            {
                Inputs.Keyboard_State |= OPEN_CLOSE_GATE3;            
  86:	4a58      	ldr	r2, [pc, #352]	(1e8 <Inputs_Handling+0x1e8>)
  88:	7853      	ldrb	r3, [r2, #1]
  8a:	f043 0308 	orr.w	r3, r3, #8	; 0x8
  8e:	7053      	strb	r3, [r2, #1]
C:\tien\PROJEKTY\procesory\STM\T108_V100a\sources/sys.c:571
            }
        }
        if ( Service_Variables.Serv_Vars.In17_Fun == 1 )//O/S/C
  90:	4b56      	ldr	r3, [pc, #344]	(1ec <Inputs_Handling+0x1ec>)
  92:	f893 306a 	ldrb.w	r3, [r3, #106]
  96:	2b01      	cmp	r3, #1
  98:	d109      	bne.n	ae <Inputs_Handling+0xae>
C:\tien\PROJEKTY\procesory\STM\T108_V100a\sources/sys.c:573
        { 
            if ((Inputs_Level & INPUT17) != 0 )
  9a:	4b56      	ldr	r3, [pc, #344]	(1f4 <Inputs_Handling+0x1f4>)
  9c:	68db      	ldr	r3, [r3, #12]
  9e:	f413 3f80 	tst.w	r3, #65536	; 0x10000
  a2:	d004      	beq.n	ae <Inputs_Handling+0xae>
C:\tien\PROJEKTY\procesory\STM\T108_V100a\sources/sys.c:575
            {
                Inputs.Keyboard_State |= OPEN_CLOSE_GATE4;            
  a4:	4a50      	ldr	r2, [pc, #320]	(1e8 <Inputs_Handling+0x1e8>)
  a6:	7853      	ldrb	r3, [r2, #1]
  a8:	f043 0310 	orr.w	r3, r3, #16	; 0x10
  ac:	7053      	strb	r3, [r2, #1]
C:\tien\PROJEKTY\procesory\STM\T108_V100a\sources/sys.c:578
            }
        }
        if ( Service_Variables.Serv_Vars.In18_Fun == 1 )//O/S/C
  ae:	4b4f      	ldr	r3, [pc, #316]	(1ec <Inputs_Handling+0x1ec>)
  b0:	f893 306b 	ldrb.w	r3, [r3, #107]
  b4:	2b01      	cmp	r3, #1
  b6:	d109      	bne.n	cc <Inputs_Handling+0xcc>
C:\tien\PROJEKTY\procesory\STM\T108_V100a\sources/sys.c:580
        { 
            if ((Inputs_Level & INPUT18) != 0 )
  b8:	4b4e      	ldr	r3, [pc, #312]	(1f4 <Inputs_Handling+0x1f4>)
  ba:	68db      	ldr	r3, [r3, #12]
  bc:	f413 3f00 	tst.w	r3, #131072	; 0x20000
  c0:	d004      	beq.n	cc <Inputs_Handling+0xcc>
C:\tien\PROJEKTY\procesory\STM\T108_V100a\sources/sys.c:582
            {
                Inputs.Keyboard_State |= OPEN_CLOSE_GATE5;            
  c2:	4a49      	ldr	r2, [pc, #292]	(1e8 <Inputs_Handling+0x1e8>)
  c4:	7853      	ldrb	r3, [r2, #1]
  c6:	f043 0320 	orr.w	r3, r3, #32	; 0x20
  ca:	7053      	strb	r3, [r2, #1]
C:\tien\PROJEKTY\procesory\STM\T108_V100a\sources/sys.c:585
            }
        }
        if ( Service_Variables.Serv_Vars.In19_Fun == 1 )//O/S/C
  cc:	4b47      	ldr	r3, [pc, #284]	(1ec <Inputs_Handling+0x1ec>)
  ce:	f893 306c 	ldrb.w	r3, [r3, #108]
  d2:	2b01      	cmp	r3, #1
  d4:	d109      	bne.n	ea <Inputs_Handling+0xea>
C:\tien\PROJEKTY\procesory\STM\T108_V100a\sources/sys.c:587
        { 
            if ((Inputs_Level & INPUT19) != 0 )
  d6:	4b47      	ldr	r3, [pc, #284]	(1f4 <Inputs_Handling+0x1f4>)
  d8:	68db      	ldr	r3, [r3, #12]
  da:	f413 2f80 	tst.w	r3, #262144	; 0x40000
  de:	d004      	beq.n	ea <Inputs_Handling+0xea>
C:\tien\PROJEKTY\procesory\STM\T108_V100a\sources/sys.c:589
            {
                Inputs.Keyboard_State |= OPEN_CLOSE_GATE6;            
  e0:	4a41      	ldr	r2, [pc, #260]	(1e8 <Inputs_Handling+0x1e8>)
  e2:	7853      	ldrb	r3, [r2, #1]
  e4:	f043 0340 	orr.w	r3, r3, #64	; 0x40
  e8:	7053      	strb	r3, [r2, #1]
C:\tien\PROJEKTY\procesory\STM\T108_V100a\sources/sys.c:592
            }
        }
        if ( Service_Variables.Serv_Vars.In20_Fun == 1 )//O/S/C
  ea:	4b40      	ldr	r3, [pc, #256]	(1ec <Inputs_Handling+0x1ec>)
  ec:	f893 306d 	ldrb.w	r3, [r3, #109]
  f0:	2b01      	cmp	r3, #1
  f2:	d10b      	bne.n	10c <Inputs_Handling+0x10c>
C:\tien\PROJEKTY\procesory\STM\T108_V100a\sources/sys.c:594
        { 
            if ((Inputs_Level & INPUT20) != 0 )
  f4:	4b3f      	ldr	r3, [pc, #252]	(1f4 <Inputs_Handling+0x1f4>)
  f6:	68db      	ldr	r3, [r3, #12]
  f8:	f413 2f00 	tst.w	r3, #524288	; 0x80000
  fc:	d006      	beq.n	10c <Inputs_Handling+0x10c>
C:\tien\PROJEKTY\procesory\STM\T108_V100a\sources/sys.c:596
            {
                Inputs.Keyboard_State |= OPEN_CLOSE_GATE7;            
  fe:	4a3a      	ldr	r2, [pc, #232]	(1e8 <Inputs_Handling+0x1e8>)
 100:	7853      	ldrb	r3, [r2, #1]
 102:	ea6f 6343 	mvn.w	r3, r3, lsl #25
 106:	ea6f 6353 	mvn.w	r3, r3, lsr #25
 10a:	7053      	strb	r3, [r2, #1]
C:\tien\PROJEKTY\procesory\STM\T108_V100a\sources/sys.c:600
            }
        }
    
        if ( Inputs.Keyboard_Memory == 0 && Inputs.Keyboard_Flag == 0 )
 10c:	4c36      	ldr	r4, [pc, #216]	(1e8 <Inputs_Handling+0x1e8>)
 10e:	7823      	ldrb	r3, [r4, #0]
 110:	2b00      	cmp	r3, #0
 112:	f040 8082 	bne.w	21a <Inputs_Handling+0x21a>
 116:	78a3      	ldrb	r3, [r4, #2]
 118:	2b00      	cmp	r3, #0
 11a:	d17e      	bne.n	21a <Inputs_Handling+0x21a>
C:\tien\PROJEKTY\procesory\STM\T108_V100a\sources/sys.c:602
        {
            if ( !(GPIO_ReadInputDataBit(PORT_IN11, PIN_IN11)) )
 11c:	4834      	ldr	r0, [pc, #208]	(1f0 <Inputs_Handling+0x1f0>)
 11e:	f44f 5100 	mov.w	r1, #8192	; 0x2000
 122:	f7ff fffe 	bl	0 <GPIO_ReadInputDataBit>
 126:	b940      	cbnz	r0, 13a <Inputs_Handling+0x13a>
C:\tien\PROJEKTY\procesory\STM\T108_V100a\sources/sys.c:604
            {
                if ( Service_Variables.Serv_Vars.In11_Fun == 1 )//O/S/C
 128:	4b30      	ldr	r3, [pc, #192]	(1ec <Inputs_Handling+0x1ec>)
 12a:	f893 2064 	ldrb.w	r2, [r3, #100]
 12e:	2a01      	cmp	r2, #1
 130:	d173      	bne.n	21a <Inputs_Handling+0x21a>
C:\tien\PROJEKTY\procesory\STM\T108_V100a\sources/sys.c:606
                {
                    Inputs.Keyboard_Memory |= OPEN_CLOSE_GATE;
 132:	7823      	ldrb	r3, [r4, #0]
 134:	f043 0301 	orr.w	r3, r3, #1	; 0x1
 138:	e00c      	b.n	154 <Inputs_Handling+0x154>
C:\tien\PROJEKTY\procesory\STM\T108_V100a\sources/sys.c:610
                    Inputs.Keyboard_Flag = 1;
                }
            }            
            else if ( (Inputs_Level & INPUT14 ) != 0 )
 13a:	4a2e      	ldr	r2, [pc, #184]	(1f4 <Inputs_Handling+0x1f4>)
 13c:	68d3      	ldr	r3, [r2, #12]
 13e:	f413 5f00 	tst.w	r3, #8192	; 0x2000
 142:	d00a      	beq.n	15a <Inputs_Handling+0x15a>
C:\tien\PROJEKTY\procesory\STM\T108_V100a\sources/sys.c:612
            {
                if ( Service_Variables.Serv_Vars.In14_Fun == 1 )//O/S/C
 144:	4b29      	ldr	r3, [pc, #164]	(1ec <Inputs_Handling+0x1ec>)
 146:	f893 2067 	ldrb.w	r2, [r3, #103]
 14a:	2a01      	cmp	r2, #1
 14c:	d165      	bne.n	21a <Inputs_Handling+0x21a>
C:\tien\PROJEKTY\procesory\STM\T108_V100a\sources/sys.c:614
                {
                    Inputs.Keyboard_Memory |= OPEN_CLOSE_GATE1;
 14e:	7823      	ldrb	r3, [r4, #0]
 150:	f043 0302 	orr.w	r3, r3, #2	; 0x2
 154:	7023      	strb	r3, [r4, #0]
C:\tien\PROJEKTY\procesory\STM\T108_V100a\sources/sys.c:615
                    Inputs.Keyboard_Flag = 1;
 156:	70a2      	strb	r2, [r4, #2]
 158:	e05f      	b.n	21a <Inputs_Handling+0x21a>
C:\tien\PROJEKTY\procesory\STM\T108_V100a\sources/sys.c:618
                }                
            }
            else if ( (Inputs_Level & INPUT15 ) != 0 )
 15a:	68d3      	ldr	r3, [r2, #12]
 15c:	f413 4f80 	tst.w	r3, #16384	; 0x4000
 160:	d008      	beq.n	174 <Inputs_Handling+0x174>
C:\tien\PROJEKTY\procesory\STM\T108_V100a\sources/sys.c:620
            {
                if ( Service_Variables.Serv_Vars.In15_Fun == 1 )//O/S/C
 162:	4b22      	ldr	r3, [pc, #136]	(1ec <Inputs_Handling+0x1ec>)
 164:	f893 2068 	ldrb.w	r2, [r3, #104]
 168:	2a01      	cmp	r2, #1
 16a:	d156      	bne.n	21a <Inputs_Handling+0x21a>
C:\tien\PROJEKTY\procesory\STM\T108_V100a\sources/sys.c:622
                {
                    Inputs.Keyboard_Memory |= OPEN_CLOSE_GATE2;
 16c:	7823      	ldrb	r3, [r4, #0]
 16e:	f043 0304 	orr.w	r3, r3, #4	; 0x4
 172:	e7ef      	b.n	154 <Inputs_Handling+0x154>
C:\tien\PROJEKTY\procesory\STM\T108_V100a\sources/sys.c:626
                    Inputs.Keyboard_Flag = 1;
                }                
            }
            else if ( (Inputs_Level & INPUT16 ) != 0 )
 174:	68d3      	ldr	r3, [r2, #12]
 176:	f413 4f00 	tst.w	r3, #32768	; 0x8000
 17a:	d008      	beq.n	18e <Inputs_Handling+0x18e>
C:\tien\PROJEKTY\procesory\STM\T108_V100a\sources/sys.c:628
            {
                if ( Service_Variables.Serv_Vars.In16_Fun == 1 )//O/S/C
 17c:	4b1b      	ldr	r3, [pc, #108]	(1ec <Inputs_Handling+0x1ec>)
 17e:	f893 2069 	ldrb.w	r2, [r3, #105]
 182:	2a01      	cmp	r2, #1
 184:	d149      	bne.n	21a <Inputs_Handling+0x21a>
C:\tien\PROJEKTY\procesory\STM\T108_V100a\sources/sys.c:630
                {
                    Inputs.Keyboard_Memory |= OPEN_CLOSE_GATE3;
 186:	7823      	ldrb	r3, [r4, #0]
 188:	f043 0308 	orr.w	r3, r3, #8	; 0x8
 18c:	e7e2      	b.n	154 <Inputs_Handling+0x154>
C:\tien\PROJEKTY\procesory\STM\T108_V100a\sources/sys.c:634
                    Inputs.Keyboard_Flag = 1;
                }                
            }
            else if ( (Inputs_Level & INPUT17 ) != 0 )
 18e:	68d3      	ldr	r3, [r2, #12]
 190:	f413 3f80 	tst.w	r3, #65536	; 0x10000
 194:	d008      	beq.n	1a8 <Inputs_Handling+0x1a8>
C:\tien\PROJEKTY\procesory\STM\T108_V100a\sources/sys.c:636
            {
                if ( Service_Variables.Serv_Vars.In17_Fun == 1 )//O/S/C
 196:	4b15      	ldr	r3, [pc, #84]	(1ec <Inputs_Handling+0x1ec>)
 198:	f893 206a 	ldrb.w	r2, [r3, #106]
 19c:	2a01      	cmp	r2, #1
 19e:	d13c      	bne.n	21a <Inputs_Handling+0x21a>
C:\tien\PROJEKTY\procesory\STM\T108_V100a\sources/sys.c:638
                {
                    Inputs.Keyboard_Memory |= OPEN_CLOSE_GATE4;
 1a0:	7823      	ldrb	r3, [r4, #0]
 1a2:	f043 0310 	orr.w	r3, r3, #16	; 0x10
 1a6:	e7d5      	b.n	154 <Inputs_Handling+0x154>
C:\tien\PROJEKTY\procesory\STM\T108_V100a\sources/sys.c:642
                    Inputs.Keyboard_Flag = 1;
                }                
            }
            else if ( (Inputs_Level & INPUT18 ) != 0 )
 1a8:	68d3      	ldr	r3, [r2, #12]
 1aa:	f413 3f00 	tst.w	r3, #131072	; 0x20000
 1ae:	d008      	beq.n	1c2 <Inputs_Handling+0x1c2>
C:\tien\PROJEKTY\procesory\STM\T108_V100a\sources/sys.c:644
            {
                if ( Service_Variables.Serv_Vars.In18_Fun == 1 )//O/S/C
 1b0:	4b0e      	ldr	r3, [pc, #56]	(1ec <Inputs_Handling+0x1ec>)
 1b2:	f893 206b 	ldrb.w	r2, [r3, #107]
 1b6:	2a01      	cmp	r2, #1
 1b8:	d12f      	bne.n	21a <Inputs_Handling+0x21a>
C:\tien\PROJEKTY\procesory\STM\T108_V100a\sources/sys.c:646
                {
                    Inputs.Keyboard_Memory |= OPEN_CLOSE_GATE5;
 1ba:	7823      	ldrb	r3, [r4, #0]
 1bc:	f043 0320 	orr.w	r3, r3, #32	; 0x20
 1c0:	e7c8      	b.n	154 <Inputs_Handling+0x154>
C:\tien\PROJEKTY\procesory\STM\T108_V100a\sources/sys.c:650
                    Inputs.Keyboard_Flag = 1;
                }                
            }
            else if ( (Inputs_Level & INPUT19 ) != 0 )
 1c2:	68d3      	ldr	r3, [r2, #12]
 1c4:	f413 2f80 	tst.w	r3, #262144	; 0x40000
 1c8:	d016      	beq.n	1f8 <Inputs_Handling+0x1f8>
C:\tien\PROJEKTY\procesory\STM\T108_V100a\sources/sys.c:652
            {
                if ( Service_Variables.Serv_Vars.In19_Fun == 1 )//O/S/C
 1ca:	4b08      	ldr	r3, [pc, #32]	(1ec <Inputs_Handling+0x1ec>)
 1cc:	f893 306c 	ldrb.w	r3, [r3, #108]
 1d0:	2b01      	cmp	r3, #1
 1d2:	d122      	bne.n	21a <Inputs_Handling+0x21a>
C:\tien\PROJEKTY\procesory\STM\T108_V100a\sources/sys.c:654
                {
                    Inputs.Keyboard_Memory |= OPEN_CLOSE_GATE6;
 1d4:	4b04      	ldr	r3, [pc, #16]	(1e8 <Inputs_Handling+0x1e8>)
 1d6:	781a      	ldrb	r2, [r3, #0]
 1d8:	f042 0240 	orr.w	r2, r2, #64	; 0x40
 1dc:	701a      	strb	r2, [r3, #0]
C:\tien\PROJEKTY\procesory\STM\T108_V100a\sources/sys.c:655
                    Inputs.Keyboard_Flag = 1;
 1de:	2201      	movs	r2, #1
 1e0:	709a      	strb	r2, [r3, #2]
 1e2:	e01a      	b.n	21a <Inputs_Handling+0x21a>
	...
 1f0:	40010800 	.word	0x40010800
 1f4:	00000000 	.word	0x00000000
C:\tien\PROJEKTY\procesory\STM\T108_V100a\sources/sys.c:658
                }                
            }
            else if ( (Inputs_Level & INPUT20 ) != 0 )
 1f8:	68d3      	ldr	r3, [r2, #12]
 1fa:	f413 2f00 	tst.w	r3, #524288	; 0x80000
 1fe:	d00c      	beq.n	21a <Inputs_Handling+0x21a>
C:\tien\PROJEKTY\procesory\STM\T108_V100a\sources/sys.c:660
            {
                if ( Service_Variables.Serv_Vars.In20_Fun == 1 )//O/S/C
 200:	4ba0      	ldr	r3, [pc, #640]	(484 <Inputs_Handling+0x484>)
 202:	f893 106d 	ldrb.w	r1, [r3, #109]
 206:	2901      	cmp	r1, #1
 208:	d107      	bne.n	21a <Inputs_Handling+0x21a>
C:\tien\PROJEKTY\procesory\STM\T108_V100a\sources/sys.c:662
                {
                    Inputs.Keyboard_Memory |= OPEN_CLOSE_GATE7;
 20a:	4a9f      	ldr	r2, [pc, #636]	(488 <Inputs_Handling+0x488>)
 20c:	7813      	ldrb	r3, [r2, #0]
C:\tien\PROJEKTY\procesory\STM\T108_V100a\sources/sys.c:663
                    Inputs.Keyboard_Flag = 1;
 20e:	7091      	strb	r1, [r2, #2]
C:\tien\PROJEKTY\procesory\STM\T108_V100a\sources/sys.c:662
            }
            else if ( (Inputs_Level & INPUT20 ) != 0 )
            {
                if ( Service_Variables.Serv_Vars.In20_Fun == 1 )//O/S/C
                {
                    Inputs.Keyboard_Memory |= OPEN_CLOSE_GATE7;
 210:	ea6f 6343 	mvn.w	r3, r3, lsl #25
 214:	ea6f 6353 	mvn.w	r3, r3, lsr #25
 218:	7013      	strb	r3, [r2, #0]
C:\tien\PROJEKTY\procesory\STM\T108_V100a\sources/sys.c:669
                }                
            }
        }
 
//level handling
        Inputs_On_Off ( PORT_IN1, PIN_IN1, Service_Variables.Serv_Vars.In1_Type, &Inputs_Level, INPUT1 );
 21a:	4c9a      	ldr	r4, [pc, #616]	(484 <Inputs_Handling+0x484>)
 21c:	4f9b      	ldr	r7, [pc, #620]	(48c <Inputs_Handling+0x48c>)
 21e:	f894 2054 	ldrb.w	r2, [r4, #84]
 222:	f04f 0801 	mov.w	r8, #1	; 0x1
 226:	489a      	ldr	r0, [pc, #616]	(490 <Inputs_Handling+0x490>)
 228:	f44f 4180 	mov.w	r1, #16384	; 0x4000
 22c:	f107 030c 	add.w	r3, r7, #12	; 0xc
C:\tien\PROJEKTY\procesory\STM\T108_V100a\sources/sys.c:670
        Inputs_On_Off ( PORT_IN2, PIN_IN2, Service_Variables.Serv_Vars.In2_Type, &Inputs_Level, INPUT2 );
 230:	2602      	movs	r6, #2
C:\tien\PROJEKTY\procesory\STM\T108_V100a\sources/sys.c:669
                }                
            }
        }
 
//level handling
        Inputs_On_Off ( PORT_IN1, PIN_IN1, Service_Variables.Serv_Vars.In1_Type, &Inputs_Level, INPUT1 );
 232:	f8cd 8000 	str.w	r8, [sp]
 236:	f7ff fffe 	bl	0 <Inputs_Handling>
C:\tien\PROJEKTY\procesory\STM\T108_V100a\sources/sys.c:670
        Inputs_On_Off ( PORT_IN2, PIN_IN2, Service_Variables.Serv_Vars.In2_Type, &Inputs_Level, INPUT2 );
 23a:	f894 2055 	ldrb.w	r2, [r4, #85]
 23e:	4895      	ldr	r0, [pc, #596]	(494 <Inputs_Handling+0x494>)
 240:	2140      	movs	r1, #64
 242:	f107 030c 	add.w	r3, r7, #12	; 0xc
C:\tien\PROJEKTY\procesory\STM\T108_V100a\sources/sys.c:671
        Inputs_On_Off ( PORT_IN3, PIN_IN3, Service_Variables.Serv_Vars.In3_Type, &Inputs_Level, INPUT3 );
 246:	2504      	movs	r5, #4
C:\tien\PROJEKTY\procesory\STM\T108_V100a\sources/sys.c:670
            }
        }
 
//level handling
        Inputs_On_Off ( PORT_IN1, PIN_IN1, Service_Variables.Serv_Vars.In1_Type, &Inputs_Level, INPUT1 );
        Inputs_On_Off ( PORT_IN2, PIN_IN2, Service_Variables.Serv_Vars.In2_Type, &Inputs_Level, INPUT2 );
 248:	9600      	str	r6, [sp, #0]
 24a:	f7ff fffe 	bl	0 <Inputs_Handling>
C:\tien\PROJEKTY\procesory\STM\T108_V100a\sources/sys.c:671
        Inputs_On_Off ( PORT_IN3, PIN_IN3, Service_Variables.Serv_Vars.In3_Type, &Inputs_Level, INPUT3 );
 24e:	f894 2056 	ldrb.w	r2, [r4, #86]
 252:	4890      	ldr	r0, [pc, #576]	(494 <Inputs_Handling+0x494>)
 254:	2108      	movs	r1, #8
 256:	f107 030c 	add.w	r3, r7, #12	; 0xc
 25a:	9500      	str	r5, [sp, #0]
 25c:	f7ff fffe 	bl	0 <Inputs_Handling>
C:\tien\PROJEKTY\procesory\STM\T108_V100a\sources/sys.c:672
        Inputs_On_Off ( PORT_IN4, PIN_IN4, Service_Variables.Serv_Vars.In4_Type, &Inputs_Level, INPUT4 );
 260:	2308      	movs	r3, #8
 262:	f894 2057 	ldrb.w	r2, [r4, #87]
 266:	4629      	mov	r1, r5
 268:	9300      	str	r3, [sp, #0]
 26a:	488a      	ldr	r0, [pc, #552]	(494 <Inputs_Handling+0x494>)
 26c:	f107 030c 	add.w	r3, r7, #12	; 0xc
 270:	f7ff fffe 	bl	0 <Inputs_Handling>
C:\tien\PROJEKTY\procesory\STM\T108_V100a\sources/sys.c:673
        Inputs_On_Off ( PORT_IN5, PIN_IN5, Service_Variables.Serv_Vars.In5_Type, &Inputs_Level, INPUT5 );
 274:	350c      	adds	r5, #12
 276:	f894 2059 	ldrb.w	r2, [r4, #89]
 27a:	4886      	ldr	r0, [pc, #536]	(494 <Inputs_Handling+0x494>)
 27c:	4631      	mov	r1, r6
 27e:	f107 030c 	add.w	r3, r7, #12	; 0xc
 282:	9500      	str	r5, [sp, #0]
 284:	f7ff fffe 	bl	0 <Inputs_Handling>
C:\tien\PROJEKTY\procesory\STM\T108_V100a\sources/sys.c:674
        Inputs_On_Off ( PORT_IN6, PIN_IN6, Service_Variables.Serv_Vars.In6_Type, &Inputs_Level, INPUT6 );
 288:	2320      	movs	r3, #32
 28a:	f894 205b 	ldrb.w	r2, [r4, #91]
 28e:	4881      	ldr	r0, [pc, #516]	(494 <Inputs_Handling+0x494>)
 290:	9300      	str	r3, [sp, #0]
 292:	4641      	mov	r1, r8
 294:	f107 030c 	add.w	r3, r7, #12	; 0xc
 298:	f7ff fffe 	bl	0 <Inputs_Handling>
C:\tien\PROJEKTY\procesory\STM\T108_V100a\sources/sys.c:675
        Inputs_On_Off ( PORT_IN11, PIN_IN11, Service_Variables.Serv_Vars.In11_Type, &Inputs_Level, INPUT11 );
 29c:	f44f 6380 	mov.w	r3, #1024	; 0x400
 2a0:	f894 206e 	ldrb.w	r2, [r4, #110]
 2a4:	487a      	ldr	r0, [pc, #488]	(490 <Inputs_Handling+0x490>)
 2a6:	9300      	str	r3, [sp, #0]
 2a8:	f44f 5100 	mov.w	r1, #8192	; 0x2000
 2ac:	f107 030c 	add.w	r3, r7, #12	; 0xc
 2b0:	f7ff fffe 	bl	0 <Inputs_Handling>
C:\tien\PROJEKTY\procesory\STM\T108_V100a\sources/sys.c:676
        Inputs_On_Off ( PORT_IN12, PIN_IN12, Service_Variables.Serv_Vars.In12_Type, &Inputs_Level, INPUT12 );
 2b4:	f44f 6300 	mov.w	r3, #2048	; 0x800
 2b8:	f894 206f 	ldrb.w	r2, [r4, #111]
 2bc:	4629      	mov	r1, r5
 2be:	9300      	str	r3, [sp, #0]
C:\tien\PROJEKTY\procesory\STM\T108_V100a\sources/sys.c:678
 
        Analog_Inputs_Fun( Controller_Variables.Controller_Vars.AD_14, Service_Variables.Serv_Vars.In7_Type, Service_Variables.Serv_Vars.In7_Fun, &Inputs_Level, INPUT7);
 2c0:	4d75      	ldr	r5, [pc, #468]	(498 <Inputs_Handling+0x498>)
C:\tien\PROJEKTY\procesory\STM\T108_V100a\sources/sys.c:676
        Inputs_On_Off ( PORT_IN3, PIN_IN3, Service_Variables.Serv_Vars.In3_Type, &Inputs_Level, INPUT3 );
        Inputs_On_Off ( PORT_IN4, PIN_IN4, Service_Variables.Serv_Vars.In4_Type, &Inputs_Level, INPUT4 );
        Inputs_On_Off ( PORT_IN5, PIN_IN5, Service_Variables.Serv_Vars.In5_Type, &Inputs_Level, INPUT5 );
        Inputs_On_Off ( PORT_IN6, PIN_IN6, Service_Variables.Serv_Vars.In6_Type, &Inputs_Level, INPUT6 );
        Inputs_On_Off ( PORT_IN11, PIN_IN11, Service_Variables.Serv_Vars.In11_Type, &Inputs_Level, INPUT11 );
        Inputs_On_Off ( PORT_IN12, PIN_IN12, Service_Variables.Serv_Vars.In12_Type, &Inputs_Level, INPUT12 );
 2c2:	4876      	ldr	r0, [pc, #472]	(49c <Inputs_Handling+0x49c>)
 2c4:	f107 030c 	add.w	r3, r7, #12	; 0xc
 2c8:	f7ff fffe 	bl	0 <Inputs_Handling>
C:\tien\PROJEKTY\procesory\STM\T108_V100a\sources/sys.c:678
 
        Analog_Inputs_Fun( Controller_Variables.Controller_Vars.AD_14, Service_Variables.Serv_Vars.In7_Type, Service_Variables.Serv_Vars.In7_Fun, &Inputs_Level, INPUT7);
 2cc:	2340      	movs	r3, #64
 2ce:	8b28      	ldrh	r0, [r5, #24]
 2d0:	f894 1060 	ldrb.w	r1, [r4, #96]
 2d4:	f894 205c 	ldrb.w	r2, [r4, #92]
 2d8:	9300      	str	r3, [sp, #0]
 2da:	f107 030c 	add.w	r3, r7, #12	; 0xc
 2de:	f7ff fffe 	bl	0 <Inputs_Handling>
C:\tien\PROJEKTY\procesory\STM\T108_V100a\sources/sys.c:679
        Analog_Inputs_Fun( Controller_Variables.Controller_Vars.AD_15, Service_Variables.Serv_Vars.In8_Type, Service_Variables.Serv_Vars.In8_Fun, &Inputs_Level, INPUT8);
 2e2:	2380      	movs	r3, #128
 2e4:	8b68      	ldrh	r0, [r5, #26]
 2e6:	f894 1061 	ldrb.w	r1, [r4, #97]
 2ea:	f894 205d 	ldrb.w	r2, [r4, #93]
 2ee:	9300      	str	r3, [sp, #0]
 2f0:	f107 030c 	add.w	r3, r7, #12	; 0xc
 2f4:	f7ff fffe 	bl	0 <Inputs_Handling>
C:\tien\PROJEKTY\procesory\STM\T108_V100a\sources/sys.c:680
        Analog_Inputs_Fun( Controller_Variables.Controller_Vars.AD_8,  Service_Variables.Serv_Vars.In9_Type, Service_Variables.Serv_Vars.In9_Fun, &Inputs_Level, INPUT9);
 2f8:	f44f 7380 	mov.w	r3, #256	; 0x100
 2fc:	8aa8      	ldrh	r0, [r5, #20]
 2fe:	f894 1062 	ldrb.w	r1, [r4, #98]
 302:	f894 205e 	ldrb.w	r2, [r4, #94]
 306:	9300      	str	r3, [sp, #0]
 308:	f107 030c 	add.w	r3, r7, #12	; 0xc
 30c:	f7ff fffe 	bl	0 <Inputs_Handling>
C:\tien\PROJEKTY\procesory\STM\T108_V100a\sources/sys.c:681
        Analog_Inputs_Fun( Controller_Variables.Controller_Vars.AD_9,  Service_Variables.Serv_Vars.In10_Type, Service_Variables.Serv_Vars.In10_Fun, &Inputs_Level, INPUT10);
 310:	f44f 7300 	mov.w	r3, #512	; 0x200
 314:	8ae8      	ldrh	r0, [r5, #22]
 316:	f894 1063 	ldrb.w	r1, [r4, #99]
 31a:	f894 205f 	ldrb.w	r2, [r4, #95]
 31e:	9300      	str	r3, [sp, #0]
 320:	f107 030c 	add.w	r3, r7, #12	; 0xc
 324:	f7ff fffe 	bl	0 <Inputs_Handling>
C:\tien\PROJEKTY\procesory\STM\T108_V100a\sources/sys.c:687
    
    
//Analog inputs handling    

//Level handling for test function
        if ( GPIO_ReadInputDataBit(PORT_IN1, PIN_IN1) == 0 )
 328:	4859      	ldr	r0, [pc, #356]	(490 <Inputs_Handling+0x490>)
 32a:	f44f 4180 	mov.w	r1, #16384	; 0x4000
 32e:	f7ff fffe 	bl	0 <GPIO_ReadInputDataBit>
 332:	b918      	cbnz	r0, 33c <Inputs_Handling+0x33c>
C:\tien\PROJEKTY\procesory\STM\T108_V100a\sources/sys.c:688
            Inputs_Level_Test |= INPUT1;
 334:	693b      	ldr	r3, [r7, #16]
 336:	ea43 0308 	orr.w	r3, r3, r8
 33a:	e002      	b.n	342 <Inputs_Handling+0x342>
C:\tien\PROJEKTY\procesory\STM\T108_V100a\sources/sys.c:690
        else
            Inputs_Level_Test &= ~INPUT1;
 33c:	693b      	ldr	r3, [r7, #16]
 33e:	f023 0301 	bic.w	r3, r3, #1	; 0x1
 342:	613b      	str	r3, [r7, #16]
C:\tien\PROJEKTY\procesory\STM\T108_V100a\sources/sys.c:692

        if ( GPIO_ReadInputDataBit(PORT_IN2, PIN_IN2) == 0 )
 344:	4853      	ldr	r0, [pc, #332]	(494 <Inputs_Handling+0x494>)
 346:	2140      	movs	r1, #64
 348:	f7ff fffe 	bl	0 <GPIO_ReadInputDataBit>
 34c:	4a4f      	ldr	r2, [pc, #316]	(48c <Inputs_Handling+0x48c>)
 34e:	b918      	cbnz	r0, 358 <Inputs_Handling+0x358>
C:\tien\PROJEKTY\procesory\STM\T108_V100a\sources/sys.c:693
            Inputs_Level_Test |= INPUT2;
 350:	6913      	ldr	r3, [r2, #16]
 352:	f043 0302 	orr.w	r3, r3, #2	; 0x2
 356:	e002      	b.n	35e <Inputs_Handling+0x35e>
C:\tien\PROJEKTY\procesory\STM\T108_V100a\sources/sys.c:695
        else
            Inputs_Level_Test &= ~INPUT2;
 358:	6913      	ldr	r3, [r2, #16]
 35a:	f023 0302 	bic.w	r3, r3, #2	; 0x2
 35e:	6113      	str	r3, [r2, #16]
C:\tien\PROJEKTY\procesory\STM\T108_V100a\sources/sys.c:697

        if ( GPIO_ReadInputDataBit(PORT_IN3, PIN_IN3) == 0 )
 360:	484c      	ldr	r0, [pc, #304]	(494 <Inputs_Handling+0x494>)
 362:	2108      	movs	r1, #8
 364:	f7ff fffe 	bl	0 <GPIO_ReadInputDataBit>
 368:	4a48      	ldr	r2, [pc, #288]	(48c <Inputs_Handling+0x48c>)
 36a:	b918      	cbnz	r0, 374 <Inputs_Handling+0x374>
C:\tien\PROJEKTY\procesory\STM\T108_V100a\sources/sys.c:698
            Inputs_Level_Test |= INPUT3;
 36c:	6913      	ldr	r3, [r2, #16]
 36e:	f043 0304 	orr.w	r3, r3, #4	; 0x4
 372:	e002      	b.n	37a <Inputs_Handling+0x37a>
C:\tien\PROJEKTY\procesory\STM\T108_V100a\sources/sys.c:700
        else
            Inputs_Level_Test &= ~INPUT3;
 374:	6913      	ldr	r3, [r2, #16]
 376:	f023 0304 	bic.w	r3, r3, #4	; 0x4
 37a:	6113      	str	r3, [r2, #16]
C:\tien\PROJEKTY\procesory\STM\T108_V100a\sources/sys.c:702
     
        if ( GPIO_ReadInputDataBit(PORT_IN4, PIN_IN4) == 0 )
 37c:	4845      	ldr	r0, [pc, #276]	(494 <Inputs_Handling+0x494>)
 37e:	2104      	movs	r1, #4
 380:	f7ff fffe 	bl	0 <GPIO_ReadInputDataBit>
 384:	4a41      	ldr	r2, [pc, #260]	(48c <Inputs_Handling+0x48c>)
 386:	b918      	cbnz	r0, 390 <Inputs_Handling+0x390>
C:\tien\PROJEKTY\procesory\STM\T108_V100a\sources/sys.c:703
            Inputs_Level_Test |= INPUT4;
 388:	6913      	ldr	r3, [r2, #16]
 38a:	f043 0308 	orr.w	r3, r3, #8	; 0x8
 38e:	e002      	b.n	396 <Inputs_Handling+0x396>
C:\tien\PROJEKTY\procesory\STM\T108_V100a\sources/sys.c:705
        else
            Inputs_Level_Test &= ~INPUT4;
 390:	6913      	ldr	r3, [r2, #16]
 392:	f023 0308 	bic.w	r3, r3, #8	; 0x8
 396:	6113      	str	r3, [r2, #16]
C:\tien\PROJEKTY\procesory\STM\T108_V100a\sources/sys.c:707

        if ( GPIO_ReadInputDataBit(PORT_IN5, PIN_IN5) == 0 )
 398:	483e      	ldr	r0, [pc, #248]	(494 <Inputs_Handling+0x494>)
 39a:	2102      	movs	r1, #2
 39c:	f7ff fffe 	bl	0 <GPIO_ReadInputDataBit>
 3a0:	4a3a      	ldr	r2, [pc, #232]	(48c <Inputs_Handling+0x48c>)
 3a2:	b918      	cbnz	r0, 3ac <Inputs_Handling+0x3ac>
C:\tien\PROJEKTY\procesory\STM\T108_V100a\sources/sys.c:708
            Inputs_Level_Test |= INPUT5;
 3a4:	6913      	ldr	r3, [r2, #16]
 3a6:	f043 0310 	orr.w	r3, r3, #16	; 0x10
 3aa:	e002      	b.n	3b2 <Inputs_Handling+0x3b2>
C:\tien\PROJEKTY\procesory\STM\T108_V100a\sources/sys.c:710
        else
            Inputs_Level_Test &= ~INPUT5;
 3ac:	6913      	ldr	r3, [r2, #16]
 3ae:	f023 0310 	bic.w	r3, r3, #16	; 0x10
 3b2:	6113      	str	r3, [r2, #16]
C:\tien\PROJEKTY\procesory\STM\T108_V100a\sources/sys.c:712
        
        if ( GPIO_ReadInputDataBit(PORT_IN6, PIN_IN6) == 0 )
 3b4:	4837      	ldr	r0, [pc, #220]	(494 <Inputs_Handling+0x494>)
 3b6:	2101      	movs	r1, #1
 3b8:	f7ff fffe 	bl	0 <GPIO_ReadInputDataBit>
 3bc:	4a33      	ldr	r2, [pc, #204]	(48c <Inputs_Handling+0x48c>)
 3be:	b918      	cbnz	r0, 3c8 <Inputs_Handling+0x3c8>
C:\tien\PROJEKTY\procesory\STM\T108_V100a\sources/sys.c:713
            Inputs_Level_Test |= INPUT6;
 3c0:	6913      	ldr	r3, [r2, #16]
 3c2:	f043 0320 	orr.w	r3, r3, #32	; 0x20
 3c6:	e002      	b.n	3ce <Inputs_Handling+0x3ce>
C:\tien\PROJEKTY\procesory\STM\T108_V100a\sources/sys.c:715
        else
            Inputs_Level_Test &= ~INPUT6;
 3c8:	6913      	ldr	r3, [r2, #16]
 3ca:	f023 0320 	bic.w	r3, r3, #32	; 0x20
 3ce:	6113      	str	r3, [r2, #16]
C:\tien\PROJEKTY\procesory\STM\T108_V100a\sources/sys.c:717

                if ( GPIO_ReadInputDataBit(PORT_IN7, PIN_IN7) == 0 )
 3d0:	4830      	ldr	r0, [pc, #192]	(494 <Inputs_Handling+0x494>)
 3d2:	2110      	movs	r1, #16
 3d4:	f7ff fffe 	bl	0 <GPIO_ReadInputDataBit>
 3d8:	4a2c      	ldr	r2, [pc, #176]	(48c <Inputs_Handling+0x48c>)
 3da:	b918      	cbnz	r0, 3e4 <Inputs_Handling+0x3e4>
C:\tien\PROJEKTY\procesory\STM\T108_V100a\sources/sys.c:718
            Inputs_Level_Test |= INPUT7;
 3dc:	6913      	ldr	r3, [r2, #16]
 3de:	f043 0340 	orr.w	r3, r3, #64	; 0x40
 3e2:	e002      	b.n	3ea <Inputs_Handling+0x3ea>
C:\tien\PROJEKTY\procesory\STM\T108_V100a\sources/sys.c:720
        else
            Inputs_Level_Test &= ~INPUT7;
 3e4:	6913      	ldr	r3, [r2, #16]
 3e6:	f023 0340 	bic.w	r3, r3, #64	; 0x40
 3ea:	6113      	str	r3, [r2, #16]
C:\tien\PROJEKTY\procesory\STM\T108_V100a\sources/sys.c:722

                if ( GPIO_ReadInputDataBit(PORT_IN8, PIN_IN8) == 0 )
 3ec:	4829      	ldr	r0, [pc, #164]	(494 <Inputs_Handling+0x494>)
 3ee:	2120      	movs	r1, #32
 3f0:	f7ff fffe 	bl	0 <GPIO_ReadInputDataBit>
 3f4:	4a25      	ldr	r2, [pc, #148]	(48c <Inputs_Handling+0x48c>)
 3f6:	b918      	cbnz	r0, 400 <Inputs_Handling+0x400>
C:\tien\PROJEKTY\procesory\STM\T108_V100a\sources/sys.c:723
            Inputs_Level_Test |= INPUT8;
 3f8:	6913      	ldr	r3, [r2, #16]
 3fa:	f043 0380 	orr.w	r3, r3, #128	; 0x80
 3fe:	e002      	b.n	406 <Inputs_Handling+0x406>
C:\tien\PROJEKTY\procesory\STM\T108_V100a\sources/sys.c:725
        else
            Inputs_Level_Test &= ~INPUT8;
 400:	6913      	ldr	r3, [r2, #16]
 402:	f023 0380 	bic.w	r3, r3, #128	; 0x80
 406:	6113      	str	r3, [r2, #16]
C:\tien\PROJEKTY\procesory\STM\T108_V100a\sources/sys.c:728

        
        if ( Controller_Variables.Controller_Vars.AD_8 < Service_Variables.Serv_Vars.Serwis_002 )
 408:	4b23      	ldr	r3, [pc, #140]	(498 <Inputs_Handling+0x498>)
 40a:	8a9a      	ldrh	r2, [r3, #20]
 40c:	4b1d      	ldr	r3, [pc, #116]	(484 <Inputs_Handling+0x484>)
 40e:	8bd9      	ldrh	r1, [r3, #30]
 410:	428a      	cmp	r2, r1
 412:	d204      	bcs.n	41e <Inputs_Handling+0x41e>
C:\tien\PROJEKTY\procesory\STM\T108_V100a\sources/sys.c:730
        {
            Inputs_Level_Test |= INPUT9;
 414:	4a1d      	ldr	r2, [pc, #116]	(48c <Inputs_Handling+0x48c>)
 416:	6913      	ldr	r3, [r2, #16]
 418:	f443 7380 	orr.w	r3, r3, #256	; 0x100
 41c:	e006      	b.n	42c <Inputs_Handling+0x42c>
C:\tien\PROJEKTY\procesory\STM\T108_V100a\sources/sys.c:732
        }
        else if ( Controller_Variables.Controller_Vars.AD_8 > Service_Variables.Serv_Vars.Serwis_003 )
 41e:	8c1b      	ldrh	r3, [r3, #32]
 420:	4293      	cmp	r3, r2
 422:	d204      	bcs.n	42e <Inputs_Handling+0x42e>
C:\tien\PROJEKTY\procesory\STM\T108_V100a\sources/sys.c:734
        {
            Inputs_Level_Test &= ~INPUT9;
 424:	4a19      	ldr	r2, [pc, #100]	(48c <Inputs_Handling+0x48c>)
 426:	6913      	ldr	r3, [r2, #16]
 428:	f423 7380 	bic.w	r3, r3, #256	; 0x100
 42c:	6113      	str	r3, [r2, #16]
C:\tien\PROJEKTY\procesory\STM\T108_V100a\sources/sys.c:737
        }
    
        if ( Controller_Variables.Controller_Vars.AD_9 < Service_Variables.Serv_Vars.Serwis_002 )
 42e:	4b1a      	ldr	r3, [pc, #104]	(498 <Inputs_Handling+0x498>)
 430:	8ada      	ldrh	r2, [r3, #22]
 432:	428a      	cmp	r2, r1
 434:	d204      	bcs.n	440 <Inputs_Handling+0x440>
C:\tien\PROJEKTY\procesory\STM\T108_V100a\sources/sys.c:739
        {
            Inputs_Level_Test |= INPUT10;
 436:	4a15      	ldr	r2, [pc, #84]	(48c <Inputs_Handling+0x48c>)
 438:	6913      	ldr	r3, [r2, #16]
 43a:	f443 7300 	orr.w	r3, r3, #512	; 0x200
 43e:	e007      	b.n	450 <Inputs_Handling+0x450>
C:\tien\PROJEKTY\procesory\STM\T108_V100a\sources/sys.c:741
        }
        else if ( Controller_Variables.Controller_Vars.AD_9 > Service_Variables.Serv_Vars.Serwis_003 )
 440:	4b10      	ldr	r3, [pc, #64]	(484 <Inputs_Handling+0x484>)
 442:	8c1b      	ldrh	r3, [r3, #32]
 444:	4293      	cmp	r3, r2
 446:	d204      	bcs.n	452 <Inputs_Handling+0x452>
C:\tien\PROJEKTY\procesory\STM\T108_V100a\sources/sys.c:743
        {
            Inputs_Level_Test &= ~INPUT10;
 448:	4a10      	ldr	r2, [pc, #64]	(48c <Inputs_Handling+0x48c>)
 44a:	6913      	ldr	r3, [r2, #16]
 44c:	f423 7300 	bic.w	r3, r3, #512	; 0x200
 450:	6113      	str	r3, [r2, #16]
C:\tien\PROJEKTY\procesory\STM\T108_V100a\sources/sys.c:746
        }

        if ( GPIO_ReadInputDataBit(PORT_IN11, PIN_IN11) == 0 )
 452:	480f      	ldr	r0, [pc, #60]	(490 <Inputs_Handling+0x490>)
 454:	f44f 5100 	mov.w	r1, #8192	; 0x2000
 458:	f7ff fffe 	bl	0 <GPIO_ReadInputDataBit>
 45c:	4a0b      	ldr	r2, [pc, #44]	(48c <Inputs_Handling+0x48c>)
 45e:	b918      	cbnz	r0, 468 <Inputs_Handling+0x468>
C:\tien\PROJEKTY\procesory\STM\T108_V100a\sources/sys.c:747
            Inputs_Level_Test |= INPUT11;
 460:	6913      	ldr	r3, [r2, #16]
 462:	f443 6380 	orr.w	r3, r3, #1024	; 0x400
 466:	e002      	b.n	46e <Inputs_Handling+0x46e>
C:\tien\PROJEKTY\procesory\STM\T108_V100a\sources/sys.c:749
        else
            Inputs_Level_Test &= ~INPUT11;
 468:	6913      	ldr	r3, [r2, #16]
 46a:	f423 6380 	bic.w	r3, r3, #1024	; 0x400
 46e:	6113      	str	r3, [r2, #16]
C:\tien\PROJEKTY\procesory\STM\T108_V100a\sources/sys.c:751
    
        if ( GPIO_ReadInputDataBit(PORT_IN12, PIN_IN12) == 0 )
 470:	480a      	ldr	r0, [pc, #40]	(49c <Inputs_Handling+0x49c>)
 472:	2110      	movs	r1, #16
 474:	f7ff fffe 	bl	0 <GPIO_ReadInputDataBit>
 478:	4a04      	ldr	r2, [pc, #16]	(48c <Inputs_Handling+0x48c>)
 47a:	b988      	cbnz	r0, 4a0 <Inputs_Handling+0x4a0>
C:\tien\PROJEKTY\procesory\STM\T108_V100a\sources/sys.c:752
            Inputs_Level_Test |= INPUT12;
 47c:	6913      	ldr	r3, [r2, #16]
 47e:	f443 6300 	orr.w	r3, r3, #2048	; 0x800
 482:	e010      	b.n	24 <Service_Variables+0x24>
	...
 490:	40010800 	.word	0x40010800
 494:	40011000 	.word	0x40011000
 498:	00000000 	.word	0x00000000
 49c:	40010c00 	.word	0x40010c00
C:\tien\PROJEKTY\procesory\STM\T108_V100a\sources/sys.c:754
        else
            Inputs_Level_Test &= ~INPUT12;
 4a0:	6913      	ldr	r3, [r2, #16]
 4a2:	f423 6300 	bic.w	r3, r3, #2048	; 0x800
 4a6:	6113      	str	r3, [r2, #16]
C:\tien\PROJEKTY\procesory\STM\T108_V100a\sources/sys.c:759

        
        
//End of level handling for test
		System_Timer_Setting ( &Inputs_Timer.Timer, INPUTS_SAMPLE_TIME, T_10msec );
 4a8:	4803      	ldr	r0, [pc, #12]	(4b8 <Inputs_Handling+0x4b8>)
 4aa:	2103      	movs	r1, #3
 4ac:	2201      	movs	r2, #1
 4ae:	f7ff fffe 	bl	0 <Inputs_Handling>
C:\tien\PROJEKTY\procesory\STM\T108_V100a\sources/sys.c:762
    }

}
 4b2:	e8bd 81fc 	ldmia.w	sp!, {r2, r3, r4, r5, r6, r7, r8, pc}
 4b6:	46c0      	nop			(mov r8, r8)
 4b8:	00000000 	.word	0x00000000
Disassembly of section .text.RS485_Send:

00000000 <RS485_Send>:
RS485_Send():
C:\tien\PROJEKTY\procesory\STM\T108_V100a\sources/sys.c:1073
* Input          : None
* Output         : None
* Return         : None
*******************************************************************************/
void RS485_Send ( void )
{
   0:	b570      	push	{r4, r5, r6, lr}
C:\tien\PROJEKTY\procesory\STM\T108_V100a\sources/sys.c:1074
    if ( Controlling_Variables.Ctrl_Vars.Motor_Type == 0 ) // Frequency inverters
   2:	4b84      	ldr	r3, [pc, #528]	(214 <RS485_Send+0x214>)
   4:	f893 302e 	ldrb.w	r3, [r3, #46]
   8:	2b00      	cmp	r3, #0
   a:	f040 82e9 	bne.w	5e0 <RS485_Send+0x5e0>
C:\tien\PROJEKTY\procesory\STM\T108_V100a\sources/sys.c:1076
    {
        if ( RS485_TRANSMIT_ENABLE == FALSE )
   e:	4b82      	ldr	r3, [pc, #520]	(218 <RS485_Send+0x218>)
  10:	781b      	ldrb	r3, [r3, #0]
  12:	b9db      	cbnz	r3, 4c <RS485_Send+0x4c>
C:\tien\PROJEKTY\procesory\STM\T108_V100a\sources/sys.c:1078
        {
            if ( System_Timer_Check ( &RS485_Timer.Timer, T_10msec ) == TRUE )
  14:	2101      	movs	r1, #1
  16:	4881      	ldr	r0, [pc, #516]	(21c <RS485_Send+0x21c>)
  18:	f7ff fffe 	bl	0 <RS485_Send>
  1c:	2801      	cmp	r0, #1
  1e:	4604      	mov	r4, r0
  20:	d114      	bne.n	4c <RS485_Send+0x4c>
C:\tien\PROJEKTY\procesory\STM\T108_V100a\sources/sys.c:1080
            {
                if ( INV_PROGRAMMING == TRUE )
  22:	4b7f      	ldr	r3, [pc, #508]	(220 <RS485_Send+0x220>)
  24:	781a      	ldrb	r2, [r3, #0]
  26:	2a01      	cmp	r2, #1
  28:	d102      	bne.n	30 <RS485_Send+0x30>
C:\tien\PROJEKTY\procesory\STM\T108_V100a\sources/sys.c:1082
                {
                    System_Timer_Setting ( &RS485_Timer.Timer, 10, T_10msec );            
  2a:	487c      	ldr	r0, [pc, #496]	(21c <RS485_Send+0x21c>)
  2c:	210a      	movs	r1, #10
  2e:	e004      	b.n	3a <RS485_Send+0x3a>
C:\tien\PROJEKTY\procesory\STM\T108_V100a\sources/sys.c:1086
                }
                else
                {
                    System_Timer_Setting ( &RS485_Timer.Timer, Service_Variables.Serv_Vars.Serwis_022, T_10msec );
  30:	4b7c      	ldr	r3, [pc, #496]	(224 <RS485_Send+0x224>)
  32:	487a      	ldr	r0, [pc, #488]	(21c <RS485_Send+0x21c>)
  34:	f8b3 1046 	ldrh.w	r1, [r3, #70]
  38:	4622      	mov	r2, r4
  3a:	f7ff fffe 	bl	0 <RS485_Send>
C:\tien\PROJEKTY\procesory\STM\T108_V100a\sources/sys.c:1088
                }
                RS485_Counter = 0;
  3e:	4b7a      	ldr	r3, [pc, #488]	(228 <RS485_Send+0x228>)
  40:	f04f 0200 	mov.w	r2, #0	; 0x0
  44:	801a      	strh	r2, [r3, #0]
C:\tien\PROJEKTY\procesory\STM\T108_V100a\sources/sys.c:1089
                RS485_TRANSMIT_ENABLE = TRUE;
  46:	4b74      	ldr	r3, [pc, #464]	(218 <RS485_Send+0x218>)
  48:	2201      	movs	r2, #1
  4a:	701a      	strb	r2, [r3, #0]
C:\tien\PROJEKTY\procesory\STM\T108_V100a\sources/sys.c:1093
            }
        }

        if ( RS485_TRANSMIT_ENABLE == TRUE )
  4c:	4b72      	ldr	r3, [pc, #456]	(218 <RS485_Send+0x218>)
  4e:	781b      	ldrb	r3, [r3, #0]
  50:	2b01      	cmp	r3, #1
  52:	f040 82c5 	bne.w	5e0 <RS485_Send+0x5e0>
C:\tien\PROJEKTY\procesory\STM\T108_V100a\sources/sys.c:1095
        {
            RS485_Counter++;
  56:	4a74      	ldr	r2, [pc, #464]	(228 <RS485_Send+0x228>)
  58:	8813      	ldrh	r3, [r2, #0]
  5a:	3301      	adds	r3, #1
  5c:	b29b      	uxth	r3, r3
C:\tien\PROJEKTY\procesory\STM\T108_V100a\sources/sys.c:1097
        
            if ( RS485_Counter == 1 )
  5e:	2b01      	cmp	r3, #1
C:\tien\PROJEKTY\procesory\STM\T108_V100a\sources/sys.c:1095
            }
        }

        if ( RS485_TRANSMIT_ENABLE == TRUE )
        {
            RS485_Counter++;
  60:	8013      	strh	r3, [r2, #0]
C:\tien\PROJEKTY\procesory\STM\T108_V100a\sources/sys.c:1097
        
            if ( RS485_Counter == 1 )
  62:	d103      	bne.n	6c <RS485_Send+0x6c>
C:\tien\PROJEKTY\procesory\STM\T108_V100a\sources/sys.c:1099
            {
                GPIO_SetBits ( RS485_DIR_PORT, RS485_DIR_PIN );
  64:	4871      	ldr	r0, [pc, #452]	(22c <RS485_Send+0x22c>)
  66:	2104      	movs	r1, #4
  68:	f7ff fffe 	bl	0 <GPIO_SetBits>
C:\tien\PROJEKTY\procesory\STM\T108_V100a\sources/sys.c:1102
            }
            
            if ( RS485_Counter == 10 )
  6c:	4b6e      	ldr	r3, [pc, #440]	(228 <RS485_Send+0x228>)
  6e:	881b      	ldrh	r3, [r3, #0]
  70:	2b0a      	cmp	r3, #10
  72:	f040 82b5 	bne.w	5e0 <RS485_Send+0x5e0>
C:\tien\PROJEKTY\procesory\STM\T108_V100a\sources/sys.c:1114
//******************************************************************8//
//******************************************************************8//
//******************************************************************8//
//******************************************************************8//
//FREQ1 CONNECTION CHECK
                switch ( RS485_Inverter_Error )
  76:	4b6e      	ldr	r3, [pc, #440]	(230 <RS485_Send+0x230>)
  78:	4e6e      	ldr	r6, [pc, #440]	(234 <RS485_Send+0x234>)
  7a:	781b      	ldrb	r3, [r3, #0]
  7c:	2b08      	cmp	r3, #8
  7e:	f200 80ef 	bhi.w	260 <RS485_Send+0x260>
  82:	e8df f013 	tbh	[pc, r3, lsl #1]
  86:	0009      	.short	0x0009
  88:	00340019 	.word	0x00340019
  8c:	00ed0051 	.word	0x00ed0051
  90:	00ed00ed 	.word	0x00ed00ed
  94:	00960066 	.word	0x00960066
C:\tien\PROJEKTY\procesory\STM\T108_V100a\sources/sys.c:1117
                {
                    case FREQ1_CONNECTED:
                        if ( Uart_Tx_Packet.Uart_Buffer[6] == Uart_Rx_Packet.Uart_Buffer[6] &&
  98:	4967      	ldr	r1, [pc, #412]	(238 <RS485_Send+0x238>)
  9a:	79b2      	ldrb	r2, [r6, #6]
  9c:	798b      	ldrb	r3, [r1, #6]
  9e:	429a      	cmp	r2, r3
  a0:	d104      	bne.n	ac <RS485_Send+0xac>
  a2:	4b64      	ldr	r3, [pc, #400]	(234 <RS485_Send+0x234>)
  a4:	79da      	ldrb	r2, [r3, #7]
  a6:	79cb      	ldrb	r3, [r1, #7]
  a8:	429a      	cmp	r2, r3
  aa:	d033      	beq.n	114 <RS485_Send+0x114>
C:\tien\PROJEKTY\procesory\STM\T108_V100a\sources/sys.c:1125
                            RS485_Comm_Err_Counter1 = 0;
                            Controller_Variables.Controller_Vars.Inputs_Error &= ~F1_DISCONNECTED;
                        }
                        else
                        {
                            RS485_Comm_Err_Counter1++;
  ac:	4a63      	ldr	r2, [pc, #396]	(23c <RS485_Send+0x23c>)
  ae:	7813      	ldrb	r3, [r2, #0]
  b0:	3301      	adds	r3, #1
  b2:	7013      	strb	r3, [r2, #0]
C:\tien\PROJEKTY\procesory\STM\T108_V100a\sources/sys.c:1126
                            RS485_Inverter_Counter = FREQ1_CONNECTED;
  b4:	2200      	movs	r2, #0
  b6:	e017      	b.n	e8 <RS485_Send+0xe8>
C:\tien\PROJEKTY\procesory\STM\T108_V100a\sources/sys.c:1131
                        }
                    break;

                    case FREQ2_CONNECTED:
                        if ( Uart_Tx_Packet.Uart_Buffer[6] == Uart_Rx_Packet.Uart_Buffer[6] &&
  b8:	495f      	ldr	r1, [pc, #380]	(238 <RS485_Send+0x238>)
  ba:	79b2      	ldrb	r2, [r6, #6]
  bc:	798b      	ldrb	r3, [r1, #6]
  be:	429a      	cmp	r2, r3
  c0:	d10d      	bne.n	de <RS485_Send+0xde>
  c2:	4b5c      	ldr	r3, [pc, #368]	(234 <RS485_Send+0x234>)
  c4:	79da      	ldrb	r2, [r3, #7]
  c6:	79cb      	ldrb	r3, [r1, #7]
  c8:	429a      	cmp	r2, r3
  ca:	d108      	bne.n	de <RS485_Send+0xde>
C:\tien\PROJEKTY\procesory\STM\T108_V100a\sources/sys.c:1134
                             Uart_Tx_Packet.Uart_Buffer[7] == Uart_Rx_Packet.Uart_Buffer[7] )
                        {
                            RS485_Comm_Err_Counter2 = 0;
  cc:	4b5c      	ldr	r3, [pc, #368]	(240 <RS485_Send+0x240>)
  ce:	2200      	movs	r2, #0
  d0:	701a      	strb	r2, [r3, #0]
C:\tien\PROJEKTY\procesory\STM\T108_V100a\sources/sys.c:1135
                            Controller_Variables.Controller_Vars.Inputs_Error &= ~F2_DISCONNECTED;
  d2:	4a5c      	ldr	r2, [pc, #368]	(244 <RS485_Send+0x244>)
  d4:	8bd3      	ldrh	r3, [r2, #30]
  d6:	f423 7380 	bic.w	r3, r3, #256	; 0x100
  da:	83d3      	strh	r3, [r2, #30]
  dc:	e0c0      	b.n	260 <RS485_Send+0x260>
C:\tien\PROJEKTY\procesory\STM\T108_V100a\sources/sys.c:1139
                        }
                        else
                        {
                            RS485_Comm_Err_Counter2++;
  de:	4a58      	ldr	r2, [pc, #352]	(240 <RS485_Send+0x240>)
  e0:	7813      	ldrb	r3, [r2, #0]
  e2:	3301      	adds	r3, #1
  e4:	7013      	strb	r3, [r2, #0]
C:\tien\PROJEKTY\procesory\STM\T108_V100a\sources/sys.c:1140
                            RS485_Inverter_Counter = FREQ2_CONNECTED;
  e6:	2201      	movs	r2, #1
  e8:	4b57      	ldr	r3, [pc, #348]	(248 <RS485_Send+0x248>)
  ea:	701a      	strb	r2, [r3, #0]
  ec:	e0b8      	b.n	260 <RS485_Send+0x260>
C:\tien\PROJEKTY\procesory\STM\T108_V100a\sources/sys.c:1145
                        }            
                    break;

                    case FREQ1_START_STOP:
                        Crc_check = CRC16_CCITT( Uart_Rx_Packet.Uart_Buffer, 6);
  ee:	4c52      	ldr	r4, [pc, #328]	(238 <RS485_Send+0x238>)
  f0:	2106      	movs	r1, #6
  f2:	4620      	mov	r0, r4
  f4:	f7ff fffe 	bl	0 <RS485_Send>
  f8:	4b54      	ldr	r3, [pc, #336]	(24c <RS485_Send+0x24c>)
C:\tien\PROJEKTY\procesory\STM\T108_V100a\sources/sys.c:1150

                        Crc_received = 0;
                        Crc_received = Uart_Rx_Packet.Uart_Buffer[7];
                        Crc_received <<= 8;
                        Crc_received += Uart_Rx_Packet.Uart_Buffer[6];
  fa:	79e2      	ldrb	r2, [r4, #7]
C:\tien\PROJEKTY\procesory\STM\T108_V100a\sources/sys.c:1145
                            RS485_Inverter_Counter = FREQ2_CONNECTED;
                        }            
                    break;

                    case FREQ1_START_STOP:
                        Crc_check = CRC16_CCITT( Uart_Rx_Packet.Uart_Buffer, 6);
  fc:	8018      	strh	r0, [r3, #0]
C:\tien\PROJEKTY\procesory\STM\T108_V100a\sources/sys.c:1150

                        Crc_received = 0;
                        Crc_received = Uart_Rx_Packet.Uart_Buffer[7];
                        Crc_received <<= 8;
                        Crc_received += Uart_Rx_Packet.Uart_Buffer[6];
  fe:	79a3      	ldrb	r3, [r4, #6]
 100:	eb03 2302 	add.w	r3, r3, r2, lsl #8
 104:	b29a      	uxth	r2, r3
 106:	4b52      	ldr	r3, [pc, #328]	(250 <RS485_Send+0x250>)
 108:	801a      	strh	r2, [r3, #0]
C:\tien\PROJEKTY\procesory\STM\T108_V100a\sources/sys.c:1152
                    
                        if ( Uart_Rx_Packet.Uart_Buffer[0] == F1_ADDRESS &&
 10a:	7823      	ldrb	r3, [r4, #0]
 10c:	2b01      	cmp	r3, #1
 10e:	d109      	bne.n	124 <RS485_Send+0x124>
 110:	4290      	cmp	r0, r2
 112:	d107      	bne.n	124 <RS485_Send+0x124>
C:\tien\PROJEKTY\procesory\STM\T108_V100a\sources/sys.c:1155
                             Crc_check == Crc_received )
                        { 
                            RS485_Comm_Err_Counter1 = 0;
 114:	4b49      	ldr	r3, [pc, #292]	(23c <RS485_Send+0x23c>)
 116:	2200      	movs	r2, #0
 118:	701a      	strb	r2, [r3, #0]
C:\tien\PROJEKTY\procesory\STM\T108_V100a\sources/sys.c:1156
                            Controller_Variables.Controller_Vars.Inputs_Error &= ~F1_DISCONNECTED;
 11a:	4a4a      	ldr	r2, [pc, #296]	(244 <RS485_Send+0x244>)
 11c:	8bd3      	ldrh	r3, [r2, #30]
 11e:	f023 0380 	bic.w	r3, r3, #128	; 0x80
 122:	e7da      	b.n	da <RS485_Send+0xda>
C:\tien\PROJEKTY\procesory\STM\T108_V100a\sources/sys.c:1160
                        }
                        else
                        {
                            RS485_Comm_Err_Counter1++;
 124:	4a45      	ldr	r2, [pc, #276]	(23c <RS485_Send+0x23c>)
 126:	e071      	b.n	20c <RS485_Send+0x20c>
C:\tien\PROJEKTY\procesory\STM\T108_V100a\sources/sys.c:1165
                        }
                    break;
                    
                    case FREQ2_START_STOP:
                        Crc_check = CRC16_CCITT( Uart_Rx_Packet.Uart_Buffer, 6);
 128:	4c43      	ldr	r4, [pc, #268]	(238 <RS485_Send+0x238>)
 12a:	2106      	movs	r1, #6
 12c:	4620      	mov	r0, r4
 12e:	f7ff fffe 	bl	0 <RS485_Send>
 132:	4b46      	ldr	r3, [pc, #280]	(24c <RS485_Send+0x24c>)
C:\tien\PROJEKTY\procesory\STM\T108_V100a\sources/sys.c:1170

                        Crc_received = 0;
                        Crc_received = Uart_Rx_Packet.Uart_Buffer[7];
                        Crc_received <<= 8;
                        Crc_received += Uart_Rx_Packet.Uart_Buffer[6];
 134:	79e2      	ldrb	r2, [r4, #7]
C:\tien\PROJEKTY\procesory\STM\T108_V100a\sources/sys.c:1165
                            RS485_Comm_Err_Counter1++;
                        }
                    break;
                    
                    case FREQ2_START_STOP:
                        Crc_check = CRC16_CCITT( Uart_Rx_Packet.Uart_Buffer, 6);
 136:	8018      	strh	r0, [r3, #0]
C:\tien\PROJEKTY\procesory\STM\T108_V100a\sources/sys.c:1170

                        Crc_received = 0;
                        Crc_received = Uart_Rx_Packet.Uart_Buffer[7];
                        Crc_received <<= 8;
                        Crc_received += Uart_Rx_Packet.Uart_Buffer[6];
 138:	79a3      	ldrb	r3, [r4, #6]
 13a:	eb03 2302 	add.w	r3, r3, r2, lsl #8
 13e:	b29a      	uxth	r2, r3
 140:	4b43      	ldr	r3, [pc, #268]	(250 <RS485_Send+0x250>)
 142:	801a      	strh	r2, [r3, #0]
C:\tien\PROJEKTY\procesory\STM\T108_V100a\sources/sys.c:1172
                    
                        if ( Uart_Rx_Packet.Uart_Buffer[0] == F1_ADDRESS &&
 144:	7823      	ldrb	r3, [r4, #0]
 146:	2b01      	cmp	r3, #1
 148:	d101      	bne.n	14e <RS485_Send+0x14e>
 14a:	4290      	cmp	r0, r2
 14c:	d0be      	beq.n	cc <RS485_Send+0xcc>
C:\tien\PROJEKTY\procesory\STM\T108_V100a\sources/sys.c:1180
                            RS485_Comm_Err_Counter2 = 0;
                            Controller_Variables.Controller_Vars.Inputs_Error &= ~F2_DISCONNECTED;
                        }
                        else
                        {
                            RS485_Comm_Err_Counter2++;
 14e:	4a3c      	ldr	r2, [pc, #240]	(240 <RS485_Send+0x240>)
 150:	e05c      	b.n	20c <RS485_Send+0x20c>
C:\tien\PROJEKTY\procesory\STM\T108_V100a\sources/sys.c:1193
                    case FREQ2_SET:
                        
                    break;
                    
                    case FREQ1_MONITORING:
                        Crc_check = CRC16_CCITT( Uart_Rx_Packet.Uart_Buffer, 5);
 152:	4c39      	ldr	r4, [pc, #228]	(238 <RS485_Send+0x238>)
 154:	2105      	movs	r1, #5
 156:	4620      	mov	r0, r4
 158:	f7ff fffe 	bl	0 <RS485_Send>
 15c:	4b3b      	ldr	r3, [pc, #236]	(24c <RS485_Send+0x24c>)
C:\tien\PROJEKTY\procesory\STM\T108_V100a\sources/sys.c:1198

                        Crc_received = 0;
                        Crc_received = Uart_Rx_Packet.Uart_Buffer[6];
                        Crc_received <<= 8;
                        Crc_received += Uart_Rx_Packet.Uart_Buffer[5];
 15e:	79a2      	ldrb	r2, [r4, #6]
C:\tien\PROJEKTY\procesory\STM\T108_V100a\sources/sys.c:1193
                    case FREQ2_SET:
                        
                    break;
                    
                    case FREQ1_MONITORING:
                        Crc_check = CRC16_CCITT( Uart_Rx_Packet.Uart_Buffer, 5);
 160:	8018      	strh	r0, [r3, #0]
C:\tien\PROJEKTY\procesory\STM\T108_V100a\sources/sys.c:1198

                        Crc_received = 0;
                        Crc_received = Uart_Rx_Packet.Uart_Buffer[6];
                        Crc_received <<= 8;
                        Crc_received += Uart_Rx_Packet.Uart_Buffer[5];
 162:	7963      	ldrb	r3, [r4, #5]
 164:	eb03 2302 	add.w	r3, r3, r2, lsl #8
 168:	b29a      	uxth	r2, r3
 16a:	4b39      	ldr	r3, [pc, #228]	(250 <RS485_Send+0x250>)
 16c:	801a      	strh	r2, [r3, #0]
C:\tien\PROJEKTY\procesory\STM\T108_V100a\sources/sys.c:1200
                    
                        if ( Uart_Rx_Packet.Uart_Buffer[0] == F1_ADDRESS &&
 16e:	7823      	ldrb	r3, [r4, #0]
 170:	2b01      	cmp	r3, #1
 172:	d10f      	bne.n	194 <RS485_Send+0x194>
 174:	4290      	cmp	r0, r2
 176:	d10d      	bne.n	194 <RS485_Send+0x194>
C:\tien\PROJEKTY\procesory\STM\T108_V100a\sources/sys.c:1206
                             Crc_check == Crc_received )
                        {
                            Controller_Variables.Controller_Vars.F1_Current = 0;
                            Controller_Variables.Controller_Vars.F1_Current = Uart_Rx_Packet.Uart_Buffer[3];
                            Controller_Variables.Controller_Vars.F1_Current <<= 8;
                            Controller_Variables.Controller_Vars.F1_Current += Uart_Rx_Packet.Uart_Buffer[4];
 178:	78e2      	ldrb	r2, [r4, #3]
 17a:	7923      	ldrb	r3, [r4, #4]
 17c:	4931      	ldr	r1, [pc, #196]	(244 <RS485_Send+0x244>)
 17e:	eb03 2302 	add.w	r3, r3, r2, lsl #8
 182:	870b      	strh	r3, [r1, #56]
C:\tien\PROJEKTY\procesory\STM\T108_V100a\sources/sys.c:1208

                            RS485_Comm_Err_Counter1 = 0;
 184:	4b2d      	ldr	r3, [pc, #180]	(23c <RS485_Send+0x23c>)
 186:	2200      	movs	r2, #0
 188:	701a      	strb	r2, [r3, #0]
C:\tien\PROJEKTY\procesory\STM\T108_V100a\sources/sys.c:1209
                            Controller_Variables.Controller_Vars.Inputs_Error &= ~F1_DISCONNECTED;
 18a:	8bcb      	ldrh	r3, [r1, #30]
 18c:	f023 0380 	bic.w	r3, r3, #128	; 0x80
 190:	83cb      	strh	r3, [r1, #30]
 192:	e005      	b.n	1a0 <RS485_Send+0x1a0>
C:\tien\PROJEKTY\procesory\STM\T108_V100a\sources/sys.c:1213
                        }
                        else
                        {
                            if ( RS485_Comm_Err_Counter1 < 20 )
 194:	4a29      	ldr	r2, [pc, #164]	(23c <RS485_Send+0x23c>)
 196:	7813      	ldrb	r3, [r2, #0]
 198:	2b13      	cmp	r3, #19
 19a:	d801      	bhi.n	1a0 <RS485_Send+0x1a0>
C:\tien\PROJEKTY\procesory\STM\T108_V100a\sources/sys.c:1214
                                RS485_Comm_Err_Counter1++;
 19c:	3301      	adds	r3, #1
 19e:	7013      	strb	r3, [r2, #0]
C:\tien\PROJEKTY\procesory\STM\T108_V100a\sources/sys.c:1217
                        }

                        if ( Controller_Variables.Controller_Vars.F1_Current > Controlling_Variables.Ctrl_Vars.F1_Current_Limit )
 1a0:	4b28      	ldr	r3, [pc, #160]	(244 <RS485_Send+0x244>)
 1a2:	8f1a      	ldrh	r2, [r3, #56]
 1a4:	4b1b      	ldr	r3, [pc, #108]	(214 <RS485_Send+0x214>)
 1a6:	f893 302a 	ldrb.w	r3, [r3, #42]
 1aa:	429a      	cmp	r2, r3
 1ac:	4a29      	ldr	r2, [pc, #164]	(254 <RS485_Send+0x254>)
 1ae:	d955      	bls.n	25c <RS485_Send+0x25c>
 1b0:	e02c      	b.n	20c <RS485_Send+0x20c>
C:\tien\PROJEKTY\procesory\STM\T108_V100a\sources/sys.c:1228
                            F1_Current_Counter = 0;
                        }                    
                    break;
                    
                    case FREQ2_MONITORING:
                        Crc_check = CRC16_CCITT( Uart_Rx_Packet.Uart_Buffer, 5);
 1b2:	4c21      	ldr	r4, [pc, #132]	(238 <RS485_Send+0x238>)
 1b4:	2105      	movs	r1, #5
 1b6:	4620      	mov	r0, r4
 1b8:	f7ff fffe 	bl	0 <RS485_Send>
 1bc:	4b23      	ldr	r3, [pc, #140]	(24c <RS485_Send+0x24c>)
C:\tien\PROJEKTY\procesory\STM\T108_V100a\sources/sys.c:1233

                        Crc_received = 0;
                        Crc_received = Uart_Rx_Packet.Uart_Buffer[6];
                        Crc_received <<= 8;
                        Crc_received += Uart_Rx_Packet.Uart_Buffer[5];
 1be:	79a2      	ldrb	r2, [r4, #6]
C:\tien\PROJEKTY\procesory\STM\T108_V100a\sources/sys.c:1228
                            F1_Current_Counter = 0;
                        }                    
                    break;
                    
                    case FREQ2_MONITORING:
                        Crc_check = CRC16_CCITT( Uart_Rx_Packet.Uart_Buffer, 5);
 1c0:	8018      	strh	r0, [r3, #0]
C:\tien\PROJEKTY\procesory\STM\T108_V100a\sources/sys.c:1233

                        Crc_received = 0;
                        Crc_received = Uart_Rx_Packet.Uart_Buffer[6];
                        Crc_received <<= 8;
                        Crc_received += Uart_Rx_Packet.Uart_Buffer[5];
 1c2:	7963      	ldrb	r3, [r4, #5]
 1c4:	eb03 2302 	add.w	r3, r3, r2, lsl #8
 1c8:	b29a      	uxth	r2, r3
 1ca:	4b21      	ldr	r3, [pc, #132]	(250 <RS485_Send+0x250>)
 1cc:	801a      	strh	r2, [r3, #0]
C:\tien\PROJEKTY\procesory\STM\T108_V100a\sources/sys.c:1235
                    
                        if ( Uart_Rx_Packet.Uart_Buffer[0] == F2_ADDRESS &&
 1ce:	7823      	ldrb	r3, [r4, #0]
 1d0:	2b02      	cmp	r3, #2
 1d2:	d10f      	bne.n	1f4 <RS485_Send+0x1f4>
 1d4:	4290      	cmp	r0, r2
 1d6:	d10d      	bne.n	1f4 <RS485_Send+0x1f4>
C:\tien\PROJEKTY\procesory\STM\T108_V100a\sources/sys.c:1241
                             Crc_check == Crc_received )
                        {
                            Controller_Variables.Controller_Vars.F2_Current = 0;
                            Controller_Variables.Controller_Vars.F2_Current = Uart_Rx_Packet.Uart_Buffer[3];
                            Controller_Variables.Controller_Vars.F2_Current <<= 8;
                            Controller_Variables.Controller_Vars.F2_Current += Uart_Rx_Packet.Uart_Buffer[4];
 1d8:	78e2      	ldrb	r2, [r4, #3]
 1da:	7923      	ldrb	r3, [r4, #4]
 1dc:	4919      	ldr	r1, [pc, #100]	(244 <RS485_Send+0x244>)
 1de:	eb03 2302 	add.w	r3, r3, r2, lsl #8
 1e2:	874b      	strh	r3, [r1, #58]
C:\tien\PROJEKTY\procesory\STM\T108_V100a\sources/sys.c:1243

                            RS485_Comm_Err_Counter2 = 0;
 1e4:	4b16      	ldr	r3, [pc, #88]	(240 <RS485_Send+0x240>)
 1e6:	2200      	movs	r2, #0
 1e8:	701a      	strb	r2, [r3, #0]
C:\tien\PROJEKTY\procesory\STM\T108_V100a\sources/sys.c:1244
                            Controller_Variables.Controller_Vars.Inputs_Error &= ~F2_DISCONNECTED;
 1ea:	8bcb      	ldrh	r3, [r1, #30]
 1ec:	f423 7380 	bic.w	r3, r3, #256	; 0x100
 1f0:	83cb      	strh	r3, [r1, #30]
 1f2:	e003      	b.n	1fc <RS485_Send+0x1fc>
C:\tien\PROJEKTY\procesory\STM\T108_V100a\sources/sys.c:1248
                        }
                        else
                        {
                            RS485_Comm_Err_Counter2++;
 1f4:	4a12      	ldr	r2, [pc, #72]	(240 <RS485_Send+0x240>)
 1f6:	7813      	ldrb	r3, [r2, #0]
 1f8:	3301      	adds	r3, #1
 1fa:	7013      	strb	r3, [r2, #0]
C:\tien\PROJEKTY\procesory\STM\T108_V100a\sources/sys.c:1251
                        }
                    
                        if ( Controller_Variables.Controller_Vars.F2_Current >= Controlling_Variables.Ctrl_Vars.F2_Current_Limit )
 1fc:	4b11      	ldr	r3, [pc, #68]	(244 <RS485_Send+0x244>)
 1fe:	8f5a      	ldrh	r2, [r3, #58]
 200:	4b04      	ldr	r3, [pc, #16]	(214 <RS485_Send+0x214>)
 202:	f893 302b 	ldrb.w	r3, [r3, #43]
 206:	429a      	cmp	r2, r3
 208:	4a13      	ldr	r2, [pc, #76]	(258 <RS485_Send+0x258>)
 20a:	d327      	bcc.n	25c <RS485_Send+0x25c>
C:\tien\PROJEKTY\procesory\STM\T108_V100a\sources/sys.c:1253
                        {
                            F2_Current_Counter++;
 20c:	7813      	ldrb	r3, [r2, #0]
 20e:	3301      	adds	r3, #1
 210:	e025      	b.n	25e <RS485_Send+0x25e>
 212:	46c0      	nop			(mov r8, r8)
	...
 22c:	40011400 	.word	0x40011400
	...
C:\tien\PROJEKTY\procesory\STM\T108_V100a\sources/sys.c:1257
                        }
                        else
                        {
                            F2_Current_Counter = 0;
 25c:	2300      	movs	r3, #0
 25e:	7013      	strb	r3, [r2, #0]
C:\tien\PROJEKTY\procesory\STM\T108_V100a\sources/sys.c:1266
                    default:
                        
                    break;
                }
            
                if ( RS485_Comm_Err_Counter1 >= 10 )
 260:	4b84      	ldr	r3, [pc, #528]	(474 <RS485_Send+0x474>)
 262:	781b      	ldrb	r3, [r3, #0]
 264:	2b09      	cmp	r3, #9
 266:	d904      	bls.n	272 <RS485_Send+0x272>
C:\tien\PROJEKTY\procesory\STM\T108_V100a\sources/sys.c:1268
                {
                    Controller_Variables.Controller_Vars.Inputs_Error |= F1_DISCONNECTED;
 268:	4a83      	ldr	r2, [pc, #524]	(478 <RS485_Send+0x478>)
 26a:	8bd3      	ldrh	r3, [r2, #30]
 26c:	f043 0380 	orr.w	r3, r3, #128	; 0x80
 270:	83d3      	strh	r3, [r2, #30]
C:\tien\PROJEKTY\procesory\STM\T108_V100a\sources/sys.c:1271
                }  

                if ( RS485_Comm_Err_Counter2 >= 10 )
 272:	4b82      	ldr	r3, [pc, #520]	(47c <RS485_Send+0x47c>)
 274:	781b      	ldrb	r3, [r3, #0]
 276:	2b09      	cmp	r3, #9
 278:	d904      	bls.n	284 <RS485_Send+0x284>
C:\tien\PROJEKTY\procesory\STM\T108_V100a\sources/sys.c:1273
                {
                    Controller_Variables.Controller_Vars.Inputs_Error |= F2_DISCONNECTED;
 27a:	4a7f      	ldr	r2, [pc, #508]	(478 <RS485_Send+0x478>)
 27c:	8bd3      	ldrh	r3, [r2, #30]
 27e:	f443 7380 	orr.w	r3, r3, #256	; 0x100
 282:	83d3      	strh	r3, [r2, #30]
C:\tien\PROJEKTY\procesory\STM\T108_V100a\sources/sys.c:1284
//Sendign data to frequency inverters
//******************************************************************8//
//******************************************************************8//
//******************************************************************8//
//******************************************************************8//
                switch ( RS485_Inverter_Counter ) 
 284:	4b7e      	ldr	r3, [pc, #504]	(480 <RS485_Send+0x480>)
 286:	4e7f      	ldr	r6, [pc, #508]	(484 <RS485_Send+0x484>)
 288:	781b      	ldrb	r3, [r3, #0]
 28a:	487f      	ldr	r0, [pc, #508]	(488 <RS485_Send+0x488>)
 28c:	2b08      	cmp	r3, #8
 28e:	f200 819b 	bhi.w	5c8 <RS485_Send+0x5c8>
 292:	e8df f013 	tbh	[pc, r3, lsl #1]
 296:	0009      	.short	0x0009
 298:	0064003b 	.word	0x0064003b
 29c:	00d2009b 	.word	0x00d2009b
 2a0:	01350105 	.word	0x01350105
 2a4:	017f015b 	.word	0x017f015b
C:\tien\PROJEKTY\procesory\STM\T108_V100a\sources/sys.c:1289
                { 
                case FREQ1_CONNECTED:
                    Uart_Tx_Packet.Uart_Buffer[0] = F1_ADDRESS;
                    Uart_Tx_Packet.Uart_Buffer[1] = FUN_TEST;
                    Uart_Tx_Packet.Uart_Buffer[2] = 0x00;
 2a8:	2300      	movs	r3, #0
C:\tien\PROJEKTY\procesory\STM\T108_V100a\sources/sys.c:1288
//******************************************************************8//
                switch ( RS485_Inverter_Counter ) 
                { 
                case FREQ1_CONNECTED:
                    Uart_Tx_Packet.Uart_Buffer[0] = F1_ADDRESS;
                    Uart_Tx_Packet.Uart_Buffer[1] = FUN_TEST;
 2aa:	2208      	movs	r2, #8
C:\tien\PROJEKTY\procesory\STM\T108_V100a\sources/sys.c:1289
                    Uart_Tx_Packet.Uart_Buffer[2] = 0x00;
 2ac:	70b3      	strb	r3, [r6, #2]
C:\tien\PROJEKTY\procesory\STM\T108_V100a\sources/sys.c:1290
                    Uart_Tx_Packet.Uart_Buffer[3] = 0x00;
 2ae:	70f3      	strb	r3, [r6, #3]
C:\tien\PROJEKTY\procesory\STM\T108_V100a\sources/sys.c:1291
                    Uart_Tx_Packet.Uart_Buffer[4] = 0xa5;
 2b0:	f06f 035a 	mvn.w	r3, #90	; 0x5a
 2b4:	7133      	strb	r3, [r6, #4]
C:\tien\PROJEKTY\procesory\STM\T108_V100a\sources/sys.c:1294
                    Uart_Tx_Packet.Uart_Buffer[5] = 0x37;

                    RS485_Packet_Length = 8;        
 2b6:	7002      	strb	r2, [r0, #0]
C:\tien\PROJEKTY\procesory\STM\T108_V100a\sources/sys.c:1292
                    Uart_Tx_Packet.Uart_Buffer[0] = F1_ADDRESS;
                    Uart_Tx_Packet.Uart_Buffer[1] = FUN_TEST;
                    Uart_Tx_Packet.Uart_Buffer[2] = 0x00;
                    Uart_Tx_Packet.Uart_Buffer[3] = 0x00;
                    Uart_Tx_Packet.Uart_Buffer[4] = 0xa5;
                    Uart_Tx_Packet.Uart_Buffer[5] = 0x37;
 2b8:	3392      	adds	r3, #146
C:\tien\PROJEKTY\procesory\STM\T108_V100a\sources/sys.c:1295

                    RS485_Packet_Length = 8;        
                    Crc_value = CRC16_CCITT( Uart_Tx_Packet.Uart_Buffer, (RS485_Packet_Length-2));
 2ba:	2106      	movs	r1, #6
C:\tien\PROJEKTY\procesory\STM\T108_V100a\sources/sys.c:1287
//******************************************************************8//
//******************************************************************8//
                switch ( RS485_Inverter_Counter ) 
                { 
                case FREQ1_CONNECTED:
                    Uart_Tx_Packet.Uart_Buffer[0] = F1_ADDRESS;
 2bc:	2401      	movs	r4, #1
C:\tien\PROJEKTY\procesory\STM\T108_V100a\sources/sys.c:1295
                    Uart_Tx_Packet.Uart_Buffer[3] = 0x00;
                    Uart_Tx_Packet.Uart_Buffer[4] = 0xa5;
                    Uart_Tx_Packet.Uart_Buffer[5] = 0x37;

                    RS485_Packet_Length = 8;        
                    Crc_value = CRC16_CCITT( Uart_Tx_Packet.Uart_Buffer, (RS485_Packet_Length-2));
 2be:	4871      	ldr	r0, [pc, #452]	(484 <RS485_Send+0x484>)
C:\tien\PROJEKTY\procesory\STM\T108_V100a\sources/sys.c:1292
                    Uart_Tx_Packet.Uart_Buffer[0] = F1_ADDRESS;
                    Uart_Tx_Packet.Uart_Buffer[1] = FUN_TEST;
                    Uart_Tx_Packet.Uart_Buffer[2] = 0x00;
                    Uart_Tx_Packet.Uart_Buffer[3] = 0x00;
                    Uart_Tx_Packet.Uart_Buffer[4] = 0xa5;
                    Uart_Tx_Packet.Uart_Buffer[5] = 0x37;
 2c0:	7173      	strb	r3, [r6, #5]
C:\tien\PROJEKTY\procesory\STM\T108_V100a\sources/sys.c:1287
//******************************************************************8//
//******************************************************************8//
                switch ( RS485_Inverter_Counter ) 
                { 
                case FREQ1_CONNECTED:
                    Uart_Tx_Packet.Uart_Buffer[0] = F1_ADDRESS;
 2c2:	7034      	strb	r4, [r6, #0]
C:\tien\PROJEKTY\procesory\STM\T108_V100a\sources/sys.c:1288
                    Uart_Tx_Packet.Uart_Buffer[1] = FUN_TEST;
 2c4:	7072      	strb	r2, [r6, #1]
C:\tien\PROJEKTY\procesory\STM\T108_V100a\sources/sys.c:1295
                    Uart_Tx_Packet.Uart_Buffer[3] = 0x00;
                    Uart_Tx_Packet.Uart_Buffer[4] = 0xa5;
                    Uart_Tx_Packet.Uart_Buffer[5] = 0x37;

                    RS485_Packet_Length = 8;        
                    Crc_value = CRC16_CCITT( Uart_Tx_Packet.Uart_Buffer, (RS485_Packet_Length-2));
 2c6:	f7ff fffe 	bl	0 <RS485_Send>
 2ca:	4b70      	ldr	r3, [pc, #448]	(48c <RS485_Send+0x48c>)
C:\tien\PROJEKTY\procesory\STM\T108_V100a\sources/sys.c:1296
                    Uart_Tx_Packet.Uart_Buffer[6] = (uint8_t)(Crc_value & 0x00ff);
 2cc:	71b0      	strb	r0, [r6, #6]
C:\tien\PROJEKTY\procesory\STM\T108_V100a\sources/sys.c:1295
                    Uart_Tx_Packet.Uart_Buffer[3] = 0x00;
                    Uart_Tx_Packet.Uart_Buffer[4] = 0xa5;
                    Uart_Tx_Packet.Uart_Buffer[5] = 0x37;

                    RS485_Packet_Length = 8;        
                    Crc_value = CRC16_CCITT( Uart_Tx_Packet.Uart_Buffer, (RS485_Packet_Length-2));
 2ce:	8018      	strh	r0, [r3, #0]
C:\tien\PROJEKTY\procesory\STM\T108_V100a\sources/sys.c:1299
                    Uart_Tx_Packet.Uart_Buffer[6] = (uint8_t)(Crc_value & 0x00ff);
                    Uart_Tx_Packet.Uart_Buffer[7] = (uint8_t)(Crc_value >> 8 ) & 0x00ff;

                    if ( Motors_Enable == 0 )
 2d0:	4b6f      	ldr	r3, [pc, #444]	(490 <RS485_Send+0x490>)
C:\tien\PROJEKTY\procesory\STM\T108_V100a\sources/sys.c:1297
                    Uart_Tx_Packet.Uart_Buffer[5] = 0x37;

                    RS485_Packet_Length = 8;        
                    Crc_value = CRC16_CCITT( Uart_Tx_Packet.Uart_Buffer, (RS485_Packet_Length-2));
                    Uart_Tx_Packet.Uart_Buffer[6] = (uint8_t)(Crc_value & 0x00ff);
                    Uart_Tx_Packet.Uart_Buffer[7] = (uint8_t)(Crc_value >> 8 ) & 0x00ff;
 2d2:	0a00      	lsrs	r0, r0, #8
C:\tien\PROJEKTY\procesory\STM\T108_V100a\sources/sys.c:1299

                    if ( Motors_Enable == 0 )
 2d4:	7819      	ldrb	r1, [r3, #0]
C:\tien\PROJEKTY\procesory\STM\T108_V100a\sources/sys.c:1297
                    Uart_Tx_Packet.Uart_Buffer[5] = 0x37;

                    RS485_Packet_Length = 8;        
                    Crc_value = CRC16_CCITT( Uart_Tx_Packet.Uart_Buffer, (RS485_Packet_Length-2));
                    Uart_Tx_Packet.Uart_Buffer[6] = (uint8_t)(Crc_value & 0x00ff);
                    Uart_Tx_Packet.Uart_Buffer[7] = (uint8_t)(Crc_value >> 8 ) & 0x00ff;
 2d6:	71f0      	strb	r0, [r6, #7]
C:\tien\PROJEKTY\procesory\STM\T108_V100a\sources/sys.c:1299

                    if ( Motors_Enable == 0 )
 2d8:	b999      	cbnz	r1, 302 <RS485_Send+0x302>
C:\tien\PROJEKTY\procesory\STM\T108_V100a\sources/sys.c:1301
                    {
                        if ( Controlling_Variables.Ctrl_Vars.Fast_Gate_Type == 0 ) // Two wings gate
 2da:	4b6e      	ldr	r3, [pc, #440]	(494 <RS485_Send+0x494>)
 2dc:	7edb      	ldrb	r3, [r3, #27]
 2de:	b913      	cbnz	r3, 2e6 <RS485_Send+0x2e6>
C:\tien\PROJEKTY\procesory\STM\T108_V100a\sources/sys.c:1303
                        { 
                            RS485_Inverter_Counter = FREQ2_CONNECTED;
 2e0:	4b67      	ldr	r3, [pc, #412]	(480 <RS485_Send+0x480>)
 2e2:	701c      	strb	r4, [r3, #0]
 2e4:	e010      	b.n	308 <RS485_Send+0x308>
C:\tien\PROJEKTY\procesory\STM\T108_V100a\sources/sys.c:1305
                        }
                        else if ( Controlling_Variables.Ctrl_Vars.Fast_Gate_Type == 1 || // One wing gate
 2e6:	3b01      	subs	r3, #1
 2e8:	b2db      	uxtb	r3, r3
 2ea:	2b01      	cmp	r3, #1
 2ec:	d80c      	bhi.n	308 <RS485_Send+0x308>
C:\tien\PROJEKTY\procesory\STM\T108_V100a\sources/sys.c:1308
                                  Controlling_Variables.Ctrl_Vars.Fast_Gate_Type == 2 )  // Sliding
                        {
                            if ( INV_PROGRAMMING == TRUE )
 2ee:	4b6a      	ldr	r3, [pc, #424]	(498 <RS485_Send+0x498>)
 2f0:	4a63      	ldr	r2, [pc, #396]	(480 <RS485_Send+0x480>)
 2f2:	781b      	ldrb	r3, [r3, #0]
 2f4:	2b01      	cmp	r3, #1
 2f6:	d102      	bne.n	2fe <RS485_Send+0x2fe>
C:\tien\PROJEKTY\procesory\STM\T108_V100a\sources/sys.c:1310
                            {
                                RS485_Inverter_Counter = FREQ1_SET;
 2f8:	3304      	adds	r3, #4
 2fa:	7013      	strb	r3, [r2, #0]
 2fc:	e004      	b.n	308 <RS485_Send+0x308>
C:\tien\PROJEKTY\procesory\STM\T108_V100a\sources/sys.c:1314
                            }
                            else
                            {
                                RS485_Inverter_Counter = FREQ1_CONNECTED;
 2fe:	7011      	strb	r1, [r2, #0]
 300:	e002      	b.n	308 <RS485_Send+0x308>
C:\tien\PROJEKTY\procesory\STM\T108_V100a\sources/sys.c:1320
                            }
                        }
                    }
                    else
                    {
                        RS485_Inverter_Counter = FREQ1_START_STOP;                
 302:	4b5f      	ldr	r3, [pc, #380]	(480 <RS485_Send+0x480>)
 304:	2202      	movs	r2, #2
 306:	701a      	strb	r2, [r3, #0]
C:\tien\PROJEKTY\procesory\STM\T108_V100a\sources/sys.c:1323
                    }

                    RS485_Inverter_Error = FREQ1_CONNECTED;
 308:	2200      	movs	r2, #0
 30a:	e025      	b.n	358 <RS485_Send+0x358>
C:\tien\PROJEKTY\procesory\STM\T108_V100a\sources/sys.c:1329
                break;

                case FREQ2_CONNECTED:
                    Uart_Tx_Packet.Uart_Buffer[0] = F2_ADDRESS;
                    Uart_Tx_Packet.Uart_Buffer[1] = FUN_TEST;
                    Uart_Tx_Packet.Uart_Buffer[2] = 0x00;
 30c:	2300      	movs	r3, #0
C:\tien\PROJEKTY\procesory\STM\T108_V100a\sources/sys.c:1328
                    RS485_Inverter_Error = FREQ1_CONNECTED;
                break;

                case FREQ2_CONNECTED:
                    Uart_Tx_Packet.Uart_Buffer[0] = F2_ADDRESS;
                    Uart_Tx_Packet.Uart_Buffer[1] = FUN_TEST;
 30e:	2208      	movs	r2, #8
C:\tien\PROJEKTY\procesory\STM\T108_V100a\sources/sys.c:1329
                    Uart_Tx_Packet.Uart_Buffer[2] = 0x00;
 310:	70b3      	strb	r3, [r6, #2]
C:\tien\PROJEKTY\procesory\STM\T108_V100a\sources/sys.c:1330
                    Uart_Tx_Packet.Uart_Buffer[3] = 0x00;
 312:	70f3      	strb	r3, [r6, #3]
C:\tien\PROJEKTY\procesory\STM\T108_V100a\sources/sys.c:1331
                    Uart_Tx_Packet.Uart_Buffer[4] = 0xa5;
 314:	f06f 035a 	mvn.w	r3, #90	; 0x5a
 318:	7133      	strb	r3, [r6, #4]
C:\tien\PROJEKTY\procesory\STM\T108_V100a\sources/sys.c:1334
                    Uart_Tx_Packet.Uart_Buffer[5] = 0x37;

                    RS485_Packet_Length = 8;            
 31a:	7002      	strb	r2, [r0, #0]
C:\tien\PROJEKTY\procesory\STM\T108_V100a\sources/sys.c:1332
                    Uart_Tx_Packet.Uart_Buffer[0] = F2_ADDRESS;
                    Uart_Tx_Packet.Uart_Buffer[1] = FUN_TEST;
                    Uart_Tx_Packet.Uart_Buffer[2] = 0x00;
                    Uart_Tx_Packet.Uart_Buffer[3] = 0x00;
                    Uart_Tx_Packet.Uart_Buffer[4] = 0xa5;
                    Uart_Tx_Packet.Uart_Buffer[5] = 0x37;
 31c:	3392      	adds	r3, #146
C:\tien\PROJEKTY\procesory\STM\T108_V100a\sources/sys.c:1335

                    RS485_Packet_Length = 8;            
                    Crc_value = CRC16_CCITT( Uart_Tx_Packet.Uart_Buffer, (RS485_Packet_Length-2));
 31e:	2106      	movs	r1, #6
C:\tien\PROJEKTY\procesory\STM\T108_V100a\sources/sys.c:1327

                    RS485_Inverter_Error = FREQ1_CONNECTED;
                break;

                case FREQ2_CONNECTED:
                    Uart_Tx_Packet.Uart_Buffer[0] = F2_ADDRESS;
 320:	2402      	movs	r4, #2
C:\tien\PROJEKTY\procesory\STM\T108_V100a\sources/sys.c:1335
                    Uart_Tx_Packet.Uart_Buffer[3] = 0x00;
                    Uart_Tx_Packet.Uart_Buffer[4] = 0xa5;
                    Uart_Tx_Packet.Uart_Buffer[5] = 0x37;

                    RS485_Packet_Length = 8;            
                    Crc_value = CRC16_CCITT( Uart_Tx_Packet.Uart_Buffer, (RS485_Packet_Length-2));
 322:	4858      	ldr	r0, [pc, #352]	(484 <RS485_Send+0x484>)
C:\tien\PROJEKTY\procesory\STM\T108_V100a\sources/sys.c:1332
                    Uart_Tx_Packet.Uart_Buffer[0] = F2_ADDRESS;
                    Uart_Tx_Packet.Uart_Buffer[1] = FUN_TEST;
                    Uart_Tx_Packet.Uart_Buffer[2] = 0x00;
                    Uart_Tx_Packet.Uart_Buffer[3] = 0x00;
                    Uart_Tx_Packet.Uart_Buffer[4] = 0xa5;
                    Uart_Tx_Packet.Uart_Buffer[5] = 0x37;
 324:	7173      	strb	r3, [r6, #5]
C:\tien\PROJEKTY\procesory\STM\T108_V100a\sources/sys.c:1327

                    RS485_Inverter_Error = FREQ1_CONNECTED;
                break;

                case FREQ2_CONNECTED:
                    Uart_Tx_Packet.Uart_Buffer[0] = F2_ADDRESS;
 326:	7034      	strb	r4, [r6, #0]
C:\tien\PROJEKTY\procesory\STM\T108_V100a\sources/sys.c:1328
                    Uart_Tx_Packet.Uart_Buffer[1] = FUN_TEST;
 328:	7072      	strb	r2, [r6, #1]
C:\tien\PROJEKTY\procesory\STM\T108_V100a\sources/sys.c:1335
                    Uart_Tx_Packet.Uart_Buffer[3] = 0x00;
                    Uart_Tx_Packet.Uart_Buffer[4] = 0xa5;
                    Uart_Tx_Packet.Uart_Buffer[5] = 0x37;

                    RS485_Packet_Length = 8;            
                    Crc_value = CRC16_CCITT( Uart_Tx_Packet.Uart_Buffer, (RS485_Packet_Length-2));
 32a:	f7ff fffe 	bl	0 <RS485_Send>
 32e:	4b57      	ldr	r3, [pc, #348]	(48c <RS485_Send+0x48c>)
C:\tien\PROJEKTY\procesory\STM\T108_V100a\sources/sys.c:1336
                    Uart_Tx_Packet.Uart_Buffer[6] = (uint8_t)(Crc_value & 0x00ff);
 330:	71b0      	strb	r0, [r6, #6]
C:\tien\PROJEKTY\procesory\STM\T108_V100a\sources/sys.c:1335
                    Uart_Tx_Packet.Uart_Buffer[3] = 0x00;
                    Uart_Tx_Packet.Uart_Buffer[4] = 0xa5;
                    Uart_Tx_Packet.Uart_Buffer[5] = 0x37;

                    RS485_Packet_Length = 8;            
                    Crc_value = CRC16_CCITT( Uart_Tx_Packet.Uart_Buffer, (RS485_Packet_Length-2));
 332:	8018      	strh	r0, [r3, #0]
C:\tien\PROJEKTY\procesory\STM\T108_V100a\sources/sys.c:1339
                    Uart_Tx_Packet.Uart_Buffer[6] = (uint8_t)(Crc_value & 0x00ff);
                    Uart_Tx_Packet.Uart_Buffer[7] = (uint8_t)(Crc_value >> 8 ) & 0x00ff;
        
                    if ( Motors_Enable == 0 )
 334:	4b56      	ldr	r3, [pc, #344]	(490 <RS485_Send+0x490>)
C:\tien\PROJEKTY\procesory\STM\T108_V100a\sources/sys.c:1337
                    Uart_Tx_Packet.Uart_Buffer[5] = 0x37;

                    RS485_Packet_Length = 8;            
                    Crc_value = CRC16_CCITT( Uart_Tx_Packet.Uart_Buffer, (RS485_Packet_Length-2));
                    Uart_Tx_Packet.Uart_Buffer[6] = (uint8_t)(Crc_value & 0x00ff);
                    Uart_Tx_Packet.Uart_Buffer[7] = (uint8_t)(Crc_value >> 8 ) & 0x00ff;
 336:	0a00      	lsrs	r0, r0, #8
C:\tien\PROJEKTY\procesory\STM\T108_V100a\sources/sys.c:1339
        
                    if ( Motors_Enable == 0 )
 338:	7819      	ldrb	r1, [r3, #0]
C:\tien\PROJEKTY\procesory\STM\T108_V100a\sources/sys.c:1337
                    Uart_Tx_Packet.Uart_Buffer[5] = 0x37;

                    RS485_Packet_Length = 8;            
                    Crc_value = CRC16_CCITT( Uart_Tx_Packet.Uart_Buffer, (RS485_Packet_Length-2));
                    Uart_Tx_Packet.Uart_Buffer[6] = (uint8_t)(Crc_value & 0x00ff);
                    Uart_Tx_Packet.Uart_Buffer[7] = (uint8_t)(Crc_value >> 8 ) & 0x00ff;
 33a:	71f0      	strb	r0, [r6, #7]
C:\tien\PROJEKTY\procesory\STM\T108_V100a\sources/sys.c:1339
        
                    if ( Motors_Enable == 0 )
 33c:	b949      	cbnz	r1, 352 <RS485_Send+0x352>
C:\tien\PROJEKTY\procesory\STM\T108_V100a\sources/sys.c:1341
                    {
                        if ( INV_PROGRAMMING == TRUE )
 33e:	4b56      	ldr	r3, [pc, #344]	(498 <RS485_Send+0x498>)
 340:	4a4f      	ldr	r2, [pc, #316]	(480 <RS485_Send+0x480>)
 342:	781b      	ldrb	r3, [r3, #0]
 344:	2b01      	cmp	r3, #1
 346:	d102      	bne.n	34e <RS485_Send+0x34e>
C:\tien\PROJEKTY\procesory\STM\T108_V100a\sources/sys.c:1343
                        {
                            RS485_Inverter_Counter = FREQ1_SET;
 348:	3304      	adds	r3, #4
 34a:	7013      	strb	r3, [r2, #0]
 34c:	e003      	b.n	356 <RS485_Send+0x356>
C:\tien\PROJEKTY\procesory\STM\T108_V100a\sources/sys.c:1347
                        }
                        else
                        {
                            RS485_Inverter_Counter = FREQ1_CONNECTED;
 34e:	7011      	strb	r1, [r2, #0]
 350:	e001      	b.n	356 <RS485_Send+0x356>
C:\tien\PROJEKTY\procesory\STM\T108_V100a\sources/sys.c:1352
                        }
                    }
                    else
                    {
                        RS485_Inverter_Counter = FREQ1_START_STOP;
 352:	4b4b      	ldr	r3, [pc, #300]	(480 <RS485_Send+0x480>)
 354:	701c      	strb	r4, [r3, #0]
C:\tien\PROJEKTY\procesory\STM\T108_V100a\sources/sys.c:1355
                    }
                
                    RS485_Inverter_Error = FREQ2_CONNECTED;            
 356:	2201      	movs	r2, #1
 358:	4b50      	ldr	r3, [pc, #320]	(49c <RS485_Send+0x49c>)
 35a:	701a      	strb	r2, [r3, #0]
 35c:	e134      	b.n	5c8 <RS485_Send+0x5c8>
C:\tien\PROJEKTY\procesory\STM\T108_V100a\sources/sys.c:1360
                break;  
            
                case FREQ1_START_STOP:
                    Uart_Tx_Packet.Uart_Buffer[0] = F1_ADDRESS;
                    Uart_Tx_Packet.Uart_Buffer[1] = FUN_WRITE;
 35e:	2310      	movs	r3, #16
 360:	7073      	strb	r3, [r6, #1]
C:\tien\PROJEKTY\procesory\STM\T108_V100a\sources/sys.c:1365
                    Uart_Tx_Packet.Uart_Buffer[2] = 0x00;
                    Uart_Tx_Packet.Uart_Buffer[3] = 0x01;
                    Uart_Tx_Packet.Uart_Buffer[4] = 0x00;
                    Uart_Tx_Packet.Uart_Buffer[5] = 0x02;
                    Uart_Tx_Packet.Uart_Buffer[6] = 0x04;
 362:	2304      	movs	r3, #4
 364:	71b3      	strb	r3, [r6, #6]
C:\tien\PROJEKTY\procesory\STM\T108_V100a\sources/sys.c:1368
                    Uart_Tx_Packet.Uart_Buffer[7] = 0x00;
                
                    if ( Motors_Enable & MOTOR_1_OPENING )
 366:	4b4a      	ldr	r3, [pc, #296]	(490 <RS485_Send+0x490>)
C:\tien\PROJEKTY\procesory\STM\T108_V100a\sources/sys.c:1361
                break;  
            
                case FREQ1_START_STOP:
                    Uart_Tx_Packet.Uart_Buffer[0] = F1_ADDRESS;
                    Uart_Tx_Packet.Uart_Buffer[1] = FUN_WRITE;
                    Uart_Tx_Packet.Uart_Buffer[2] = 0x00;
 368:	2200      	movs	r2, #0
C:\tien\PROJEKTY\procesory\STM\T108_V100a\sources/sys.c:1368
                    Uart_Tx_Packet.Uart_Buffer[4] = 0x00;
                    Uart_Tx_Packet.Uart_Buffer[5] = 0x02;
                    Uart_Tx_Packet.Uart_Buffer[6] = 0x04;
                    Uart_Tx_Packet.Uart_Buffer[7] = 0x00;
                
                    if ( Motors_Enable & MOTOR_1_OPENING )
 36a:	781b      	ldrb	r3, [r3, #0]
C:\tien\PROJEKTY\procesory\STM\T108_V100a\sources/sys.c:1359
                
                    RS485_Inverter_Error = FREQ2_CONNECTED;            
                break;  
            
                case FREQ1_START_STOP:
                    Uart_Tx_Packet.Uart_Buffer[0] = F1_ADDRESS;
 36c:	2101      	movs	r1, #1
C:\tien\PROJEKTY\procesory\STM\T108_V100a\sources/sys.c:1364
                    Uart_Tx_Packet.Uart_Buffer[1] = FUN_WRITE;
                    Uart_Tx_Packet.Uart_Buffer[2] = 0x00;
                    Uart_Tx_Packet.Uart_Buffer[3] = 0x01;
                    Uart_Tx_Packet.Uart_Buffer[4] = 0x00;
                    Uart_Tx_Packet.Uart_Buffer[5] = 0x02;
 36e:	2402      	movs	r4, #2
C:\tien\PROJEKTY\procesory\STM\T108_V100a\sources/sys.c:1368
                    Uart_Tx_Packet.Uart_Buffer[6] = 0x04;
                    Uart_Tx_Packet.Uart_Buffer[7] = 0x00;
                
                    if ( Motors_Enable & MOTOR_1_OPENING )
 370:	f013 0f01 	tst.w	r3, #1	; 0x1
C:\tien\PROJEKTY\procesory\STM\T108_V100a\sources/sys.c:1359
                
                    RS485_Inverter_Error = FREQ2_CONNECTED;            
                break;  
            
                case FREQ1_START_STOP:
                    Uart_Tx_Packet.Uart_Buffer[0] = F1_ADDRESS;
 374:	4843      	ldr	r0, [pc, #268]	(484 <RS485_Send+0x484>)
 376:	7031      	strb	r1, [r6, #0]
C:\tien\PROJEKTY\procesory\STM\T108_V100a\sources/sys.c:1361
                    Uart_Tx_Packet.Uart_Buffer[1] = FUN_WRITE;
                    Uart_Tx_Packet.Uart_Buffer[2] = 0x00;
 378:	70b2      	strb	r2, [r6, #2]
C:\tien\PROJEKTY\procesory\STM\T108_V100a\sources/sys.c:1362
                    Uart_Tx_Packet.Uart_Buffer[3] = 0x01;
 37a:	70f1      	strb	r1, [r6, #3]
C:\tien\PROJEKTY\procesory\STM\T108_V100a\sources/sys.c:1363
                    Uart_Tx_Packet.Uart_Buffer[4] = 0x00;
 37c:	7132      	strb	r2, [r6, #4]
C:\tien\PROJEKTY\procesory\STM\T108_V100a\sources/sys.c:1364
                    Uart_Tx_Packet.Uart_Buffer[5] = 0x02;
 37e:	7174      	strb	r4, [r6, #5]
C:\tien\PROJEKTY\procesory\STM\T108_V100a\sources/sys.c:1366
                    Uart_Tx_Packet.Uart_Buffer[6] = 0x04;
                    Uart_Tx_Packet.Uart_Buffer[7] = 0x00;
 380:	71f2      	strb	r2, [r6, #7]
C:\tien\PROJEKTY\procesory\STM\T108_V100a\sources/sys.c:1368
                
                    if ( Motors_Enable & MOTOR_1_OPENING )
 382:	d001      	beq.n	388 <RS485_Send+0x388>
C:\tien\PROJEKTY\procesory\STM\T108_V100a\sources/sys.c:1369
                        Uart_Tx_Packet.Uart_Buffer[8] = FWD_RUN;
 384:	7201      	strb	r1, [r0, #8]
 386:	e004      	b.n	392 <RS485_Send+0x392>
C:\tien\PROJEKTY\procesory\STM\T108_V100a\sources/sys.c:1370
                    else if ( Motors_Enable & MOTOR_1_CLOSING )
 388:	f013 0310 	ands.w	r3, r3, #16	; 0x10
C:\tien\PROJEKTY\procesory\STM\T108_V100a\sources/sys.c:1371
                        Uart_Tx_Packet.Uart_Buffer[8] = REV_RUN;
 38c:	bf14      	ite	ne
 38e:	7204      	strbne	r4, [r0, #8]
C:\tien\PROJEKTY\procesory\STM\T108_V100a\sources/sys.c:1373
                    else
                        Uart_Tx_Packet.Uart_Buffer[8] = STOP_RUN;
 390:	7203      	strbeq	r3, [r0, #8]
C:\tien\PROJEKTY\procesory\STM\T108_V100a\sources/sys.c:1375
                        
                    if ( Uart_Tx_Packet.Uart_Buffer[8] == STOP_RUN )
 392:	493c      	ldr	r1, [pc, #240]	(484 <RS485_Send+0x484>)
 394:	7a0b      	ldrb	r3, [r1, #8]
 396:	b913      	cbnz	r3, 39e <RS485_Send+0x39e>
C:\tien\PROJEKTY\procesory\STM\T108_V100a\sources/sys.c:1377
                    {
                        Uart_Tx_Packet.Uart_Buffer[9] = 0;
 398:	724b      	strb	r3, [r1, #9]
C:\tien\PROJEKTY\procesory\STM\T108_V100a\sources/sys.c:1378
                        Uart_Tx_Packet.Uart_Buffer[10] = 0;
 39a:	728b      	strb	r3, [r1, #10]
 39c:	e004      	b.n	3a8 <RS485_Send+0x3a8>
C:\tien\PROJEKTY\procesory\STM\T108_V100a\sources/sys.c:1382
                    }
                    else
                    {
                        Uart_Tx_Packet.Uart_Buffer[9] = ((Controller_Variables.Controller_Vars.Frequency1 >>8) & 0x00FF);
 39e:	4b36      	ldr	r3, [pc, #216]	(478 <RS485_Send+0x478>)
 3a0:	8e9a      	ldrh	r2, [r3, #52]
 3a2:	0a13      	lsrs	r3, r2, #8
 3a4:	724b      	strb	r3, [r1, #9]
C:\tien\PROJEKTY\procesory\STM\T108_V100a\sources/sys.c:1383
                        Uart_Tx_Packet.Uart_Buffer[10] = (Controller_Variables.Controller_Vars.Frequency1 & 0x00FF);
 3a6:	728a      	strb	r2, [r1, #10]
C:\tien\PROJEKTY\procesory\STM\T108_V100a\sources/sys.c:1386
                    }

                    RS485_Packet_Length = 13;
 3a8:	4b37      	ldr	r3, [pc, #220]	(488 <RS485_Send+0x488>)
C:\tien\PROJEKTY\procesory\STM\T108_V100a\sources/sys.c:1387
                    Crc_value = CRC16_CCITT( Uart_Tx_Packet.Uart_Buffer, (RS485_Packet_Length-2));
 3aa:	4c36      	ldr	r4, [pc, #216]	(484 <RS485_Send+0x484>)
C:\tien\PROJEKTY\procesory\STM\T108_V100a\sources/sys.c:1386
                    {
                        Uart_Tx_Packet.Uart_Buffer[9] = ((Controller_Variables.Controller_Vars.Frequency1 >>8) & 0x00FF);
                        Uart_Tx_Packet.Uart_Buffer[10] = (Controller_Variables.Controller_Vars.Frequency1 & 0x00FF);
                    }

                    RS485_Packet_Length = 13;
 3ac:	220d      	movs	r2, #13
 3ae:	701a      	strb	r2, [r3, #0]
C:\tien\PROJEKTY\procesory\STM\T108_V100a\sources/sys.c:1387
                    Crc_value = CRC16_CCITT( Uart_Tx_Packet.Uart_Buffer, (RS485_Packet_Length-2));
 3b0:	4620      	mov	r0, r4
 3b2:	210b      	movs	r1, #11
 3b4:	f7ff fffe 	bl	0 <RS485_Send>
 3b8:	4b34      	ldr	r3, [pc, #208]	(48c <RS485_Send+0x48c>)
C:\tien\PROJEKTY\procesory\STM\T108_V100a\sources/sys.c:1402
                    {
                        RS485_Inverter_Counter = FREQ1_START_STOP;           
                    }
                */
                
                    RS485_Inverter_Counter = FREQ1_MONITORING;
 3ba:	2207      	movs	r2, #7
C:\tien\PROJEKTY\procesory\STM\T108_V100a\sources/sys.c:1387
                        Uart_Tx_Packet.Uart_Buffer[9] = ((Controller_Variables.Controller_Vars.Frequency1 >>8) & 0x00FF);
                        Uart_Tx_Packet.Uart_Buffer[10] = (Controller_Variables.Controller_Vars.Frequency1 & 0x00FF);
                    }

                    RS485_Packet_Length = 13;
                    Crc_value = CRC16_CCITT( Uart_Tx_Packet.Uart_Buffer, (RS485_Packet_Length-2));
 3bc:	8018      	strh	r0, [r3, #0]
C:\tien\PROJEKTY\procesory\STM\T108_V100a\sources/sys.c:1402
                    {
                        RS485_Inverter_Counter = FREQ1_START_STOP;           
                    }
                */
                
                    RS485_Inverter_Counter = FREQ1_MONITORING;
 3be:	4b30      	ldr	r3, [pc, #192]	(480 <RS485_Send+0x480>)
C:\tien\PROJEKTY\procesory\STM\T108_V100a\sources/sys.c:1388
                        Uart_Tx_Packet.Uart_Buffer[10] = (Controller_Variables.Controller_Vars.Frequency1 & 0x00FF);
                    }

                    RS485_Packet_Length = 13;
                    Crc_value = CRC16_CCITT( Uart_Tx_Packet.Uart_Buffer, (RS485_Packet_Length-2));
                    Uart_Tx_Packet.Uart_Buffer[11] = (uint8_t)(Crc_value & 0x00ff);
 3c0:	72e0      	strb	r0, [r4, #11]
C:\tien\PROJEKTY\procesory\STM\T108_V100a\sources/sys.c:1389
                    Uart_Tx_Packet.Uart_Buffer[12] = (uint8_t)(Crc_value >> 8 ) & 0x00ff;
 3c2:	0a00      	lsrs	r0, r0, #8
C:\tien\PROJEKTY\procesory\STM\T108_V100a\sources/sys.c:1402
                    {
                        RS485_Inverter_Counter = FREQ1_START_STOP;           
                    }
                */
                
                    RS485_Inverter_Counter = FREQ1_MONITORING;
 3c4:	701a      	strb	r2, [r3, #0]
C:\tien\PROJEKTY\procesory\STM\T108_V100a\sources/sys.c:1389
                    }

                    RS485_Packet_Length = 13;
                    Crc_value = CRC16_CCITT( Uart_Tx_Packet.Uart_Buffer, (RS485_Packet_Length-2));
                    Uart_Tx_Packet.Uart_Buffer[11] = (uint8_t)(Crc_value & 0x00ff);
                    Uart_Tx_Packet.Uart_Buffer[12] = (uint8_t)(Crc_value >> 8 ) & 0x00ff;
 3c6:	7320      	strb	r0, [r4, #12]
C:\tien\PROJEKTY\procesory\STM\T108_V100a\sources/sys.c:1403
                        RS485_Inverter_Counter = FREQ1_START_STOP;           
                    }
                */
                
                    RS485_Inverter_Counter = FREQ1_MONITORING;
                    RS485_Inverter_Error = FREQ1_START_STOP;
 3c8:	2202      	movs	r2, #2
 3ca:	e7c5      	b.n	358 <RS485_Send+0x358>
C:\tien\PROJEKTY\procesory\STM\T108_V100a\sources/sys.c:1408
                break;

                case FREQ2_START_STOP:
                    Uart_Tx_Packet.Uart_Buffer[0] = F2_ADDRESS;
                    Uart_Tx_Packet.Uart_Buffer[1] = FUN_WRITE;
 3cc:	2310      	movs	r3, #16
 3ce:	7073      	strb	r3, [r6, #1]
C:\tien\PROJEKTY\procesory\STM\T108_V100a\sources/sys.c:1413
                    Uart_Tx_Packet.Uart_Buffer[2] = 0x00;
                    Uart_Tx_Packet.Uart_Buffer[3] = 0x01;
                    Uart_Tx_Packet.Uart_Buffer[4] = 0x00;
                    Uart_Tx_Packet.Uart_Buffer[5] = 0x02;
                    Uart_Tx_Packet.Uart_Buffer[6] = 0x04;
 3d0:	2304      	movs	r3, #4
 3d2:	71b3      	strb	r3, [r6, #6]
C:\tien\PROJEKTY\procesory\STM\T108_V100a\sources/sys.c:1416
                    Uart_Tx_Packet.Uart_Buffer[7] = 0x00;
                
                    if ( Motors_Enable & MOTOR_2_OPENING )
 3d4:	4b2e      	ldr	r3, [pc, #184]	(490 <RS485_Send+0x490>)
C:\tien\PROJEKTY\procesory\STM\T108_V100a\sources/sys.c:1409
                break;

                case FREQ2_START_STOP:
                    Uart_Tx_Packet.Uart_Buffer[0] = F2_ADDRESS;
                    Uart_Tx_Packet.Uart_Buffer[1] = FUN_WRITE;
                    Uart_Tx_Packet.Uart_Buffer[2] = 0x00;
 3d6:	2200      	movs	r2, #0
C:\tien\PROJEKTY\procesory\STM\T108_V100a\sources/sys.c:1416
                    Uart_Tx_Packet.Uart_Buffer[4] = 0x00;
                    Uart_Tx_Packet.Uart_Buffer[5] = 0x02;
                    Uart_Tx_Packet.Uart_Buffer[6] = 0x04;
                    Uart_Tx_Packet.Uart_Buffer[7] = 0x00;
                
                    if ( Motors_Enable & MOTOR_2_OPENING )
 3d8:	781b      	ldrb	r3, [r3, #0]
C:\tien\PROJEKTY\procesory\STM\T108_V100a\sources/sys.c:1407
                    RS485_Inverter_Counter = FREQ1_MONITORING;
                    RS485_Inverter_Error = FREQ1_START_STOP;
                break;

                case FREQ2_START_STOP:
                    Uart_Tx_Packet.Uart_Buffer[0] = F2_ADDRESS;
 3da:	2102      	movs	r1, #2
C:\tien\PROJEKTY\procesory\STM\T108_V100a\sources/sys.c:1410
                    Uart_Tx_Packet.Uart_Buffer[1] = FUN_WRITE;
                    Uart_Tx_Packet.Uart_Buffer[2] = 0x00;
                    Uart_Tx_Packet.Uart_Buffer[3] = 0x01;
 3dc:	2401      	movs	r4, #1
C:\tien\PROJEKTY\procesory\STM\T108_V100a\sources/sys.c:1416
                    Uart_Tx_Packet.Uart_Buffer[4] = 0x00;
                    Uart_Tx_Packet.Uart_Buffer[5] = 0x02;
                    Uart_Tx_Packet.Uart_Buffer[6] = 0x04;
                    Uart_Tx_Packet.Uart_Buffer[7] = 0x00;
                
                    if ( Motors_Enable & MOTOR_2_OPENING )
 3de:	f013 0f02 	tst.w	r3, #2	; 0x2
C:\tien\PROJEKTY\procesory\STM\T108_V100a\sources/sys.c:1407
                    RS485_Inverter_Counter = FREQ1_MONITORING;
                    RS485_Inverter_Error = FREQ1_START_STOP;
                break;

                case FREQ2_START_STOP:
                    Uart_Tx_Packet.Uart_Buffer[0] = F2_ADDRESS;
 3e2:	4828      	ldr	r0, [pc, #160]	(484 <RS485_Send+0x484>)
 3e4:	7031      	strb	r1, [r6, #0]
C:\tien\PROJEKTY\procesory\STM\T108_V100a\sources/sys.c:1409
                    Uart_Tx_Packet.Uart_Buffer[1] = FUN_WRITE;
                    Uart_Tx_Packet.Uart_Buffer[2] = 0x00;
 3e6:	70b2      	strb	r2, [r6, #2]
C:\tien\PROJEKTY\procesory\STM\T108_V100a\sources/sys.c:1410
                    Uart_Tx_Packet.Uart_Buffer[3] = 0x01;
 3e8:	70f4      	strb	r4, [r6, #3]
C:\tien\PROJEKTY\procesory\STM\T108_V100a\sources/sys.c:1411
                    Uart_Tx_Packet.Uart_Buffer[4] = 0x00;
 3ea:	7132      	strb	r2, [r6, #4]
C:\tien\PROJEKTY\procesory\STM\T108_V100a\sources/sys.c:1412
                    Uart_Tx_Packet.Uart_Buffer[5] = 0x02;
 3ec:	7171      	strb	r1, [r6, #5]
C:\tien\PROJEKTY\procesory\STM\T108_V100a\sources/sys.c:1414
                    Uart_Tx_Packet.Uart_Buffer[6] = 0x04;
                    Uart_Tx_Packet.Uart_Buffer[7] = 0x00;
 3ee:	71f2      	strb	r2, [r6, #7]
C:\tien\PROJEKTY\procesory\STM\T108_V100a\sources/sys.c:1416
                
                    if ( Motors_Enable & MOTOR_2_OPENING )
 3f0:	d001      	beq.n	3f6 <RS485_Send+0x3f6>
C:\tien\PROJEKTY\procesory\STM\T108_V100a\sources/sys.c:1417
                        Uart_Tx_Packet.Uart_Buffer[8] = REV_RUN;
 3f2:	7201      	strb	r1, [r0, #8]
 3f4:	e004      	b.n	400 <RS485_Send+0x400>
C:\tien\PROJEKTY\procesory\STM\T108_V100a\sources/sys.c:1418
                    else if ( Motors_Enable & MOTOR_2_CLOSING )
 3f6:	f013 0320 	ands.w	r3, r3, #32	; 0x20
C:\tien\PROJEKTY\procesory\STM\T108_V100a\sources/sys.c:1419
                        Uart_Tx_Packet.Uart_Buffer[8] = FWD_RUN;
 3fa:	bf14      	ite	ne
 3fc:	7204      	strbne	r4, [r0, #8]
C:\tien\PROJEKTY\procesory\STM\T108_V100a\sources/sys.c:1421
                    else
                        Uart_Tx_Packet.Uart_Buffer[8] = STOP_RUN;
 3fe:	7203      	strbeq	r3, [r0, #8]
C:\tien\PROJEKTY\procesory\STM\T108_V100a\sources/sys.c:1423

                    if ( Uart_Tx_Packet.Uart_Buffer[8] == STOP_RUN )
 400:	4920      	ldr	r1, [pc, #128]	(484 <RS485_Send+0x484>)
 402:	7a0b      	ldrb	r3, [r1, #8]
 404:	b913      	cbnz	r3, 40c <RS485_Send+0x40c>
C:\tien\PROJEKTY\procesory\STM\T108_V100a\sources/sys.c:1425
                    {
                        Uart_Tx_Packet.Uart_Buffer[9] = 0;
 406:	724b      	strb	r3, [r1, #9]
C:\tien\PROJEKTY\procesory\STM\T108_V100a\sources/sys.c:1426
                        Uart_Tx_Packet.Uart_Buffer[10] = 0;
 408:	728b      	strb	r3, [r1, #10]
 40a:	e004      	b.n	416 <RS485_Send+0x416>
C:\tien\PROJEKTY\procesory\STM\T108_V100a\sources/sys.c:1430
                    }
                    else
                    {
                        Uart_Tx_Packet.Uart_Buffer[9] = ((Controller_Variables.Controller_Vars.Frequency2 >>8) & 0x00FF);
 40c:	4b1a      	ldr	r3, [pc, #104]	(478 <RS485_Send+0x478>)
 40e:	8eda      	ldrh	r2, [r3, #54]
 410:	0a13      	lsrs	r3, r2, #8
 412:	724b      	strb	r3, [r1, #9]
C:\tien\PROJEKTY\procesory\STM\T108_V100a\sources/sys.c:1431
                        Uart_Tx_Packet.Uart_Buffer[10] = (Controller_Variables.Controller_Vars.Frequency2 & 0x00FF);
 414:	728a      	strb	r2, [r1, #10]
C:\tien\PROJEKTY\procesory\STM\T108_V100a\sources/sys.c:1434
                    }
                
                    RS485_Packet_Length = 13;
 416:	4b1c      	ldr	r3, [pc, #112]	(488 <RS485_Send+0x488>)
C:\tien\PROJEKTY\procesory\STM\T108_V100a\sources/sys.c:1435
                    Crc_value = CRC16_CCITT( Uart_Tx_Packet.Uart_Buffer, (RS485_Packet_Length-2));
 418:	4c1a      	ldr	r4, [pc, #104]	(484 <RS485_Send+0x484>)
C:\tien\PROJEKTY\procesory\STM\T108_V100a\sources/sys.c:1434
                    {
                        Uart_Tx_Packet.Uart_Buffer[9] = ((Controller_Variables.Controller_Vars.Frequency2 >>8) & 0x00FF);
                        Uart_Tx_Packet.Uart_Buffer[10] = (Controller_Variables.Controller_Vars.Frequency2 & 0x00FF);
                    }
                
                    RS485_Packet_Length = 13;
 41a:	220d      	movs	r2, #13
 41c:	701a      	strb	r2, [r3, #0]
C:\tien\PROJEKTY\procesory\STM\T108_V100a\sources/sys.c:1435
                    Crc_value = CRC16_CCITT( Uart_Tx_Packet.Uart_Buffer, (RS485_Packet_Length-2));
 41e:	4620      	mov	r0, r4
 420:	210b      	movs	r1, #11
 422:	f7ff fffe 	bl	0 <RS485_Send>
 426:	4b19      	ldr	r3, [pc, #100]	(48c <RS485_Send+0x48c>)
C:\tien\PROJEKTY\procesory\STM\T108_V100a\sources/sys.c:1439
                    Uart_Tx_Packet.Uart_Buffer[11] = (uint8_t)(Crc_value & 0x00ff);
                    Uart_Tx_Packet.Uart_Buffer[12] = (uint8_t)(Crc_value >> 8 ) & 0x00ff;
                
                    RS485_Inverter_Counter = FREQ2_MONITORING;
 428:	2208      	movs	r2, #8
C:\tien\PROJEKTY\procesory\STM\T108_V100a\sources/sys.c:1435
                        Uart_Tx_Packet.Uart_Buffer[9] = ((Controller_Variables.Controller_Vars.Frequency2 >>8) & 0x00FF);
                        Uart_Tx_Packet.Uart_Buffer[10] = (Controller_Variables.Controller_Vars.Frequency2 & 0x00FF);
                    }
                
                    RS485_Packet_Length = 13;
                    Crc_value = CRC16_CCITT( Uart_Tx_Packet.Uart_Buffer, (RS485_Packet_Length-2));
 42a:	8018      	strh	r0, [r3, #0]
C:\tien\PROJEKTY\procesory\STM\T108_V100a\sources/sys.c:1439
                    Uart_Tx_Packet.Uart_Buffer[11] = (uint8_t)(Crc_value & 0x00ff);
                    Uart_Tx_Packet.Uart_Buffer[12] = (uint8_t)(Crc_value >> 8 ) & 0x00ff;
                
                    RS485_Inverter_Counter = FREQ2_MONITORING;
 42c:	4b14      	ldr	r3, [pc, #80]	(480 <RS485_Send+0x480>)
C:\tien\PROJEKTY\procesory\STM\T108_V100a\sources/sys.c:1436
                        Uart_Tx_Packet.Uart_Buffer[10] = (Controller_Variables.Controller_Vars.Frequency2 & 0x00FF);
                    }
                
                    RS485_Packet_Length = 13;
                    Crc_value = CRC16_CCITT( Uart_Tx_Packet.Uart_Buffer, (RS485_Packet_Length-2));
                    Uart_Tx_Packet.Uart_Buffer[11] = (uint8_t)(Crc_value & 0x00ff);
 42e:	72e0      	strb	r0, [r4, #11]
C:\tien\PROJEKTY\procesory\STM\T108_V100a\sources/sys.c:1437
                    Uart_Tx_Packet.Uart_Buffer[12] = (uint8_t)(Crc_value >> 8 ) & 0x00ff;
 430:	0a00      	lsrs	r0, r0, #8
C:\tien\PROJEKTY\procesory\STM\T108_V100a\sources/sys.c:1439
                
                    RS485_Inverter_Counter = FREQ2_MONITORING;
 432:	701a      	strb	r2, [r3, #0]
C:\tien\PROJEKTY\procesory\STM\T108_V100a\sources/sys.c:1437
                    }
                
                    RS485_Packet_Length = 13;
                    Crc_value = CRC16_CCITT( Uart_Tx_Packet.Uart_Buffer, (RS485_Packet_Length-2));
                    Uart_Tx_Packet.Uart_Buffer[11] = (uint8_t)(Crc_value & 0x00ff);
                    Uart_Tx_Packet.Uart_Buffer[12] = (uint8_t)(Crc_value >> 8 ) & 0x00ff;
 434:	7320      	strb	r0, [r4, #12]
C:\tien\PROJEKTY\procesory\STM\T108_V100a\sources/sys.c:1440
                
                    RS485_Inverter_Counter = FREQ2_MONITORING;
                    RS485_Inverter_Error = FREQ2_START_STOP;
 436:	2203      	movs	r2, #3
 438:	e78e      	b.n	358 <RS485_Send+0x358>
C:\tien\PROJEKTY\procesory\STM\T108_V100a\sources/sys.c:1445
                break;

                case FREQ_STOP:
                    Uart_Tx_Packet.Uart_Buffer[0] = 0;
                    Uart_Tx_Packet.Uart_Buffer[1] = FUN_WRITE;
 43a:	2310      	movs	r3, #16
 43c:	7073      	strb	r3, [r6, #1]
C:\tien\PROJEKTY\procesory\STM\T108_V100a\sources/sys.c:1447
                    Uart_Tx_Packet.Uart_Buffer[2] = 0x00;
                    Uart_Tx_Packet.Uart_Buffer[3] = 0x01;
 43e:	2301      	movs	r3, #1
 440:	70f3      	strb	r3, [r6, #3]
C:\tien\PROJEKTY\procesory\STM\T108_V100a\sources/sys.c:1449
                    Uart_Tx_Packet.Uart_Buffer[4] = 0x00;
                    Uart_Tx_Packet.Uart_Buffer[5] = 0x01;
 442:	7173      	strb	r3, [r6, #5]
C:\tien\PROJEKTY\procesory\STM\T108_V100a\sources/sys.c:1450
                    Uart_Tx_Packet.Uart_Buffer[6] = 0x02;
 444:	18db      	adds	r3, r3, r3
 446:	71b3      	strb	r3, [r6, #6]
C:\tien\PROJEKTY\procesory\STM\T108_V100a\sources/sys.c:1454
                    Uart_Tx_Packet.Uart_Buffer[7] = 0x00;
                    Uart_Tx_Packet.Uart_Buffer[8] = STOP_RUN;

                    RS485_Packet_Length = 11;
 448:	3309      	adds	r3, #9
C:\tien\PROJEKTY\procesory\STM\T108_V100a\sources/sys.c:1444
                    RS485_Inverter_Counter = FREQ2_MONITORING;
                    RS485_Inverter_Error = FREQ2_START_STOP;
                break;

                case FREQ_STOP:
                    Uart_Tx_Packet.Uart_Buffer[0] = 0;
 44a:	2400      	movs	r4, #0
C:\tien\PROJEKTY\procesory\STM\T108_V100a\sources/sys.c:1454
                    Uart_Tx_Packet.Uart_Buffer[5] = 0x01;
                    Uart_Tx_Packet.Uart_Buffer[6] = 0x02;
                    Uart_Tx_Packet.Uart_Buffer[7] = 0x00;
                    Uart_Tx_Packet.Uart_Buffer[8] = STOP_RUN;

                    RS485_Packet_Length = 11;
 44c:	7003      	strb	r3, [r0, #0]
C:\tien\PROJEKTY\procesory\STM\T108_V100a\sources/sys.c:1455
                    Crc_value = CRC16_CCITT( Uart_Tx_Packet.Uart_Buffer, (RS485_Packet_Length-2));
 44e:	2109      	movs	r1, #9
 450:	480c      	ldr	r0, [pc, #48]	(484 <RS485_Send+0x484>)
C:\tien\PROJEKTY\procesory\STM\T108_V100a\sources/sys.c:1444
                    RS485_Inverter_Counter = FREQ2_MONITORING;
                    RS485_Inverter_Error = FREQ2_START_STOP;
                break;

                case FREQ_STOP:
                    Uart_Tx_Packet.Uart_Buffer[0] = 0;
 452:	7034      	strb	r4, [r6, #0]
C:\tien\PROJEKTY\procesory\STM\T108_V100a\sources/sys.c:1446
                    Uart_Tx_Packet.Uart_Buffer[1] = FUN_WRITE;
                    Uart_Tx_Packet.Uart_Buffer[2] = 0x00;
 454:	70b4      	strb	r4, [r6, #2]
C:\tien\PROJEKTY\procesory\STM\T108_V100a\sources/sys.c:1448
                    Uart_Tx_Packet.Uart_Buffer[3] = 0x01;
                    Uart_Tx_Packet.Uart_Buffer[4] = 0x00;
 456:	7134      	strb	r4, [r6, #4]
C:\tien\PROJEKTY\procesory\STM\T108_V100a\sources/sys.c:1451
                    Uart_Tx_Packet.Uart_Buffer[5] = 0x01;
                    Uart_Tx_Packet.Uart_Buffer[6] = 0x02;
                    Uart_Tx_Packet.Uart_Buffer[7] = 0x00;
 458:	71f4      	strb	r4, [r6, #7]
C:\tien\PROJEKTY\procesory\STM\T108_V100a\sources/sys.c:1452
                    Uart_Tx_Packet.Uart_Buffer[8] = STOP_RUN;
 45a:	7234      	strb	r4, [r6, #8]
C:\tien\PROJEKTY\procesory\STM\T108_V100a\sources/sys.c:1455

                    RS485_Packet_Length = 11;
                    Crc_value = CRC16_CCITT( Uart_Tx_Packet.Uart_Buffer, (RS485_Packet_Length-2));
 45c:	f7ff fffe 	bl	0 <RS485_Send>
 460:	4b0a      	ldr	r3, [pc, #40]	(48c <RS485_Send+0x48c>)
C:\tien\PROJEKTY\procesory\STM\T108_V100a\sources/sys.c:1456
                    Uart_Tx_Packet.Uart_Buffer[9] = (uint8_t)(Crc_value & 0x00ff);
 462:	7270      	strb	r0, [r6, #9]
C:\tien\PROJEKTY\procesory\STM\T108_V100a\sources/sys.c:1455
                    Uart_Tx_Packet.Uart_Buffer[6] = 0x02;
                    Uart_Tx_Packet.Uart_Buffer[7] = 0x00;
                    Uart_Tx_Packet.Uart_Buffer[8] = STOP_RUN;

                    RS485_Packet_Length = 11;
                    Crc_value = CRC16_CCITT( Uart_Tx_Packet.Uart_Buffer, (RS485_Packet_Length-2));
 464:	8018      	strh	r0, [r3, #0]
C:\tien\PROJEKTY\procesory\STM\T108_V100a\sources/sys.c:1459
                    Uart_Tx_Packet.Uart_Buffer[9] = (uint8_t)(Crc_value & 0x00ff);
                    Uart_Tx_Packet.Uart_Buffer[10] = (uint8_t)(Crc_value >> 8 ) & 0x00ff;
          
                    RS485_Inverter_Counter = FREQ1_CONNECTED;
 466:	4b06      	ldr	r3, [pc, #24]	(480 <RS485_Send+0x480>)
C:\tien\PROJEKTY\procesory\STM\T108_V100a\sources/sys.c:1457
                    Uart_Tx_Packet.Uart_Buffer[8] = STOP_RUN;

                    RS485_Packet_Length = 11;
                    Crc_value = CRC16_CCITT( Uart_Tx_Packet.Uart_Buffer, (RS485_Packet_Length-2));
                    Uart_Tx_Packet.Uart_Buffer[9] = (uint8_t)(Crc_value & 0x00ff);
                    Uart_Tx_Packet.Uart_Buffer[10] = (uint8_t)(Crc_value >> 8 ) & 0x00ff;
 468:	0a00      	lsrs	r0, r0, #8
 46a:	72b0      	strb	r0, [r6, #10]
C:\tien\PROJEKTY\procesory\STM\T108_V100a\sources/sys.c:1459
          
                    RS485_Inverter_Counter = FREQ1_CONNECTED;
 46c:	701c      	strb	r4, [r3, #0]
C:\tien\PROJEKTY\procesory\STM\T108_V100a\sources/sys.c:1460
                    RS485_Inverter_Error = FREQ_STOP; 
 46e:	2204      	movs	r2, #4
 470:	e772      	b.n	358 <RS485_Send+0x358>
 472:	46c0      	nop			(mov r8, r8)
	...
C:\tien\PROJEKTY\procesory\STM\T108_V100a\sources/sys.c:1471
                    Uart_Tx_Packet.Uart_Buffer[2] = 0x02;
                    Uart_Tx_Packet.Uart_Buffer[3] = 0x00;
                    Uart_Tx_Packet.Uart_Buffer[4] = 0x00;
                    Uart_Tx_Packet.Uart_Buffer[5] = 0x02;
                    Uart_Tx_Packet.Uart_Buffer[6] = 0x04;
                    Uart_Tx_Packet.Uart_Buffer[7] = (uint8_t)(Controlling_Variables.Ctrl_Vars.SoftStart >> 8 ) & 0x00ff;
 4a0:	4c50      	ldr	r4, [pc, #320]	(5e4 <RS485_Send+0x5e4>)
C:\tien\PROJEKTY\procesory\STM\T108_V100a\sources/sys.c:1464
                    RS485_Inverter_Counter = FREQ1_CONNECTED;
                    RS485_Inverter_Error = FREQ_STOP; 
                break;
                
                case FREQ1_SET:
                    Uart_Tx_Packet.Uart_Buffer[0] = F1_ADDRESS;
 4a2:	2301      	movs	r3, #1
 4a4:	7033      	strb	r3, [r6, #0]
C:\tien\PROJEKTY\procesory\STM\T108_V100a\sources/sys.c:1465
                    Uart_Tx_Packet.Uart_Buffer[1] = FUN_WRITE;
 4a6:	330f      	adds	r3, #15
C:\tien\PROJEKTY\procesory\STM\T108_V100a\sources/sys.c:1471
                    Uart_Tx_Packet.Uart_Buffer[2] = 0x02;
                    Uart_Tx_Packet.Uart_Buffer[3] = 0x00;
                    Uart_Tx_Packet.Uart_Buffer[4] = 0x00;
                    Uart_Tx_Packet.Uart_Buffer[5] = 0x02;
                    Uart_Tx_Packet.Uart_Buffer[6] = 0x04;
                    Uart_Tx_Packet.Uart_Buffer[7] = (uint8_t)(Controlling_Variables.Ctrl_Vars.SoftStart >> 8 ) & 0x00ff;
 4a8:	8c62      	ldrh	r2, [r4, #34]
C:\tien\PROJEKTY\procesory\STM\T108_V100a\sources/sys.c:1465
                    RS485_Inverter_Error = FREQ_STOP; 
                break;
                
                case FREQ1_SET:
                    Uart_Tx_Packet.Uart_Buffer[0] = F1_ADDRESS;
                    Uart_Tx_Packet.Uart_Buffer[1] = FUN_WRITE;
 4aa:	7073      	strb	r3, [r6, #1]
C:\tien\PROJEKTY\procesory\STM\T108_V100a\sources/sys.c:1466
                    Uart_Tx_Packet.Uart_Buffer[2] = 0x02;
 4ac:	2302      	movs	r3, #2
 4ae:	70b3      	strb	r3, [r6, #2]
C:\tien\PROJEKTY\procesory\STM\T108_V100a\sources/sys.c:1469
                    Uart_Tx_Packet.Uart_Buffer[3] = 0x00;
                    Uart_Tx_Packet.Uart_Buffer[4] = 0x00;
                    Uart_Tx_Packet.Uart_Buffer[5] = 0x02;
 4b0:	7173      	strb	r3, [r6, #5]
C:\tien\PROJEKTY\procesory\STM\T108_V100a\sources/sys.c:1470
                    Uart_Tx_Packet.Uart_Buffer[6] = 0x04;
 4b2:	18db      	adds	r3, r3, r3
 4b4:	71b3      	strb	r3, [r6, #6]
C:\tien\PROJEKTY\procesory\STM\T108_V100a\sources/sys.c:1472
                    Uart_Tx_Packet.Uart_Buffer[7] = (uint8_t)(Controlling_Variables.Ctrl_Vars.SoftStart >> 8 ) & 0x00ff;
                    Uart_Tx_Packet.Uart_Buffer[8] = (uint8_t)(Controlling_Variables.Ctrl_Vars.SoftStart & 0x00ff);
 4b6:	7232      	strb	r2, [r6, #8]
C:\tien\PROJEKTY\procesory\STM\T108_V100a\sources/sys.c:1471
                    Uart_Tx_Packet.Uart_Buffer[2] = 0x02;
                    Uart_Tx_Packet.Uart_Buffer[3] = 0x00;
                    Uart_Tx_Packet.Uart_Buffer[4] = 0x00;
                    Uart_Tx_Packet.Uart_Buffer[5] = 0x02;
                    Uart_Tx_Packet.Uart_Buffer[6] = 0x04;
                    Uart_Tx_Packet.Uart_Buffer[7] = (uint8_t)(Controlling_Variables.Ctrl_Vars.SoftStart >> 8 ) & 0x00ff;
 4b8:	0a13      	lsrs	r3, r2, #8
C:\tien\PROJEKTY\procesory\STM\T108_V100a\sources/sys.c:1473
                    Uart_Tx_Packet.Uart_Buffer[8] = (uint8_t)(Controlling_Variables.Ctrl_Vars.SoftStart & 0x00ff);
                    Uart_Tx_Packet.Uart_Buffer[9] = (uint8_t)(Controlling_Variables.Ctrl_Vars.SoftStop >> 8 ) & 0x00ff;
 4ba:	8ca2      	ldrh	r2, [r4, #36]
C:\tien\PROJEKTY\procesory\STM\T108_V100a\sources/sys.c:1471
                    Uart_Tx_Packet.Uart_Buffer[2] = 0x02;
                    Uart_Tx_Packet.Uart_Buffer[3] = 0x00;
                    Uart_Tx_Packet.Uart_Buffer[4] = 0x00;
                    Uart_Tx_Packet.Uart_Buffer[5] = 0x02;
                    Uart_Tx_Packet.Uart_Buffer[6] = 0x04;
                    Uart_Tx_Packet.Uart_Buffer[7] = (uint8_t)(Controlling_Variables.Ctrl_Vars.SoftStart >> 8 ) & 0x00ff;
 4bc:	71f3      	strb	r3, [r6, #7]
C:\tien\PROJEKTY\procesory\STM\T108_V100a\sources/sys.c:1473
                    Uart_Tx_Packet.Uart_Buffer[8] = (uint8_t)(Controlling_Variables.Ctrl_Vars.SoftStart & 0x00ff);
                    Uart_Tx_Packet.Uart_Buffer[9] = (uint8_t)(Controlling_Variables.Ctrl_Vars.SoftStop >> 8 ) & 0x00ff;
 4be:	0a13      	lsrs	r3, r2, #8
 4c0:	7273      	strb	r3, [r6, #9]
C:\tien\PROJEKTY\procesory\STM\T108_V100a\sources/sys.c:1476
                    Uart_Tx_Packet.Uart_Buffer[10] =(uint8_t)(Controlling_Variables.Ctrl_Vars.SoftStop & 0x00ff);
                
                    RS485_Packet_Length = 13;
 4c2:	230d      	movs	r3, #13
 4c4:	7003      	strb	r3, [r0, #0]
C:\tien\PROJEKTY\procesory\STM\T108_V100a\sources/sys.c:1467
                
                case FREQ1_SET:
                    Uart_Tx_Packet.Uart_Buffer[0] = F1_ADDRESS;
                    Uart_Tx_Packet.Uart_Buffer[1] = FUN_WRITE;
                    Uart_Tx_Packet.Uart_Buffer[2] = 0x02;
                    Uart_Tx_Packet.Uart_Buffer[3] = 0x00;
 4c6:	2500      	movs	r5, #0
C:\tien\PROJEKTY\procesory\STM\T108_V100a\sources/sys.c:1477
                    Uart_Tx_Packet.Uart_Buffer[8] = (uint8_t)(Controlling_Variables.Ctrl_Vars.SoftStart & 0x00ff);
                    Uart_Tx_Packet.Uart_Buffer[9] = (uint8_t)(Controlling_Variables.Ctrl_Vars.SoftStop >> 8 ) & 0x00ff;
                    Uart_Tx_Packet.Uart_Buffer[10] =(uint8_t)(Controlling_Variables.Ctrl_Vars.SoftStop & 0x00ff);
                
                    RS485_Packet_Length = 13;
                    Crc_value = CRC16_CCITT( Uart_Tx_Packet.Uart_Buffer, (RS485_Packet_Length-2));
 4c8:	4847      	ldr	r0, [pc, #284]	(5e8 <RS485_Send+0x5e8>)
 4ca:	210b      	movs	r1, #11
C:\tien\PROJEKTY\procesory\STM\T108_V100a\sources/sys.c:1467
                
                case FREQ1_SET:
                    Uart_Tx_Packet.Uart_Buffer[0] = F1_ADDRESS;
                    Uart_Tx_Packet.Uart_Buffer[1] = FUN_WRITE;
                    Uart_Tx_Packet.Uart_Buffer[2] = 0x02;
                    Uart_Tx_Packet.Uart_Buffer[3] = 0x00;
 4cc:	70f5      	strb	r5, [r6, #3]
C:\tien\PROJEKTY\procesory\STM\T108_V100a\sources/sys.c:1468
                    Uart_Tx_Packet.Uart_Buffer[4] = 0x00;
 4ce:	7135      	strb	r5, [r6, #4]
C:\tien\PROJEKTY\procesory\STM\T108_V100a\sources/sys.c:1474
                    Uart_Tx_Packet.Uart_Buffer[5] = 0x02;
                    Uart_Tx_Packet.Uart_Buffer[6] = 0x04;
                    Uart_Tx_Packet.Uart_Buffer[7] = (uint8_t)(Controlling_Variables.Ctrl_Vars.SoftStart >> 8 ) & 0x00ff;
                    Uart_Tx_Packet.Uart_Buffer[8] = (uint8_t)(Controlling_Variables.Ctrl_Vars.SoftStart & 0x00ff);
                    Uart_Tx_Packet.Uart_Buffer[9] = (uint8_t)(Controlling_Variables.Ctrl_Vars.SoftStop >> 8 ) & 0x00ff;
                    Uart_Tx_Packet.Uart_Buffer[10] =(uint8_t)(Controlling_Variables.Ctrl_Vars.SoftStop & 0x00ff);
 4d0:	72b2      	strb	r2, [r6, #10]
C:\tien\PROJEKTY\procesory\STM\T108_V100a\sources/sys.c:1477
                
                    RS485_Packet_Length = 13;
                    Crc_value = CRC16_CCITT( Uart_Tx_Packet.Uart_Buffer, (RS485_Packet_Length-2));
 4d2:	f7ff fffe 	bl	0 <RS485_Send>
 4d6:	4b45      	ldr	r3, [pc, #276]	(5ec <RS485_Send+0x5ec>)
C:\tien\PROJEKTY\procesory\STM\T108_V100a\sources/sys.c:1478
                    Uart_Tx_Packet.Uart_Buffer[11] = (uint8_t)(Crc_value & 0x00ff);
 4d8:	72f0      	strb	r0, [r6, #11]
C:\tien\PROJEKTY\procesory\STM\T108_V100a\sources/sys.c:1477
                    Uart_Tx_Packet.Uart_Buffer[8] = (uint8_t)(Controlling_Variables.Ctrl_Vars.SoftStart & 0x00ff);
                    Uart_Tx_Packet.Uart_Buffer[9] = (uint8_t)(Controlling_Variables.Ctrl_Vars.SoftStop >> 8 ) & 0x00ff;
                    Uart_Tx_Packet.Uart_Buffer[10] =(uint8_t)(Controlling_Variables.Ctrl_Vars.SoftStop & 0x00ff);
                
                    RS485_Packet_Length = 13;
                    Crc_value = CRC16_CCITT( Uart_Tx_Packet.Uart_Buffer, (RS485_Packet_Length-2));
 4da:	8018      	strh	r0, [r3, #0]
C:\tien\PROJEKTY\procesory\STM\T108_V100a\sources/sys.c:1481
                    Uart_Tx_Packet.Uart_Buffer[11] = (uint8_t)(Crc_value & 0x00ff);
                    Uart_Tx_Packet.Uart_Buffer[12] = (uint8_t)(Crc_value >> 8 ) & 0x00ff;

                    if ( Controlling_Variables.Ctrl_Vars.Fast_Gate_Type == 0 ) // Two wings gate
 4dc:	7ee3      	ldrb	r3, [r4, #27]
C:\tien\PROJEKTY\procesory\STM\T108_V100a\sources/sys.c:1479
                    Uart_Tx_Packet.Uart_Buffer[10] =(uint8_t)(Controlling_Variables.Ctrl_Vars.SoftStop & 0x00ff);
                
                    RS485_Packet_Length = 13;
                    Crc_value = CRC16_CCITT( Uart_Tx_Packet.Uart_Buffer, (RS485_Packet_Length-2));
                    Uart_Tx_Packet.Uart_Buffer[11] = (uint8_t)(Crc_value & 0x00ff);
                    Uart_Tx_Packet.Uart_Buffer[12] = (uint8_t)(Crc_value >> 8 ) & 0x00ff;
 4de:	0a00      	lsrs	r0, r0, #8
 4e0:	7330      	strb	r0, [r6, #12]
C:\tien\PROJEKTY\procesory\STM\T108_V100a\sources/sys.c:1481

                    if ( Controlling_Variables.Ctrl_Vars.Fast_Gate_Type == 0 ) // Two wings gate
 4e2:	b91b      	cbnz	r3, 4ec <RS485_Send+0x4ec>
C:\tien\PROJEKTY\procesory\STM\T108_V100a\sources/sys.c:1483
                    {  
                        RS485_Inverter_Counter = FREQ2_SET;
 4e4:	4b42      	ldr	r3, [pc, #264]	(5f0 <RS485_Send+0x5f0>)
 4e6:	2206      	movs	r2, #6
 4e8:	701a      	strb	r2, [r3, #0]
 4ea:	e007      	b.n	4fc <RS485_Send+0x4fc>
C:\tien\PROJEKTY\procesory\STM\T108_V100a\sources/sys.c:1485
                    }
                    else if ( Controlling_Variables.Ctrl_Vars.Fast_Gate_Type == 1 || // One wing gate
 4ec:	3b01      	subs	r3, #1
 4ee:	b2db      	uxtb	r3, r3
 4f0:	2b01      	cmp	r3, #1
 4f2:	d803      	bhi.n	4fc <RS485_Send+0x4fc>
C:\tien\PROJEKTY\procesory\STM\T108_V100a\sources/sys.c:1488
                              Controlling_Variables.Ctrl_Vars.Fast_Gate_Type == 2 )  // Sliding
                    {
                        RS485_Inverter_Counter = FREQ1_CONNECTED;
 4f4:	4b3e      	ldr	r3, [pc, #248]	(5f0 <RS485_Send+0x5f0>)
 4f6:	701d      	strb	r5, [r3, #0]
C:\tien\PROJEKTY\procesory\STM\T108_V100a\sources/sys.c:1489
                        INV_PROGRAMMING = FALSE;
 4f8:	4b3e      	ldr	r3, [pc, #248]	(5f4 <RS485_Send+0x5f4>)
 4fa:	701d      	strb	r5, [r3, #0]
C:\tien\PROJEKTY\procesory\STM\T108_V100a\sources/sys.c:1492
                    }

                    RS485_Inverter_Error = FREQ1_SET;            
 4fc:	2205      	movs	r2, #5
 4fe:	e72b      	b.n	358 <RS485_Send+0x358>
C:\tien\PROJEKTY\procesory\STM\T108_V100a\sources/sys.c:1503
                    Uart_Tx_Packet.Uart_Buffer[2] = 0x02;
                    Uart_Tx_Packet.Uart_Buffer[3] = 0x00;
                    Uart_Tx_Packet.Uart_Buffer[4] = 0x00;
                    Uart_Tx_Packet.Uart_Buffer[5] = 0x02;
                    Uart_Tx_Packet.Uart_Buffer[6] = 0x04;
                    Uart_Tx_Packet.Uart_Buffer[7] = (uint8_t)(Controlling_Variables.Ctrl_Vars.SoftStart >> 8 ) & 0x00ff;
 500:	4938      	ldr	r1, [pc, #224]	(5e4 <RS485_Send+0x5e4>)
C:\tien\PROJEKTY\procesory\STM\T108_V100a\sources/sys.c:1496

                    RS485_Inverter_Error = FREQ1_SET;            
                break;
                
                case FREQ2_SET:
                    Uart_Tx_Packet.Uart_Buffer[0] = F2_ADDRESS;
 502:	2202      	movs	r2, #2
 504:	7032      	strb	r2, [r6, #0]
C:\tien\PROJEKTY\procesory\STM\T108_V100a\sources/sys.c:1497
                    Uart_Tx_Packet.Uart_Buffer[1] = FUN_WRITE;
 506:	2310      	movs	r3, #16
C:\tien\PROJEKTY\procesory\STM\T108_V100a\sources/sys.c:1498
                    Uart_Tx_Packet.Uart_Buffer[2] = 0x02;
 508:	70b2      	strb	r2, [r6, #2]
C:\tien\PROJEKTY\procesory\STM\T108_V100a\sources/sys.c:1501
                    Uart_Tx_Packet.Uart_Buffer[3] = 0x00;
                    Uart_Tx_Packet.Uart_Buffer[4] = 0x00;
                    Uart_Tx_Packet.Uart_Buffer[5] = 0x02;
 50a:	7172      	strb	r2, [r6, #5]
C:\tien\PROJEKTY\procesory\STM\T108_V100a\sources/sys.c:1503
                    Uart_Tx_Packet.Uart_Buffer[6] = 0x04;
                    Uart_Tx_Packet.Uart_Buffer[7] = (uint8_t)(Controlling_Variables.Ctrl_Vars.SoftStart >> 8 ) & 0x00ff;
 50c:	8c4a      	ldrh	r2, [r1, #34]
C:\tien\PROJEKTY\procesory\STM\T108_V100a\sources/sys.c:1497
                    RS485_Inverter_Error = FREQ1_SET;            
                break;
                
                case FREQ2_SET:
                    Uart_Tx_Packet.Uart_Buffer[0] = F2_ADDRESS;
                    Uart_Tx_Packet.Uart_Buffer[1] = FUN_WRITE;
 50e:	7073      	strb	r3, [r6, #1]
C:\tien\PROJEKTY\procesory\STM\T108_V100a\sources/sys.c:1502
                    Uart_Tx_Packet.Uart_Buffer[2] = 0x02;
                    Uart_Tx_Packet.Uart_Buffer[3] = 0x00;
                    Uart_Tx_Packet.Uart_Buffer[4] = 0x00;
                    Uart_Tx_Packet.Uart_Buffer[5] = 0x02;
                    Uart_Tx_Packet.Uart_Buffer[6] = 0x04;
 510:	2304      	movs	r3, #4
 512:	71b3      	strb	r3, [r6, #6]
C:\tien\PROJEKTY\procesory\STM\T108_V100a\sources/sys.c:1504
                    Uart_Tx_Packet.Uart_Buffer[7] = (uint8_t)(Controlling_Variables.Ctrl_Vars.SoftStart >> 8 ) & 0x00ff;
                    Uart_Tx_Packet.Uart_Buffer[8] = (uint8_t)(Controlling_Variables.Ctrl_Vars.SoftStart & 0x00ff);
 514:	7232      	strb	r2, [r6, #8]
C:\tien\PROJEKTY\procesory\STM\T108_V100a\sources/sys.c:1503
                    Uart_Tx_Packet.Uart_Buffer[2] = 0x02;
                    Uart_Tx_Packet.Uart_Buffer[3] = 0x00;
                    Uart_Tx_Packet.Uart_Buffer[4] = 0x00;
                    Uart_Tx_Packet.Uart_Buffer[5] = 0x02;
                    Uart_Tx_Packet.Uart_Buffer[6] = 0x04;
                    Uart_Tx_Packet.Uart_Buffer[7] = (uint8_t)(Controlling_Variables.Ctrl_Vars.SoftStart >> 8 ) & 0x00ff;
 516:	0a13      	lsrs	r3, r2, #8
C:\tien\PROJEKTY\procesory\STM\T108_V100a\sources/sys.c:1505
                    Uart_Tx_Packet.Uart_Buffer[8] = (uint8_t)(Controlling_Variables.Ctrl_Vars.SoftStart & 0x00ff);
                    Uart_Tx_Packet.Uart_Buffer[9] = (uint8_t)(Controlling_Variables.Ctrl_Vars.SoftStop >> 8 ) & 0x00ff;
 518:	8c8a      	ldrh	r2, [r1, #36]
C:\tien\PROJEKTY\procesory\STM\T108_V100a\sources/sys.c:1503
                    Uart_Tx_Packet.Uart_Buffer[2] = 0x02;
                    Uart_Tx_Packet.Uart_Buffer[3] = 0x00;
                    Uart_Tx_Packet.Uart_Buffer[4] = 0x00;
                    Uart_Tx_Packet.Uart_Buffer[5] = 0x02;
                    Uart_Tx_Packet.Uart_Buffer[6] = 0x04;
                    Uart_Tx_Packet.Uart_Buffer[7] = (uint8_t)(Controlling_Variables.Ctrl_Vars.SoftStart >> 8 ) & 0x00ff;
 51a:	71f3      	strb	r3, [r6, #7]
C:\tien\PROJEKTY\procesory\STM\T108_V100a\sources/sys.c:1505
                    Uart_Tx_Packet.Uart_Buffer[8] = (uint8_t)(Controlling_Variables.Ctrl_Vars.SoftStart & 0x00ff);
                    Uart_Tx_Packet.Uart_Buffer[9] = (uint8_t)(Controlling_Variables.Ctrl_Vars.SoftStop >> 8 ) & 0x00ff;
 51c:	0a13      	lsrs	r3, r2, #8
 51e:	7273      	strb	r3, [r6, #9]
C:\tien\PROJEKTY\procesory\STM\T108_V100a\sources/sys.c:1508
                    Uart_Tx_Packet.Uart_Buffer[10] =(uint8_t)(Controlling_Variables.Ctrl_Vars.SoftStop & 0x00ff);
               
                    RS485_Packet_Length = 13;
 520:	230d      	movs	r3, #13
C:\tien\PROJEKTY\procesory\STM\T108_V100a\sources/sys.c:1499
                
                case FREQ2_SET:
                    Uart_Tx_Packet.Uart_Buffer[0] = F2_ADDRESS;
                    Uart_Tx_Packet.Uart_Buffer[1] = FUN_WRITE;
                    Uart_Tx_Packet.Uart_Buffer[2] = 0x02;
                    Uart_Tx_Packet.Uart_Buffer[3] = 0x00;
 522:	2400      	movs	r4, #0
C:\tien\PROJEKTY\procesory\STM\T108_V100a\sources/sys.c:1508
                    Uart_Tx_Packet.Uart_Buffer[7] = (uint8_t)(Controlling_Variables.Ctrl_Vars.SoftStart >> 8 ) & 0x00ff;
                    Uart_Tx_Packet.Uart_Buffer[8] = (uint8_t)(Controlling_Variables.Ctrl_Vars.SoftStart & 0x00ff);
                    Uart_Tx_Packet.Uart_Buffer[9] = (uint8_t)(Controlling_Variables.Ctrl_Vars.SoftStop >> 8 ) & 0x00ff;
                    Uart_Tx_Packet.Uart_Buffer[10] =(uint8_t)(Controlling_Variables.Ctrl_Vars.SoftStop & 0x00ff);
               
                    RS485_Packet_Length = 13;
 524:	7003      	strb	r3, [r0, #0]
C:\tien\PROJEKTY\procesory\STM\T108_V100a\sources/sys.c:1509
                    Crc_value = CRC16_CCITT( Uart_Tx_Packet.Uart_Buffer, (RS485_Packet_Length-2));
 526:	210b      	movs	r1, #11
 528:	482f      	ldr	r0, [pc, #188]	(5e8 <RS485_Send+0x5e8>)
C:\tien\PROJEKTY\procesory\STM\T108_V100a\sources/sys.c:1506
                    Uart_Tx_Packet.Uart_Buffer[5] = 0x02;
                    Uart_Tx_Packet.Uart_Buffer[6] = 0x04;
                    Uart_Tx_Packet.Uart_Buffer[7] = (uint8_t)(Controlling_Variables.Ctrl_Vars.SoftStart >> 8 ) & 0x00ff;
                    Uart_Tx_Packet.Uart_Buffer[8] = (uint8_t)(Controlling_Variables.Ctrl_Vars.SoftStart & 0x00ff);
                    Uart_Tx_Packet.Uart_Buffer[9] = (uint8_t)(Controlling_Variables.Ctrl_Vars.SoftStop >> 8 ) & 0x00ff;
                    Uart_Tx_Packet.Uart_Buffer[10] =(uint8_t)(Controlling_Variables.Ctrl_Vars.SoftStop & 0x00ff);
 52a:	72b2      	strb	r2, [r6, #10]
C:\tien\PROJEKTY\procesory\STM\T108_V100a\sources/sys.c:1499
                
                case FREQ2_SET:
                    Uart_Tx_Packet.Uart_Buffer[0] = F2_ADDRESS;
                    Uart_Tx_Packet.Uart_Buffer[1] = FUN_WRITE;
                    Uart_Tx_Packet.Uart_Buffer[2] = 0x02;
                    Uart_Tx_Packet.Uart_Buffer[3] = 0x00;
 52c:	70f4      	strb	r4, [r6, #3]
C:\tien\PROJEKTY\procesory\STM\T108_V100a\sources/sys.c:1500
                    Uart_Tx_Packet.Uart_Buffer[4] = 0x00;
 52e:	7134      	strb	r4, [r6, #4]
C:\tien\PROJEKTY\procesory\STM\T108_V100a\sources/sys.c:1509
                    Uart_Tx_Packet.Uart_Buffer[8] = (uint8_t)(Controlling_Variables.Ctrl_Vars.SoftStart & 0x00ff);
                    Uart_Tx_Packet.Uart_Buffer[9] = (uint8_t)(Controlling_Variables.Ctrl_Vars.SoftStop >> 8 ) & 0x00ff;
                    Uart_Tx_Packet.Uart_Buffer[10] =(uint8_t)(Controlling_Variables.Ctrl_Vars.SoftStop & 0x00ff);
               
                    RS485_Packet_Length = 13;
                    Crc_value = CRC16_CCITT( Uart_Tx_Packet.Uart_Buffer, (RS485_Packet_Length-2));
 530:	f7ff fffe 	bl	0 <RS485_Send>
 534:	4b2d      	ldr	r3, [pc, #180]	(5ec <RS485_Send+0x5ec>)
C:\tien\PROJEKTY\procesory\STM\T108_V100a\sources/sys.c:1510
                    Uart_Tx_Packet.Uart_Buffer[11] = (uint8_t)(Crc_value & 0x00ff);
 536:	72f0      	strb	r0, [r6, #11]
C:\tien\PROJEKTY\procesory\STM\T108_V100a\sources/sys.c:1509
                    Uart_Tx_Packet.Uart_Buffer[8] = (uint8_t)(Controlling_Variables.Ctrl_Vars.SoftStart & 0x00ff);
                    Uart_Tx_Packet.Uart_Buffer[9] = (uint8_t)(Controlling_Variables.Ctrl_Vars.SoftStop >> 8 ) & 0x00ff;
                    Uart_Tx_Packet.Uart_Buffer[10] =(uint8_t)(Controlling_Variables.Ctrl_Vars.SoftStop & 0x00ff);
               
                    RS485_Packet_Length = 13;
                    Crc_value = CRC16_CCITT( Uart_Tx_Packet.Uart_Buffer, (RS485_Packet_Length-2));
 538:	8018      	strh	r0, [r3, #0]
C:\tien\PROJEKTY\procesory\STM\T108_V100a\sources/sys.c:1513
                    Uart_Tx_Packet.Uart_Buffer[11] = (uint8_t)(Crc_value & 0x00ff);
                    Uart_Tx_Packet.Uart_Buffer[12] = (uint8_t)(Crc_value >> 8 ) & 0x00ff;

                    RS485_Inverter_Counter = FREQ1_CONNECTED;           
 53a:	4b2d      	ldr	r3, [pc, #180]	(5f0 <RS485_Send+0x5f0>)
C:\tien\PROJEKTY\procesory\STM\T108_V100a\sources/sys.c:1511
                    Uart_Tx_Packet.Uart_Buffer[10] =(uint8_t)(Controlling_Variables.Ctrl_Vars.SoftStop & 0x00ff);
               
                    RS485_Packet_Length = 13;
                    Crc_value = CRC16_CCITT( Uart_Tx_Packet.Uart_Buffer, (RS485_Packet_Length-2));
                    Uart_Tx_Packet.Uart_Buffer[11] = (uint8_t)(Crc_value & 0x00ff);
                    Uart_Tx_Packet.Uart_Buffer[12] = (uint8_t)(Crc_value >> 8 ) & 0x00ff;
 53c:	0a00      	lsrs	r0, r0, #8
C:\tien\PROJEKTY\procesory\STM\T108_V100a\sources/sys.c:1513

                    RS485_Inverter_Counter = FREQ1_CONNECTED;           
 53e:	701c      	strb	r4, [r3, #0]
C:\tien\PROJEKTY\procesory\STM\T108_V100a\sources/sys.c:1514
                    RS485_Inverter_Error = FREQ2_SET;
 540:	4b2d      	ldr	r3, [pc, #180]	(5f8 <RS485_Send+0x5f8>)
 542:	2206      	movs	r2, #6
 544:	701a      	strb	r2, [r3, #0]
C:\tien\PROJEKTY\procesory\STM\T108_V100a\sources/sys.c:1511
                    Uart_Tx_Packet.Uart_Buffer[10] =(uint8_t)(Controlling_Variables.Ctrl_Vars.SoftStop & 0x00ff);
               
                    RS485_Packet_Length = 13;
                    Crc_value = CRC16_CCITT( Uart_Tx_Packet.Uart_Buffer, (RS485_Packet_Length-2));
                    Uart_Tx_Packet.Uart_Buffer[11] = (uint8_t)(Crc_value & 0x00ff);
                    Uart_Tx_Packet.Uart_Buffer[12] = (uint8_t)(Crc_value >> 8 ) & 0x00ff;
 546:	7330      	strb	r0, [r6, #12]
C:\tien\PROJEKTY\procesory\STM\T108_V100a\sources/sys.c:1515

                    RS485_Inverter_Counter = FREQ1_CONNECTED;           
                    RS485_Inverter_Error = FREQ2_SET;
                    INV_PROGRAMMING = FALSE;                
 548:	4b2a      	ldr	r3, [pc, #168]	(5f4 <RS485_Send+0x5f4>)
 54a:	e03c      	b.n	5c6 <RS485_Send+0x5c6>
C:\tien\PROJEKTY\procesory\STM\T108_V100a\sources/sys.c:1522

                case FREQ1_MONITORING:
                    Uart_Tx_Packet.Uart_Buffer[0] = F1_ADDRESS;
                    Uart_Tx_Packet.Uart_Buffer[1] = FUN_READ;
                    Uart_Tx_Packet.Uart_Buffer[2] = 0x00;
                    Uart_Tx_Packet.Uart_Buffer[3] = 0x26;
 54c:	2326      	movs	r3, #38
C:\tien\PROJEKTY\procesory\STM\T108_V100a\sources/sys.c:1519
                    RS485_Inverter_Error = FREQ2_SET;
                    INV_PROGRAMMING = FALSE;                
                break;

                case FREQ1_MONITORING:
                    Uart_Tx_Packet.Uart_Buffer[0] = F1_ADDRESS;
 54e:	2101      	movs	r1, #1
C:\tien\PROJEKTY\procesory\STM\T108_V100a\sources/sys.c:1522
                    Uart_Tx_Packet.Uart_Buffer[1] = FUN_READ;
                    Uart_Tx_Packet.Uart_Buffer[2] = 0x00;
                    Uart_Tx_Packet.Uart_Buffer[3] = 0x26;
 550:	70f3      	strb	r3, [r6, #3]
C:\tien\PROJEKTY\procesory\STM\T108_V100a\sources/sys.c:1526
                    Uart_Tx_Packet.Uart_Buffer[4] = 0x00;
                    Uart_Tx_Packet.Uart_Buffer[5] = 0x01;

                    RS485_Packet_Length = 8;
 552:	2308      	movs	r3, #8
C:\tien\PROJEKTY\procesory\STM\T108_V100a\sources/sys.c:1521
                break;

                case FREQ1_MONITORING:
                    Uart_Tx_Packet.Uart_Buffer[0] = F1_ADDRESS;
                    Uart_Tx_Packet.Uart_Buffer[1] = FUN_READ;
                    Uart_Tx_Packet.Uart_Buffer[2] = 0x00;
 554:	2200      	movs	r2, #0
C:\tien\PROJEKTY\procesory\STM\T108_V100a\sources/sys.c:1526
                    Uart_Tx_Packet.Uart_Buffer[3] = 0x26;
                    Uart_Tx_Packet.Uart_Buffer[4] = 0x00;
                    Uart_Tx_Packet.Uart_Buffer[5] = 0x01;

                    RS485_Packet_Length = 8;
 556:	7003      	strb	r3, [r0, #0]
C:\tien\PROJEKTY\procesory\STM\T108_V100a\sources/sys.c:1519
                    RS485_Inverter_Error = FREQ2_SET;
                    INV_PROGRAMMING = FALSE;                
                break;

                case FREQ1_MONITORING:
                    Uart_Tx_Packet.Uart_Buffer[0] = F1_ADDRESS;
 558:	7031      	strb	r1, [r6, #0]
C:\tien\PROJEKTY\procesory\STM\T108_V100a\sources/sys.c:1524
                    Uart_Tx_Packet.Uart_Buffer[1] = FUN_READ;
                    Uart_Tx_Packet.Uart_Buffer[2] = 0x00;
                    Uart_Tx_Packet.Uart_Buffer[3] = 0x26;
                    Uart_Tx_Packet.Uart_Buffer[4] = 0x00;
                    Uart_Tx_Packet.Uart_Buffer[5] = 0x01;
 55a:	7171      	strb	r1, [r6, #5]
C:\tien\PROJEKTY\procesory\STM\T108_V100a\sources/sys.c:1520
                    INV_PROGRAMMING = FALSE;                
                break;

                case FREQ1_MONITORING:
                    Uart_Tx_Packet.Uart_Buffer[0] = F1_ADDRESS;
                    Uart_Tx_Packet.Uart_Buffer[1] = FUN_READ;
 55c:	2403      	movs	r4, #3
C:\tien\PROJEKTY\procesory\STM\T108_V100a\sources/sys.c:1527
                    Uart_Tx_Packet.Uart_Buffer[3] = 0x26;
                    Uart_Tx_Packet.Uart_Buffer[4] = 0x00;
                    Uart_Tx_Packet.Uart_Buffer[5] = 0x01;

                    RS485_Packet_Length = 8;
                    Crc_value = CRC16_CCITT( Uart_Tx_Packet.Uart_Buffer, (RS485_Packet_Length-2));
 55e:	4822      	ldr	r0, [pc, #136]	(5e8 <RS485_Send+0x5e8>)
 560:	3105      	adds	r1, #5
C:\tien\PROJEKTY\procesory\STM\T108_V100a\sources/sys.c:1520
                    INV_PROGRAMMING = FALSE;                
                break;

                case FREQ1_MONITORING:
                    Uart_Tx_Packet.Uart_Buffer[0] = F1_ADDRESS;
                    Uart_Tx_Packet.Uart_Buffer[1] = FUN_READ;
 562:	7074      	strb	r4, [r6, #1]
C:\tien\PROJEKTY\procesory\STM\T108_V100a\sources/sys.c:1521
                    Uart_Tx_Packet.Uart_Buffer[2] = 0x00;
 564:	70b2      	strb	r2, [r6, #2]
C:\tien\PROJEKTY\procesory\STM\T108_V100a\sources/sys.c:1523
                    Uart_Tx_Packet.Uart_Buffer[3] = 0x26;
                    Uart_Tx_Packet.Uart_Buffer[4] = 0x00;
 566:	7132      	strb	r2, [r6, #4]
C:\tien\PROJEKTY\procesory\STM\T108_V100a\sources/sys.c:1527
                    Uart_Tx_Packet.Uart_Buffer[5] = 0x01;

                    RS485_Packet_Length = 8;
                    Crc_value = CRC16_CCITT( Uart_Tx_Packet.Uart_Buffer, (RS485_Packet_Length-2));
 568:	f7ff fffe 	bl	0 <RS485_Send>
 56c:	4b1f      	ldr	r3, [pc, #124]	(5ec <RS485_Send+0x5ec>)
C:\tien\PROJEKTY\procesory\STM\T108_V100a\sources/sys.c:1528
                    Uart_Tx_Packet.Uart_Buffer[6] = (uint8_t)(Crc_value & 0x00ff);
 56e:	71b0      	strb	r0, [r6, #6]
C:\tien\PROJEKTY\procesory\STM\T108_V100a\sources/sys.c:1527
                    Uart_Tx_Packet.Uart_Buffer[3] = 0x26;
                    Uart_Tx_Packet.Uart_Buffer[4] = 0x00;
                    Uart_Tx_Packet.Uart_Buffer[5] = 0x01;

                    RS485_Packet_Length = 8;
                    Crc_value = CRC16_CCITT( Uart_Tx_Packet.Uart_Buffer, (RS485_Packet_Length-2));
 570:	8018      	strh	r0, [r3, #0]
C:\tien\PROJEKTY\procesory\STM\T108_V100a\sources/sys.c:1531
                    Uart_Tx_Packet.Uart_Buffer[6] = (uint8_t)(Crc_value & 0x00ff);
                    Uart_Tx_Packet.Uart_Buffer[7] = (uint8_t)(Crc_value >> 8 ) & 0x00ff;

                    if ( Controlling_Variables.Ctrl_Vars.Fast_Gate_Type == 0 ) // Two wings gate
 572:	4b1c      	ldr	r3, [pc, #112]	(5e4 <RS485_Send+0x5e4>)
C:\tien\PROJEKTY\procesory\STM\T108_V100a\sources/sys.c:1529
                    Uart_Tx_Packet.Uart_Buffer[5] = 0x01;

                    RS485_Packet_Length = 8;
                    Crc_value = CRC16_CCITT( Uart_Tx_Packet.Uart_Buffer, (RS485_Packet_Length-2));
                    Uart_Tx_Packet.Uart_Buffer[6] = (uint8_t)(Crc_value & 0x00ff);
                    Uart_Tx_Packet.Uart_Buffer[7] = (uint8_t)(Crc_value >> 8 ) & 0x00ff;
 574:	0a00      	lsrs	r0, r0, #8
C:\tien\PROJEKTY\procesory\STM\T108_V100a\sources/sys.c:1531

                    if ( Controlling_Variables.Ctrl_Vars.Fast_Gate_Type == 0 ) // Two wings gate
 576:	7edb      	ldrb	r3, [r3, #27]
C:\tien\PROJEKTY\procesory\STM\T108_V100a\sources/sys.c:1529
                    Uart_Tx_Packet.Uart_Buffer[5] = 0x01;

                    RS485_Packet_Length = 8;
                    Crc_value = CRC16_CCITT( Uart_Tx_Packet.Uart_Buffer, (RS485_Packet_Length-2));
                    Uart_Tx_Packet.Uart_Buffer[6] = (uint8_t)(Crc_value & 0x00ff);
                    Uart_Tx_Packet.Uart_Buffer[7] = (uint8_t)(Crc_value >> 8 ) & 0x00ff;
 578:	71f0      	strb	r0, [r6, #7]
C:\tien\PROJEKTY\procesory\STM\T108_V100a\sources/sys.c:1531

                    if ( Controlling_Variables.Ctrl_Vars.Fast_Gate_Type == 0 ) // Two wings gate
 57a:	b913      	cbnz	r3, 582 <RS485_Send+0x582>
C:\tien\PROJEKTY\procesory\STM\T108_V100a\sources/sys.c:1533
                    {  
                        RS485_Inverter_Counter = FREQ2_START_STOP;
 57c:	4b1c      	ldr	r3, [pc, #112]	(5f0 <RS485_Send+0x5f0>)
 57e:	701c      	strb	r4, [r3, #0]
 580:	e006      	b.n	590 <RS485_Send+0x590>
C:\tien\PROJEKTY\procesory\STM\T108_V100a\sources/sys.c:1535
                    }
                    else if ( Controlling_Variables.Ctrl_Vars.Fast_Gate_Type == 1 || // One wing gate
 582:	3b01      	subs	r3, #1
 584:	b2db      	uxtb	r3, r3
 586:	2b01      	cmp	r3, #1
 588:	d802      	bhi.n	590 <RS485_Send+0x590>
C:\tien\PROJEKTY\procesory\STM\T108_V100a\sources/sys.c:1538
                              Controlling_Variables.Ctrl_Vars.Fast_Gate_Type == 2 )  // Sliding
                    {
                        RS485_Inverter_Counter = FREQ1_START_STOP;           
 58a:	4b19      	ldr	r3, [pc, #100]	(5f0 <RS485_Send+0x5f0>)
 58c:	2202      	movs	r2, #2
 58e:	701a      	strb	r2, [r3, #0]
C:\tien\PROJEKTY\procesory\STM\T108_V100a\sources/sys.c:1541
                    }
                
                    RS485_Inverter_Error = FREQ1_MONITORING;                
 590:	2207      	movs	r2, #7
 592:	e6e1      	b.n	358 <RS485_Send+0x358>
C:\tien\PROJEKTY\procesory\STM\T108_V100a\sources/sys.c:1546
                break;
                
                case FREQ2_MONITORING:
                    Uart_Tx_Packet.Uart_Buffer[0] = F2_ADDRESS;
                    Uart_Tx_Packet.Uart_Buffer[1] = FUN_READ;
 594:	2303      	movs	r3, #3
 596:	7073      	strb	r3, [r6, #1]
C:\tien\PROJEKTY\procesory\STM\T108_V100a\sources/sys.c:1552
                    Uart_Tx_Packet.Uart_Buffer[2] = 0x00;
                    Uart_Tx_Packet.Uart_Buffer[3] = 0x26;
                    Uart_Tx_Packet.Uart_Buffer[4] = 0x00;
                    Uart_Tx_Packet.Uart_Buffer[5] = 0x01;

                    RS485_Packet_Length = 8;
 598:	2408      	movs	r4, #8
C:\tien\PROJEKTY\procesory\STM\T108_V100a\sources/sys.c:1548
                
                case FREQ2_MONITORING:
                    Uart_Tx_Packet.Uart_Buffer[0] = F2_ADDRESS;
                    Uart_Tx_Packet.Uart_Buffer[1] = FUN_READ;
                    Uart_Tx_Packet.Uart_Buffer[2] = 0x00;
                    Uart_Tx_Packet.Uart_Buffer[3] = 0x26;
 59a:	3323      	adds	r3, #35
C:\tien\PROJEKTY\procesory\STM\T108_V100a\sources/sys.c:1547
                break;
                
                case FREQ2_MONITORING:
                    Uart_Tx_Packet.Uart_Buffer[0] = F2_ADDRESS;
                    Uart_Tx_Packet.Uart_Buffer[1] = FUN_READ;
                    Uart_Tx_Packet.Uart_Buffer[2] = 0x00;
 59c:	2200      	movs	r2, #0
C:\tien\PROJEKTY\procesory\STM\T108_V100a\sources/sys.c:1545
                
                    RS485_Inverter_Error = FREQ1_MONITORING;                
                break;
                
                case FREQ2_MONITORING:
                    Uart_Tx_Packet.Uart_Buffer[0] = F2_ADDRESS;
 59e:	2502      	movs	r5, #2
C:\tien\PROJEKTY\procesory\STM\T108_V100a\sources/sys.c:1548
                    Uart_Tx_Packet.Uart_Buffer[1] = FUN_READ;
                    Uart_Tx_Packet.Uart_Buffer[2] = 0x00;
                    Uart_Tx_Packet.Uart_Buffer[3] = 0x26;
 5a0:	70f3      	strb	r3, [r6, #3]
C:\tien\PROJEKTY\procesory\STM\T108_V100a\sources/sys.c:1552
                    Uart_Tx_Packet.Uart_Buffer[4] = 0x00;
                    Uart_Tx_Packet.Uart_Buffer[5] = 0x01;

                    RS485_Packet_Length = 8;
 5a2:	7004      	strb	r4, [r0, #0]
C:\tien\PROJEKTY\procesory\STM\T108_V100a\sources/sys.c:1550
                    Uart_Tx_Packet.Uart_Buffer[0] = F2_ADDRESS;
                    Uart_Tx_Packet.Uart_Buffer[1] = FUN_READ;
                    Uart_Tx_Packet.Uart_Buffer[2] = 0x00;
                    Uart_Tx_Packet.Uart_Buffer[3] = 0x26;
                    Uart_Tx_Packet.Uart_Buffer[4] = 0x00;
                    Uart_Tx_Packet.Uart_Buffer[5] = 0x01;
 5a4:	2301      	movs	r3, #1
C:\tien\PROJEKTY\procesory\STM\T108_V100a\sources/sys.c:1553

                    RS485_Packet_Length = 8;
                    Crc_value = CRC16_CCITT( Uart_Tx_Packet.Uart_Buffer, (RS485_Packet_Length-2));
 5a6:	4810      	ldr	r0, [pc, #64]	(5e8 <RS485_Send+0x5e8>)
 5a8:	2106      	movs	r1, #6
C:\tien\PROJEKTY\procesory\STM\T108_V100a\sources/sys.c:1550
                    Uart_Tx_Packet.Uart_Buffer[0] = F2_ADDRESS;
                    Uart_Tx_Packet.Uart_Buffer[1] = FUN_READ;
                    Uart_Tx_Packet.Uart_Buffer[2] = 0x00;
                    Uart_Tx_Packet.Uart_Buffer[3] = 0x26;
                    Uart_Tx_Packet.Uart_Buffer[4] = 0x00;
                    Uart_Tx_Packet.Uart_Buffer[5] = 0x01;
 5aa:	7173      	strb	r3, [r6, #5]
C:\tien\PROJEKTY\procesory\STM\T108_V100a\sources/sys.c:1545
                
                    RS485_Inverter_Error = FREQ1_MONITORING;                
                break;
                
                case FREQ2_MONITORING:
                    Uart_Tx_Packet.Uart_Buffer[0] = F2_ADDRESS;
 5ac:	7035      	strb	r5, [r6, #0]
C:\tien\PROJEKTY\procesory\STM\T108_V100a\sources/sys.c:1547
                    Uart_Tx_Packet.Uart_Buffer[1] = FUN_READ;
                    Uart_Tx_Packet.Uart_Buffer[2] = 0x00;
 5ae:	70b2      	strb	r2, [r6, #2]
C:\tien\PROJEKTY\procesory\STM\T108_V100a\sources/sys.c:1549
                    Uart_Tx_Packet.Uart_Buffer[3] = 0x26;
                    Uart_Tx_Packet.Uart_Buffer[4] = 0x00;
 5b0:	7132      	strb	r2, [r6, #4]
C:\tien\PROJEKTY\procesory\STM\T108_V100a\sources/sys.c:1553
                    Uart_Tx_Packet.Uart_Buffer[5] = 0x01;

                    RS485_Packet_Length = 8;
                    Crc_value = CRC16_CCITT( Uart_Tx_Packet.Uart_Buffer, (RS485_Packet_Length-2));
 5b2:	f7ff fffe 	bl	0 <RS485_Send>
 5b6:	4b0d      	ldr	r3, [pc, #52]	(5ec <RS485_Send+0x5ec>)
C:\tien\PROJEKTY\procesory\STM\T108_V100a\sources/sys.c:1554
                    Uart_Tx_Packet.Uart_Buffer[6] = (uint8_t)(Crc_value & 0x00ff);
 5b8:	71b0      	strb	r0, [r6, #6]
C:\tien\PROJEKTY\procesory\STM\T108_V100a\sources/sys.c:1553
                    Uart_Tx_Packet.Uart_Buffer[3] = 0x26;
                    Uart_Tx_Packet.Uart_Buffer[4] = 0x00;
                    Uart_Tx_Packet.Uart_Buffer[5] = 0x01;

                    RS485_Packet_Length = 8;
                    Crc_value = CRC16_CCITT( Uart_Tx_Packet.Uart_Buffer, (RS485_Packet_Length-2));
 5ba:	8018      	strh	r0, [r3, #0]
C:\tien\PROJEKTY\procesory\STM\T108_V100a\sources/sys.c:1555
                    Uart_Tx_Packet.Uart_Buffer[6] = (uint8_t)(Crc_value & 0x00ff);
                    Uart_Tx_Packet.Uart_Buffer[7] = (uint8_t)(Crc_value >> 8 ) & 0x00ff;
 5bc:	40e0      	lsrs	r0, r4
C:\tien\PROJEKTY\procesory\STM\T108_V100a\sources/sys.c:1557

                    RS485_Inverter_Counter = FREQ1_START_STOP;           
 5be:	4b0c      	ldr	r3, [pc, #48]	(5f0 <RS485_Send+0x5f0>)
C:\tien\PROJEKTY\procesory\STM\T108_V100a\sources/sys.c:1555
                    Uart_Tx_Packet.Uart_Buffer[5] = 0x01;

                    RS485_Packet_Length = 8;
                    Crc_value = CRC16_CCITT( Uart_Tx_Packet.Uart_Buffer, (RS485_Packet_Length-2));
                    Uart_Tx_Packet.Uart_Buffer[6] = (uint8_t)(Crc_value & 0x00ff);
                    Uart_Tx_Packet.Uart_Buffer[7] = (uint8_t)(Crc_value >> 8 ) & 0x00ff;
 5c0:	71f0      	strb	r0, [r6, #7]
C:\tien\PROJEKTY\procesory\STM\T108_V100a\sources/sys.c:1557

                    RS485_Inverter_Counter = FREQ1_START_STOP;           
 5c2:	701d      	strb	r5, [r3, #0]
C:\tien\PROJEKTY\procesory\STM\T108_V100a\sources/sys.c:1558
                    RS485_Inverter_Error = FREQ2_MONITORING;            
 5c4:	4b0c      	ldr	r3, [pc, #48]	(5f8 <RS485_Send+0x5f8>)
 5c6:	701c      	strb	r4, [r3, #0]
C:\tien\PROJEKTY\procesory\STM\T108_V100a\sources/sys.c:1562
                break;
                } 

                UART_Send(Uart_Tx_Packet.Uart_Buffer, (RS485_Packet_Length + 2));
 5c8:	4b0c      	ldr	r3, [pc, #48]	(5fc <RS485_Send+0x5fc>)
 5ca:	4807      	ldr	r0, [pc, #28]	(5e8 <RS485_Send+0x5e8>)
 5cc:	7819      	ldrb	r1, [r3, #0]
 5ce:	3102      	adds	r1, #2
 5d0:	b2c9      	uxtb	r1, r1
 5d2:	f7ff fffe 	bl	0 <UART_Send>
C:\tien\PROJEKTY\procesory\STM\T108_V100a\sources/sys.c:1563
                RS485_PACKET_SENT = FALSE;
 5d6:	4b0a      	ldr	r3, [pc, #40]	(600 <RS485_Send+0x600>)
 5d8:	2200      	movs	r2, #0
 5da:	701a      	strb	r2, [r3, #0]
C:\tien\PROJEKTY\procesory\STM\T108_V100a\sources/sys.c:1564
                RS485_TRANSMIT_ENABLE = FALSE;
 5dc:	4b09      	ldr	r3, [pc, #36]	(604 <RS485_Send+0x604>)
 5de:	701a      	strb	r2, [r3, #0]
C:\tien\PROJEKTY\procesory\STM\T108_V100a\sources/sys.c:1568
            }
        }
    }
}
 5e0:	bd70      	pop	{r4, r5, r6, pc}
 5e2:	46c0      	nop			(mov r8, r8)
	...
Disassembly of section .text.Input_Output_Test:

00000000 <Input_Output_Test>:
Input_Output_Test():
C:\tien\PROJEKTY\procesory\STM\T108_V100a\sources/sys.c:885
* Input          : None
* Output         : None
* Return         : None
*******************************************************************************/
void Input_Output_Test ( void )
{
   0:	b510      	push	{r4, lr}
C:\tien\PROJEKTY\procesory\STM\T108_V100a\sources/sys.c:886
        if ( Controller_Variables.Controller_Vars.Test_Status == 0 )
   2:	4b3c      	ldr	r3, [pc, #240]	(f4 <Input_Output_Test+0xf4>)
   4:	7b99      	ldrb	r1, [r3, #14]
   6:	b991      	cbnz	r1, 2e <Input_Output_Test+0x2e>
C:\tien\PROJEKTY\procesory\STM\T108_V100a\sources/sys.c:888
        {
            if ( Inputs_Level_Test & INPUT1 )
   8:	4b3b      	ldr	r3, [pc, #236]	(f8 <Input_Output_Test+0xf8>)
   a:	4a3c      	ldr	r2, [pc, #240]	(fc <Input_Output_Test+0xfc>)
   c:	691b      	ldr	r3, [r3, #16]
   e:	f013 0301 	ands.w	r3, r3, #1	; 0x1
C:\tien\PROJEKTY\procesory\STM\T108_V100a\sources/sys.c:890
            {
                Manual_Values.Values.Mos1_Manual_Value = PWM_HALF;
  12:	bf18      	it	ne
  14:	f44f 73e1 	movne.w	r3, #450	; 0x1c2
C:\tien\PROJEKTY\procesory\STM\T108_V100a\sources/sys.c:894
            }
            else
            {
                Manual_Values.Values.Mos1_Manual_Value = PWM_OFF;
  18:	8113      	strh	r3, [r2, #8]
C:\tien\PROJEKTY\procesory\STM\T108_V100a\sources/sys.c:897
            }  
        
            if ( Inputs_Level_Test & INPUT2 )
  1a:	4b37      	ldr	r3, [pc, #220]	(f8 <Input_Output_Test+0xf8>)
  1c:	4a37      	ldr	r2, [pc, #220]	(fc <Input_Output_Test+0xfc>)
  1e:	691b      	ldr	r3, [r3, #16]
  20:	f013 0302 	ands.w	r3, r3, #2	; 0x2
C:\tien\PROJEKTY\procesory\STM\T108_V100a\sources/sys.c:899
            {
                Manual_Values.Values.Mos2_Manual_Value = PWM_HALF;
  24:	bf18      	it	ne
  26:	f44f 73e1 	movne.w	r3, #450	; 0x1c2
C:\tien\PROJEKTY\procesory\STM\T108_V100a\sources/sys.c:903
            }
            else
            {
                Manual_Values.Values.Mos2_Manual_Value = PWM_OFF;
  2a:	8153      	strh	r3, [r2, #10]
  2c:	e060      	b.n	f0 <Input_Output_Test+0xf0>
C:\tien\PROJEKTY\procesory\STM\T108_V100a\sources/sys.c:906
            }                
        }
        else if ( Controller_Variables.Controller_Vars.Test_Status == 1 )
  2e:	2901      	cmp	r1, #1
  30:	d111      	bne.n	56 <Input_Output_Test+0x56>
C:\tien\PROJEKTY\procesory\STM\T108_V100a\sources/sys.c:908
        {
            if ( Inputs_Level_Test & INPUT1 )
  32:	4b31      	ldr	r3, [pc, #196]	(f8 <Input_Output_Test+0xf8>)
  34:	4a31      	ldr	r2, [pc, #196]	(fc <Input_Output_Test+0xfc>)
  36:	691b      	ldr	r3, [r3, #16]
  38:	f013 0301 	ands.w	r3, r3, #1	; 0x1
C:\tien\PROJEKTY\procesory\STM\T108_V100a\sources/sys.c:914
            {
                Manual_Values.Values.OC1_Manual_Value = TRUE;
            }
            else
            {
                Manual_Values.Values.OC1_Manual_Value = FALSE;
  3c:	bf08      	it	eq
  3e:	7013      	strbeq	r3, [r2, #0]
C:\tien\PROJEKTY\procesory\STM\T108_V100a\sources/sys.c:917
            }  
        
            if ( Inputs_Level_Test & INPUT2 )
  40:	4b2d      	ldr	r3, [pc, #180]	(f8 <Input_Output_Test+0xf8>)
C:\tien\PROJEKTY\procesory\STM\T108_V100a\sources/sys.c:910
        }
        else if ( Controller_Variables.Controller_Vars.Test_Status == 1 )
        {
            if ( Inputs_Level_Test & INPUT1 )
            {
                Manual_Values.Values.OC1_Manual_Value = TRUE;
  42:	bf18      	it	ne
  44:	7011      	strbne	r1, [r2, #0]
C:\tien\PROJEKTY\procesory\STM\T108_V100a\sources/sys.c:917
            else
            {
                Manual_Values.Values.OC1_Manual_Value = FALSE;
            }  
        
            if ( Inputs_Level_Test & INPUT2 )
  46:	691b      	ldr	r3, [r3, #16]
  48:	4a2c      	ldr	r2, [pc, #176]	(fc <Input_Output_Test+0xfc>)
  4a:	f013 0302 	ands.w	r3, r3, #2	; 0x2
C:\tien\PROJEKTY\procesory\STM\T108_V100a\sources/sys.c:919
            {
                Manual_Values.Values.OC2_Manual_Value = TRUE;
  4e:	bf18      	it	ne
  50:	2301      	movne	r3, #1
C:\tien\PROJEKTY\procesory\STM\T108_V100a\sources/sys.c:923
            }
            else
            {
                Manual_Values.Values.OC2_Manual_Value = FALSE;
  52:	7053      	strb	r3, [r2, #1]
  54:	e04c      	b.n	f0 <Input_Output_Test+0xf0>
C:\tien\PROJEKTY\procesory\STM\T108_V100a\sources/sys.c:926
            }  
        }
        else if ( Controller_Variables.Controller_Vars.Test_Status == 2 )
  56:	2902      	cmp	r1, #2
  58:	d138      	bne.n	cc <Input_Output_Test+0xcc>
C:\tien\PROJEKTY\procesory\STM\T108_V100a\sources/sys.c:928
        {
            if ( Inputs_Level_Test & INPUT1 )
  5a:	4b27      	ldr	r3, [pc, #156]	(f8 <Input_Output_Test+0xf8>)
  5c:	4a27      	ldr	r2, [pc, #156]	(fc <Input_Output_Test+0xfc>)
  5e:	691b      	ldr	r3, [r3, #16]
  60:	f013 0301 	ands.w	r3, r3, #1	; 0x1
C:\tien\PROJEKTY\procesory\STM\T108_V100a\sources/sys.c:930
            {
                Manual_Values.Values.RL1_Manual_Value = TRUE;
  64:	bf18      	it	ne
  66:	2301      	movne	r3, #1
C:\tien\PROJEKTY\procesory\STM\T108_V100a\sources/sys.c:934
            }
            else
            {
                Manual_Values.Values.RL1_Manual_Value = FALSE;
  68:	7093      	strb	r3, [r2, #2]
C:\tien\PROJEKTY\procesory\STM\T108_V100a\sources/sys.c:937
            }  
        
            if ( Inputs_Level_Test & INPUT2 )
  6a:	4b23      	ldr	r3, [pc, #140]	(f8 <Input_Output_Test+0xf8>)
  6c:	4a23      	ldr	r2, [pc, #140]	(fc <Input_Output_Test+0xfc>)
  6e:	691b      	ldr	r3, [r3, #16]
  70:	f013 0302 	ands.w	r3, r3, #2	; 0x2
C:\tien\PROJEKTY\procesory\STM\T108_V100a\sources/sys.c:939
            {
                Manual_Values.Values.RL2_Manual_Value = TRUE;
  74:	bf18      	it	ne
  76:	2301      	movne	r3, #1
C:\tien\PROJEKTY\procesory\STM\T108_V100a\sources/sys.c:943
            }
            else
            {
                Manual_Values.Values.RL2_Manual_Value = FALSE;
  78:	70d3      	strb	r3, [r2, #3]
C:\tien\PROJEKTY\procesory\STM\T108_V100a\sources/sys.c:946
            }   
        
            if ( Inputs_Level_Test & INPUT3 )
  7a:	4b1f      	ldr	r3, [pc, #124]	(f8 <Input_Output_Test+0xf8>)
  7c:	4a1f      	ldr	r2, [pc, #124]	(fc <Input_Output_Test+0xfc>)
  7e:	691b      	ldr	r3, [r3, #16]
  80:	f013 0304 	ands.w	r3, r3, #4	; 0x4
C:\tien\PROJEKTY\procesory\STM\T108_V100a\sources/sys.c:948
            {
                Manual_Values.Values.RL3_Manual_Value = TRUE;
  84:	bf18      	it	ne
  86:	2301      	movne	r3, #1
C:\tien\PROJEKTY\procesory\STM\T108_V100a\sources/sys.c:952
            }
            else
            {
                Manual_Values.Values.RL3_Manual_Value = FALSE;
  88:	7113      	strb	r3, [r2, #4]
C:\tien\PROJEKTY\procesory\STM\T108_V100a\sources/sys.c:955
            }   
        
            if ( Inputs_Level_Test & INPUT4 )
  8a:	4b1b      	ldr	r3, [pc, #108]	(f8 <Input_Output_Test+0xf8>)
  8c:	4a1b      	ldr	r2, [pc, #108]	(fc <Input_Output_Test+0xfc>)
  8e:	691b      	ldr	r3, [r3, #16]
  90:	f013 0308 	ands.w	r3, r3, #8	; 0x8
C:\tien\PROJEKTY\procesory\STM\T108_V100a\sources/sys.c:957
            {
                Manual_Values.Values.RL4_Manual_Value = TRUE;
  94:	bf18      	it	ne
  96:	2301      	movne	r3, #1
C:\tien\PROJEKTY\procesory\STM\T108_V100a\sources/sys.c:961
            }
            else
            {
                Manual_Values.Values.RL4_Manual_Value = FALSE;
  98:	7153      	strb	r3, [r2, #5]
C:\tien\PROJEKTY\procesory\STM\T108_V100a\sources/sys.c:964
            }  

            if ( Inputs_Level_Test & INPUT5 )        
  9a:	4b17      	ldr	r3, [pc, #92]	(f8 <Input_Output_Test+0xf8>)
  9c:	4a17      	ldr	r2, [pc, #92]	(fc <Input_Output_Test+0xfc>)
  9e:	691b      	ldr	r3, [r3, #16]
  a0:	f013 0310 	ands.w	r3, r3, #16	; 0x10
C:\tien\PROJEKTY\procesory\STM\T108_V100a\sources/sys.c:966
            {
                Manual_Values.Values.Mos1_Dir_Manual_Value = TRUE;
  a4:	bf18      	it	ne
  a6:	2301      	movne	r3, #1
C:\tien\PROJEKTY\procesory\STM\T108_V100a\sources/sys.c:970
            }
            else
            {
                Manual_Values.Values.Mos1_Dir_Manual_Value = FALSE;
  a8:	7313      	strb	r3, [r2, #12]
C:\tien\PROJEKTY\procesory\STM\T108_V100a\sources/sys.c:973
            }   

            if ( Inputs_Level_Test & INPUT6 )
  aa:	4b13      	ldr	r3, [pc, #76]	(f8 <Input_Output_Test+0xf8>)
  ac:	4a13      	ldr	r2, [pc, #76]	(fc <Input_Output_Test+0xfc>)
  ae:	691b      	ldr	r3, [r3, #16]
  b0:	f013 0320 	ands.w	r3, r3, #32	; 0x20
C:\tien\PROJEKTY\procesory\STM\T108_V100a\sources/sys.c:975
            {
                Manual_Values.Values.RL5_Manual_Value = TRUE;
  b4:	bf18      	it	ne
  b6:	2301      	movne	r3, #1
C:\tien\PROJEKTY\procesory\STM\T108_V100a\sources/sys.c:979
            }
            else
            {
                Manual_Values.Values.RL5_Manual_Value = FALSE;
  b8:	7193      	strb	r3, [r2, #6]
C:\tien\PROJEKTY\procesory\STM\T108_V100a\sources/sys.c:981
            }   
            if ( Inputs_Level_Test & INPUT7 )
  ba:	4b0f      	ldr	r3, [pc, #60]	(f8 <Input_Output_Test+0xf8>)
  bc:	4a0f      	ldr	r2, [pc, #60]	(fc <Input_Output_Test+0xfc>)
  be:	691b      	ldr	r3, [r3, #16]
  c0:	f013 0340 	ands.w	r3, r3, #64	; 0x40
C:\tien\PROJEKTY\procesory\STM\T108_V100a\sources/sys.c:983
            {
                Manual_Values.Values.RL6_Manual_Value = TRUE;
  c4:	bf18      	it	ne
  c6:	2301      	movne	r3, #1
C:\tien\PROJEKTY\procesory\STM\T108_V100a\sources/sys.c:987
            }
            else
            {
                Manual_Values.Values.RL6_Manual_Value = FALSE;
  c8:	71d3      	strb	r3, [r2, #7]
  ca:	e011      	b.n	f0 <Input_Output_Test+0xf0>
C:\tien\PROJEKTY\procesory\STM\T108_V100a\sources/sys.c:990
            }          
        }
        else if ( Controller_Variables.Controller_Vars.Test_Status == 3 )
  cc:	2903      	cmp	r1, #3
  ce:	d10f      	bne.n	f0 <Input_Output_Test+0xf0>
C:\tien\PROJEKTY\procesory\STM\T108_V100a\sources/sys.c:992
        {
            if ( Inputs_Level_Test & INPUT4 )
  d0:	4b09      	ldr	r3, [pc, #36]	(f8 <Input_Output_Test+0xf8>)
  d2:	691b      	ldr	r3, [r3, #16]
  d4:	f013 0f08 	tst.w	r3, #8	; 0x8
  d8:	d005      	beq.n	e6 <Input_Output_Test+0xe6>
C:\tien\PROJEKTY\procesory\STM\T108_V100a\sources/sys.c:994
            {
                GPIO_SetBits(PORT_BUZZER, PIN_BUZZER );
  da:	4809      	ldr	r0, [pc, #36]	(100 <Input_Output_Test+0x100>)
  dc:	f44f 7100 	mov.w	r1, #512	; 0x200
  e0:	f7ff fffe 	bl	0 <GPIO_SetBits>
  e4:	e004      	b.n	f0 <Input_Output_Test+0xf0>
C:\tien\PROJEKTY\procesory\STM\T108_V100a\sources/sys.c:998
            }
            else
            {
                GPIO_ResetBits(PORT_BUZZER, PIN_BUZZER);
  e6:	4806      	ldr	r0, [pc, #24]	(100 <Input_Output_Test+0x100>)
  e8:	f44f 7100 	mov.w	r1, #512	; 0x200
  ec:	f7ff fffe 	bl	0 <GPIO_ResetBits>
C:\tien\PROJEKTY\procesory\STM\T108_V100a\sources/sys.c:1004
            }              
        }
        else if ( Controller_Variables.Controller_Vars.Test_Status == 4 )
        {
        }
}
  f0:	bd10      	pop	{r4, pc}
  f2:	46c0      	nop			(mov r8, r8)
	...
 100:	40010800 	.word	0x40010800
Disassembly of section .text.Keyboard_Handling:

00000000 <Keyboard_Handling>:
Keyboard_Handling():
C:\tien\PROJEKTY\procesory\STM\T108_V100a\sources/sys.c:279
* Output         : None
* Return         : None
*******************************************************************************/
void Keyboard_Handling ( void )
{
	if ( System_Timer_Check ( &Keyboard_Timer.Timer, T_10msec ) == TRUE )
   0:	2101      	movs	r1, #1
C:\tien\PROJEKTY\procesory\STM\T108_V100a\sources/sys.c:278
* Input          : None
* Output         : None
* Return         : None
*******************************************************************************/
void Keyboard_Handling ( void )
{
   2:	b510      	push	{r4, lr}
C:\tien\PROJEKTY\procesory\STM\T108_V100a\sources/sys.c:279
	if ( System_Timer_Check ( &Keyboard_Timer.Timer, T_10msec ) == TRUE )
   4:	4894      	ldr	r0, [pc, #592]	(258 <Keyboard_Handling+0x258>)
   6:	f7ff fffe 	bl	0 <Keyboard_Handling>
   a:	2801      	cmp	r0, #1
   c:	f040 81f6 	bne.w	3fc <Keyboard_Handling+0x3fc>
C:\tien\PROJEKTY\procesory\STM\T108_V100a\sources/sys.c:281
	{    
        if ( Keyboard.Keyboard_Memory == 0 && Keyboard.Keyboard_Flag == 0 )
  10:	4a92      	ldr	r2, [pc, #584]	(25c <Keyboard_Handling+0x25c>)
  12:	7813      	ldrb	r3, [r2, #0]
  14:	2b00      	cmp	r3, #0
  16:	f040 809e 	bne.w	156 <Keyboard_Handling+0x156>
  1a:	7893      	ldrb	r3, [r2, #2]
  1c:	2b00      	cmp	r3, #0
  1e:	f040 809a 	bne.w	156 <Keyboard_Handling+0x156>
C:\tien\PROJEKTY\procesory\STM\T108_V100a\sources/sys.c:283
        {
            switch ( Keyboard_Inputs_Select_Counter )
  22:	4b8f      	ldr	r3, [pc, #572]	(260 <Keyboard_Handling+0x260>)
  24:	7d1b      	ldrb	r3, [r3, #20]
  26:	2b07      	cmp	r3, #7
  28:	f200 8095 	bhi.w	156 <Keyboard_Handling+0x156>
  2c:	e8df f003 	tbb	[pc, r3]
  30:	2f189304 	.word	0x2f189304
  34:	7f6b5743 	.word	0x7f6b5743
C:\tien\PROJEKTY\procesory\STM\T108_V100a\sources/sys.c:286
            {       
            case 0:
                if ( !(GPIO_ReadInputDataBit(KBD_OUT_PORT, KBD_OUT_PIN)) )
  38:	488a      	ldr	r0, [pc, #552]	(264 <Keyboard_Handling+0x264>)
  3a:	f44f 7180 	mov.w	r1, #256	; 0x100
  3e:	f7ff fffe 	bl	0 <GPIO_ReadInputDataBit>
  42:	4a87      	ldr	r2, [pc, #540]	(260 <Keyboard_Handling+0x260>)
  44:	b940      	cbnz	r0, 58 <Keyboard_Handling+0x58>
C:\tien\PROJEKTY\procesory\STM\T108_V100a\sources/sys.c:288
                {
                    Keyboards_Level |= KEY_ESCAPE;
  46:	7a93      	ldrb	r3, [r2, #10]
  48:	f043 0302 	orr.w	r3, r3, #2	; 0x2
  4c:	7293      	strb	r3, [r2, #10]
C:\tien\PROJEKTY\procesory\STM\T108_V100a\sources/sys.c:289
                    Keyboard.Keyboard_Memory |= KEY_ESCAPE;
  4e:	4a83      	ldr	r2, [pc, #524]	(25c <Keyboard_Handling+0x25c>)
  50:	7813      	ldrb	r3, [r2, #0]
  52:	f043 0302 	orr.w	r3, r3, #2	; 0x2
  56:	e012      	b.n	7e <Keyboard_Handling+0x7e>
C:\tien\PROJEKTY\procesory\STM\T108_V100a\sources/sys.c:294
                    Keyboard.Keyboard_Flag = 1;
                } 
                else
                {
                    Keyboards_Level &= ~KEY_ESCAPE;                
  58:	7a93      	ldrb	r3, [r2, #10]
  5a:	f023 0302 	bic.w	r3, r3, #2	; 0x2
  5e:	e079      	b.n	154 <Keyboard_Handling+0x154>
C:\tien\PROJEKTY\procesory\STM\T108_V100a\sources/sys.c:299
                }
            break;
        
            case 2:
                if ( !(GPIO_ReadInputDataBit(KBD_OUT_PORT, KBD_OUT_PIN)) )
  60:	4880      	ldr	r0, [pc, #512]	(264 <Keyboard_Handling+0x264>)
  62:	f44f 7180 	mov.w	r1, #256	; 0x100
  66:	f7ff fffe 	bl	0 <GPIO_ReadInputDataBit>
  6a:	4a7d      	ldr	r2, [pc, #500]	(260 <Keyboard_Handling+0x260>)
  6c:	b958      	cbnz	r0, 86 <Keyboard_Handling+0x86>
C:\tien\PROJEKTY\procesory\STM\T108_V100a\sources/sys.c:301
                {
                    Keyboards_Level |= KEY_TEST;
  6e:	7a93      	ldrb	r3, [r2, #10]
  70:	f043 0340 	orr.w	r3, r3, #64	; 0x40
  74:	7293      	strb	r3, [r2, #10]
C:\tien\PROJEKTY\procesory\STM\T108_V100a\sources/sys.c:302
                    Keyboard.Keyboard_Memory |= KEY_TEST;
  76:	4a79      	ldr	r2, [pc, #484]	(25c <Keyboard_Handling+0x25c>)
  78:	7813      	ldrb	r3, [r2, #0]
  7a:	f043 0340 	orr.w	r3, r3, #64	; 0x40
  7e:	7013      	strb	r3, [r2, #0]
C:\tien\PROJEKTY\procesory\STM\T108_V100a\sources/sys.c:303
                    Keyboard.Keyboard_Flag = 1;
  80:	2301      	movs	r3, #1
  82:	7093      	strb	r3, [r2, #2]
  84:	e067      	b.n	156 <Keyboard_Handling+0x156>
C:\tien\PROJEKTY\procesory\STM\T108_V100a\sources/sys.c:307
                }
                else
                {
                    Keyboards_Level &= ~KEY_TEST;                
  86:	7a93      	ldrb	r3, [r2, #10]
  88:	f023 0340 	bic.w	r3, r3, #64	; 0x40
  8c:	e062      	b.n	154 <Keyboard_Handling+0x154>
C:\tien\PROJEKTY\procesory\STM\T108_V100a\sources/sys.c:312
                }            
            break;  

            case 3:
                if ( !(GPIO_ReadInputDataBit(KBD_OUT_PORT, KBD_OUT_PIN)) )
  8e:	4875      	ldr	r0, [pc, #468]	(264 <Keyboard_Handling+0x264>)
  90:	f44f 7180 	mov.w	r1, #256	; 0x100
  94:	f7ff fffe 	bl	0 <GPIO_ReadInputDataBit>
  98:	4a71      	ldr	r2, [pc, #452]	(260 <Keyboard_Handling+0x260>)
  9a:	b940      	cbnz	r0, ae <Keyboard_Handling+0xae>
C:\tien\PROJEKTY\procesory\STM\T108_V100a\sources/sys.c:314
                {
                    Keyboards_Level |= KEY_DOWN;               
  9c:	7a93      	ldrb	r3, [r2, #10]
  9e:	f043 0320 	orr.w	r3, r3, #32	; 0x20
  a2:	7293      	strb	r3, [r2, #10]
C:\tien\PROJEKTY\procesory\STM\T108_V100a\sources/sys.c:315
                    Keyboard.Keyboard_Memory |= KEY_DOWN;
  a4:	4a6d      	ldr	r2, [pc, #436]	(25c <Keyboard_Handling+0x25c>)
  a6:	7813      	ldrb	r3, [r2, #0]
  a8:	f043 0320 	orr.w	r3, r3, #32	; 0x20
  ac:	e7e7      	b.n	7e <Keyboard_Handling+0x7e>
C:\tien\PROJEKTY\procesory\STM\T108_V100a\sources/sys.c:320
                    Keyboard.Keyboard_Flag = 1;
                }    
                else
                {
                    Keyboards_Level &= ~KEY_DOWN;                
  ae:	7a93      	ldrb	r3, [r2, #10]
  b0:	f023 0320 	bic.w	r3, r3, #32	; 0x20
  b4:	e04e      	b.n	154 <Keyboard_Handling+0x154>
C:\tien\PROJEKTY\procesory\STM\T108_V100a\sources/sys.c:325
                }            
            break; 

            case 4:
                if ( !(GPIO_ReadInputDataBit(KBD_OUT_PORT, KBD_OUT_PIN)) )
  b6:	486b      	ldr	r0, [pc, #428]	(264 <Keyboard_Handling+0x264>)
  b8:	f44f 7180 	mov.w	r1, #256	; 0x100
  bc:	f7ff fffe 	bl	0 <GPIO_ReadInputDataBit>
  c0:	4a67      	ldr	r2, [pc, #412]	(260 <Keyboard_Handling+0x260>)
  c2:	b940      	cbnz	r0, d6 <Keyboard_Handling+0xd6>
C:\tien\PROJEKTY\procesory\STM\T108_V100a\sources/sys.c:327
                {
                    Keyboards_Level |= KEY_RIGHT;
  c4:	7a93      	ldrb	r3, [r2, #10]
  c6:	f043 0310 	orr.w	r3, r3, #16	; 0x10
  ca:	7293      	strb	r3, [r2, #10]
C:\tien\PROJEKTY\procesory\STM\T108_V100a\sources/sys.c:328
                    Keyboard.Keyboard_Memory |= KEY_RIGHT;
  cc:	4a63      	ldr	r2, [pc, #396]	(25c <Keyboard_Handling+0x25c>)
  ce:	7813      	ldrb	r3, [r2, #0]
  d0:	f043 0310 	orr.w	r3, r3, #16	; 0x10
  d4:	e7d3      	b.n	7e <Keyboard_Handling+0x7e>
C:\tien\PROJEKTY\procesory\STM\T108_V100a\sources/sys.c:333
                    Keyboard.Keyboard_Flag = 1;
                }
                else
                {
                    Keyboards_Level &= ~KEY_RIGHT;                
  d6:	7a93      	ldrb	r3, [r2, #10]
  d8:	f023 0310 	bic.w	r3, r3, #16	; 0x10
  dc:	e03a      	b.n	154 <Keyboard_Handling+0x154>
C:\tien\PROJEKTY\procesory\STM\T108_V100a\sources/sys.c:338
                }            
            break; 
            
            case 5:
                if ( !(GPIO_ReadInputDataBit(KBD_OUT_PORT, KBD_OUT_PIN)) )
  de:	4861      	ldr	r0, [pc, #388]	(264 <Keyboard_Handling+0x264>)
  e0:	f44f 7180 	mov.w	r1, #256	; 0x100
  e4:	f7ff fffe 	bl	0 <GPIO_ReadInputDataBit>
  e8:	4a5d      	ldr	r2, [pc, #372]	(260 <Keyboard_Handling+0x260>)
  ea:	b940      	cbnz	r0, fe <Keyboard_Handling+0xfe>
C:\tien\PROJEKTY\procesory\STM\T108_V100a\sources/sys.c:340
                {
                    Keyboards_Level |= KEY_ENTER;
  ec:	7a93      	ldrb	r3, [r2, #10]
  ee:	f043 0301 	orr.w	r3, r3, #1	; 0x1
  f2:	7293      	strb	r3, [r2, #10]
C:\tien\PROJEKTY\procesory\STM\T108_V100a\sources/sys.c:341
                    Keyboard.Keyboard_Memory |= KEY_ENTER;
  f4:	4a59      	ldr	r2, [pc, #356]	(25c <Keyboard_Handling+0x25c>)
  f6:	7813      	ldrb	r3, [r2, #0]
  f8:	f043 0301 	orr.w	r3, r3, #1	; 0x1
  fc:	e7bf      	b.n	7e <Keyboard_Handling+0x7e>
C:\tien\PROJEKTY\procesory\STM\T108_V100a\sources/sys.c:346
                    Keyboard.Keyboard_Flag = 1;
                }   
                else
                {
                    Keyboards_Level &= ~KEY_ENTER;                
  fe:	7a93      	ldrb	r3, [r2, #10]
 100:	f023 0301 	bic.w	r3, r3, #1	; 0x1
 104:	e026      	b.n	154 <Keyboard_Handling+0x154>
C:\tien\PROJEKTY\procesory\STM\T108_V100a\sources/sys.c:351
                }            
            break;    

            case 6:
                if ( !(GPIO_ReadInputDataBit(KBD_OUT_PORT, KBD_OUT_PIN)) )
 106:	4857      	ldr	r0, [pc, #348]	(264 <Keyboard_Handling+0x264>)
 108:	f44f 7180 	mov.w	r1, #256	; 0x100
 10c:	f7ff fffe 	bl	0 <GPIO_ReadInputDataBit>
 110:	4a53      	ldr	r2, [pc, #332]	(260 <Keyboard_Handling+0x260>)
 112:	b940      	cbnz	r0, 126 <Keyboard_Handling+0x126>
C:\tien\PROJEKTY\procesory\STM\T108_V100a\sources/sys.c:353
                {
                    Keyboards_Level |= KEY_UP;
 114:	7a93      	ldrb	r3, [r2, #10]
 116:	f043 0308 	orr.w	r3, r3, #8	; 0x8
 11a:	7293      	strb	r3, [r2, #10]
C:\tien\PROJEKTY\procesory\STM\T108_V100a\sources/sys.c:354
                    Keyboard.Keyboard_Memory |= KEY_UP;
 11c:	4a4f      	ldr	r2, [pc, #316]	(25c <Keyboard_Handling+0x25c>)
 11e:	7813      	ldrb	r3, [r2, #0]
 120:	f043 0308 	orr.w	r3, r3, #8	; 0x8
 124:	e7ab      	b.n	7e <Keyboard_Handling+0x7e>
C:\tien\PROJEKTY\procesory\STM\T108_V100a\sources/sys.c:359
                    Keyboard.Keyboard_Flag = 1;
                }   
                else
                {
                    Keyboards_Level &= ~KEY_UP;                
 126:	7a93      	ldrb	r3, [r2, #10]
 128:	f023 0308 	bic.w	r3, r3, #8	; 0x8
 12c:	e012      	b.n	154 <Keyboard_Handling+0x154>
C:\tien\PROJEKTY\procesory\STM\T108_V100a\sources/sys.c:364
                }            
            break;
            
            case 7:
                if ( !(GPIO_ReadInputDataBit(KBD_OUT_PORT, KBD_OUT_PIN)) )
 12e:	484d      	ldr	r0, [pc, #308]	(264 <Keyboard_Handling+0x264>)
 130:	f44f 7180 	mov.w	r1, #256	; 0x100
 134:	f7ff fffe 	bl	0 <GPIO_ReadInputDataBit>
 138:	4a49      	ldr	r2, [pc, #292]	(260 <Keyboard_Handling+0x260>)
 13a:	b940      	cbnz	r0, 14e <Keyboard_Handling+0x14e>
C:\tien\PROJEKTY\procesory\STM\T108_V100a\sources/sys.c:366
                {
                    Keyboards_Level |= KEY_LEFT;
 13c:	7a93      	ldrb	r3, [r2, #10]
 13e:	f043 0304 	orr.w	r3, r3, #4	; 0x4
 142:	7293      	strb	r3, [r2, #10]
C:\tien\PROJEKTY\procesory\STM\T108_V100a\sources/sys.c:367
                    Keyboard.Keyboard_Memory |= KEY_LEFT;
 144:	4a45      	ldr	r2, [pc, #276]	(25c <Keyboard_Handling+0x25c>)
 146:	7813      	ldrb	r3, [r2, #0]
 148:	f043 0304 	orr.w	r3, r3, #4	; 0x4
 14c:	e797      	b.n	7e <Keyboard_Handling+0x7e>
C:\tien\PROJEKTY\procesory\STM\T108_V100a\sources/sys.c:372
                    Keyboard.Keyboard_Flag = 1;
                }   
                else
                {
                    Keyboards_Level &= ~KEY_LEFT;                
 14e:	7a93      	ldrb	r3, [r2, #10]
 150:	f023 0304 	bic.w	r3, r3, #4	; 0x4
 154:	7293      	strb	r3, [r2, #10]
C:\tien\PROJEKTY\procesory\STM\T108_V100a\sources/sys.c:378
                }            
            break;
            }
        }
    
        switch ( Keyboard_Inputs_Select_Counter )
 156:	4b42      	ldr	r3, [pc, #264]	(260 <Keyboard_Handling+0x260>)
 158:	7d1b      	ldrb	r3, [r3, #20]
 15a:	2b07      	cmp	r3, #7
 15c:	f200 8146 	bhi.w	3ec <Keyboard_Handling+0x3ec>
 160:	e8df f013 	tbh	[pc, r3, lsl #1]
 164:	002b0008 	.word	0x002b0008
 168:	0070004d 	.word	0x0070004d
 16c:	00c300a0 	.word	0x00c300a0
 170:	011800eb 	.word	0x011800eb
C:\tien\PROJEKTY\procesory\STM\T108_V100a\sources/sys.c:382
        { 
        case 0:
 
            if ( GPIO_ReadInputDataBit(KBD_OUT_PORT, KBD_OUT_PIN) == 0 )    
 174:	483b      	ldr	r0, [pc, #236]	(264 <Keyboard_Handling+0x264>)
 176:	f44f 7180 	mov.w	r1, #256	; 0x100
 17a:	f7ff fffe 	bl	0 <GPIO_ReadInputDataBit>
 17e:	4a37      	ldr	r2, [pc, #220]	(25c <Keyboard_Handling+0x25c>)
 180:	b918      	cbnz	r0, 18a <Keyboard_Handling+0x18a>
C:\tien\PROJEKTY\procesory\STM\T108_V100a\sources/sys.c:383
                Keyboard.Keyboard_State |= KEY_ESCAPE;
 182:	7853      	ldrb	r3, [r2, #1]
 184:	f043 0302 	orr.w	r3, r3, #2	; 0x2
 188:	e002      	b.n	190 <Keyboard_Handling+0x190>
C:\tien\PROJEKTY\procesory\STM\T108_V100a\sources/sys.c:385
            else
                Keyboard.Keyboard_State &= ~KEY_ESCAPE;
 18a:	7853      	ldrb	r3, [r2, #1]
 18c:	f023 0302 	bic.w	r3, r3, #2	; 0x2
 190:	7053      	strb	r3, [r2, #1]
C:\tien\PROJEKTY\procesory\STM\T108_V100a\sources/sys.c:387

            if ( GPIO_ReadInputDataBit(PORT_IN_INPUTS, PIN_IN_INPUTS) == 0 )    
 192:	4834      	ldr	r0, [pc, #208]	(264 <Keyboard_Handling+0x264>)
 194:	2180      	movs	r1, #128
 196:	f7ff fffe 	bl	0 <GPIO_ReadInputDataBit>
 19a:	4a31      	ldr	r2, [pc, #196]	(260 <Keyboard_Handling+0x260>)
 19c:	b918      	cbnz	r0, 1a6 <Keyboard_Handling+0x1a6>
C:\tien\PROJEKTY\procesory\STM\T108_V100a\sources/sys.c:388
                Inputs_Level |= INPUT20;
 19e:	68d3      	ldr	r3, [r2, #12]
 1a0:	f443 2300 	orr.w	r3, r3, #524288	; 0x80000
 1a4:	e002      	b.n	1ac <Keyboard_Handling+0x1ac>
C:\tien\PROJEKTY\procesory\STM\T108_V100a\sources/sys.c:390
            else
                Inputs_Level &= ~INPUT20;            
 1a6:	68d3      	ldr	r3, [r2, #12]
 1a8:	f423 2300 	bic.w	r3, r3, #524288	; 0x80000
 1ac:	60d3      	str	r3, [r2, #12]
C:\tien\PROJEKTY\procesory\STM\T108_V100a\sources/sys.c:392
 
            GPIO_ResetBits(KBD_SEL1_PORT, KBD_SEL1_PIN);                   
 1ae:	482d      	ldr	r0, [pc, #180]	(264 <Keyboard_Handling+0x264>)
 1b0:	f44f 6180 	mov.w	r1, #1024	; 0x400
 1b4:	f7ff fffe 	bl	0 <GPIO_ResetBits>
 1b8:	e012      	b.n	1e0 <Keyboard_Handling+0x1e0>
C:\tien\PROJEKTY\procesory\STM\T108_V100a\sources/sys.c:400
            
            Keyboard_Inputs_Select_Counter++;
        break;
        
        case 1:   
            if ( GPIO_ReadInputDataBit(PORT_IN_INPUTS, PIN_IN_INPUTS) == 0 )    
 1ba:	482a      	ldr	r0, [pc, #168]	(264 <Keyboard_Handling+0x264>)
 1bc:	2180      	movs	r1, #128
 1be:	f7ff fffe 	bl	0 <GPIO_ReadInputDataBit>
 1c2:	4a27      	ldr	r2, [pc, #156]	(260 <Keyboard_Handling+0x260>)
 1c4:	b918      	cbnz	r0, 1ce <Keyboard_Handling+0x1ce>
C:\tien\PROJEKTY\procesory\STM\T108_V100a\sources/sys.c:401
                Inputs_Level |= INPUT13;
 1c6:	68d3      	ldr	r3, [r2, #12]
 1c8:	f443 5380 	orr.w	r3, r3, #4096	; 0x1000
 1cc:	e002      	b.n	1d4 <Keyboard_Handling+0x1d4>
C:\tien\PROJEKTY\procesory\STM\T108_V100a\sources/sys.c:403
            else
                Inputs_Level &= ~INPUT13;            
 1ce:	68d3      	ldr	r3, [r2, #12]
 1d0:	f423 5380 	bic.w	r3, r3, #4096	; 0x1000
 1d4:	60d3      	str	r3, [r2, #12]
C:\tien\PROJEKTY\procesory\STM\T108_V100a\sources/sys.c:405
             
            GPIO_SetBits(KBD_SEL1_PORT, KBD_SEL1_PIN);                   
 1d6:	4823      	ldr	r0, [pc, #140]	(264 <Keyboard_Handling+0x264>)
 1d8:	f44f 6180 	mov.w	r1, #1024	; 0x400
 1dc:	f7ff fffe 	bl	0 <GPIO_SetBits>
C:\tien\PROJEKTY\procesory\STM\T108_V100a\sources/sys.c:406
            GPIO_ResetBits(KBD_SEL2_PORT, KBD_SEL2_PIN); 
 1e0:	4820      	ldr	r0, [pc, #128]	(264 <Keyboard_Handling+0x264>)
 1e2:	f44f 6100 	mov.w	r1, #2048	; 0x800
 1e6:	f7ff fffe 	bl	0 <GPIO_ResetBits>
C:\tien\PROJEKTY\procesory\STM\T108_V100a\sources/sys.c:407
            GPIO_ResetBits(KBD_SEL3_PORT, KBD_SEL3_PIN); 
 1ea:	481e      	ldr	r0, [pc, #120]	(264 <Keyboard_Handling+0x264>)
 1ec:	f44f 5180 	mov.w	r1, #4096	; 0x1000
 1f0:	f7ff fffe 	bl	0 <GPIO_ResetBits>
C:\tien\PROJEKTY\procesory\STM\T108_V100a\sources/sys.c:409
            
            Keyboard_Inputs_Select_Counter++;
 1f4:	4a1a      	ldr	r2, [pc, #104]	(260 <Keyboard_Handling+0x260>)
 1f6:	7d13      	ldrb	r3, [r2, #20]
 1f8:	3301      	adds	r3, #1
 1fa:	7513      	strb	r3, [r2, #20]
 1fc:	e0f9      	b.n	3f2 <Keyboard_Handling+0x3f2>
C:\tien\PROJEKTY\procesory\STM\T108_V100a\sources/sys.c:413
        break;
 
        case 2:
            if ( GPIO_ReadInputDataBit(PORT_IN_INPUTS, PIN_IN_INPUTS) == 0 )    
 1fe:	4819      	ldr	r0, [pc, #100]	(264 <Keyboard_Handling+0x264>)
 200:	2180      	movs	r1, #128
 202:	f7ff fffe 	bl	0 <GPIO_ReadInputDataBit>
 206:	4a16      	ldr	r2, [pc, #88]	(260 <Keyboard_Handling+0x260>)
 208:	b918      	cbnz	r0, 212 <Keyboard_Handling+0x212>
C:\tien\PROJEKTY\procesory\STM\T108_V100a\sources/sys.c:414
                Inputs_Level |= INPUT15;
 20a:	68d3      	ldr	r3, [r2, #12]
 20c:	f443 4380 	orr.w	r3, r3, #16384	; 0x4000
 210:	e002      	b.n	218 <Keyboard_Handling+0x218>
C:\tien\PROJEKTY\procesory\STM\T108_V100a\sources/sys.c:416
            else
                Inputs_Level &= ~INPUT15;            
 212:	68d3      	ldr	r3, [r2, #12]
 214:	f423 4380 	bic.w	r3, r3, #16384	; 0x4000
 218:	60d3      	str	r3, [r2, #12]
C:\tien\PROJEKTY\procesory\STM\T108_V100a\sources/sys.c:418

            if ( GPIO_ReadInputDataBit(KBD_OUT_PORT, KBD_OUT_PIN) == 0 )    
 21a:	4812      	ldr	r0, [pc, #72]	(264 <Keyboard_Handling+0x264>)
 21c:	f44f 7180 	mov.w	r1, #256	; 0x100
 220:	f7ff fffe 	bl	0 <GPIO_ReadInputDataBit>
 224:	4a0d      	ldr	r2, [pc, #52]	(25c <Keyboard_Handling+0x25c>)
 226:	b918      	cbnz	r0, 230 <Keyboard_Handling+0x230>
C:\tien\PROJEKTY\procesory\STM\T108_V100a\sources/sys.c:419
                Keyboard.Keyboard_State |= KEY_TEST;
 228:	7853      	ldrb	r3, [r2, #1]
 22a:	f043 0340 	orr.w	r3, r3, #64	; 0x40
 22e:	e002      	b.n	236 <Keyboard_Handling+0x236>
C:\tien\PROJEKTY\procesory\STM\T108_V100a\sources/sys.c:421
            else
                Keyboard.Keyboard_State &= ~KEY_TEST;
 230:	7853      	ldrb	r3, [r2, #1]
 232:	f023 0340 	bic.w	r3, r3, #64	; 0x40
 236:	7053      	strb	r3, [r2, #1]
C:\tien\PROJEKTY\procesory\STM\T108_V100a\sources/sys.c:423

            GPIO_ResetBits(KBD_SEL1_PORT, KBD_SEL1_PIN);                   
 238:	480a      	ldr	r0, [pc, #40]	(264 <Keyboard_Handling+0x264>)
 23a:	f44f 6180 	mov.w	r1, #1024	; 0x400
 23e:	f7ff fffe 	bl	0 <GPIO_ResetBits>
 242:	e029      	b.n	298 <Keyboard_Handling+0x298>
C:\tien\PROJEKTY\procesory\STM\T108_V100a\sources/sys.c:431
            
            Keyboard_Inputs_Select_Counter++;
        break;

        case 3:
            if ( GPIO_ReadInputDataBit(PORT_IN_INPUTS, PIN_IN_INPUTS) == 0 )    
 244:	4807      	ldr	r0, [pc, #28]	(264 <Keyboard_Handling+0x264>)
 246:	2180      	movs	r1, #128
 248:	f7ff fffe 	bl	0 <GPIO_ReadInputDataBit>
 24c:	4a04      	ldr	r2, [pc, #16]	(260 <Keyboard_Handling+0x260>)
 24e:	b958      	cbnz	r0, 268 <Keyboard_Handling+0x268>
C:\tien\PROJEKTY\procesory\STM\T108_V100a\sources/sys.c:432
                Inputs_Level |= INPUT17;
 250:	68d3      	ldr	r3, [r2, #12]
 252:	f443 3380 	orr.w	r3, r3, #65536	; 0x10000
 256:	e00a      	b.n	1c <Keyboard_Handling+0x1c>
	...
 264:	40011000 	.word	0x40011000
C:\tien\PROJEKTY\procesory\STM\T108_V100a\sources/sys.c:434
            else
                Inputs_Level &= ~INPUT17;            
 268:	68d3      	ldr	r3, [r2, #12]
 26a:	f423 3380 	bic.w	r3, r3, #65536	; 0x10000
 26e:	60d3      	str	r3, [r2, #12]
C:\tien\PROJEKTY\procesory\STM\T108_V100a\sources/sys.c:436

            if ( GPIO_ReadInputDataBit(KBD_OUT_PORT, KBD_OUT_PIN) == 0 )    
 270:	4863      	ldr	r0, [pc, #396]	(400 <Keyboard_Handling+0x400>)
 272:	f44f 7180 	mov.w	r1, #256	; 0x100
 276:	f7ff fffe 	bl	0 <GPIO_ReadInputDataBit>
 27a:	4a62      	ldr	r2, [pc, #392]	(404 <Keyboard_Handling+0x404>)
 27c:	b918      	cbnz	r0, 286 <Keyboard_Handling+0x286>
C:\tien\PROJEKTY\procesory\STM\T108_V100a\sources/sys.c:437
                Keyboard.Keyboard_State |= KEY_DOWN;
 27e:	7853      	ldrb	r3, [r2, #1]
 280:	f043 0320 	orr.w	r3, r3, #32	; 0x20
 284:	e002      	b.n	28c <Keyboard_Handling+0x28c>
C:\tien\PROJEKTY\procesory\STM\T108_V100a\sources/sys.c:439
            else
                Keyboard.Keyboard_State &= ~KEY_DOWN;
 286:	7853      	ldrb	r3, [r2, #1]
 288:	f023 0320 	bic.w	r3, r3, #32	; 0x20
 28c:	7053      	strb	r3, [r2, #1]
C:\tien\PROJEKTY\procesory\STM\T108_V100a\sources/sys.c:441

            GPIO_SetBits(KBD_SEL1_PORT, KBD_SEL1_PIN);                   
 28e:	485c      	ldr	r0, [pc, #368]	(400 <Keyboard_Handling+0x400>)
 290:	f44f 6180 	mov.w	r1, #1024	; 0x400
 294:	f7ff fffe 	bl	0 <GPIO_SetBits>
C:\tien\PROJEKTY\procesory\STM\T108_V100a\sources/sys.c:442
            GPIO_SetBits(KBD_SEL2_PORT, KBD_SEL2_PIN); 
 298:	4859      	ldr	r0, [pc, #356]	(400 <Keyboard_Handling+0x400>)
 29a:	f44f 6100 	mov.w	r1, #2048	; 0x800
 29e:	f7ff fffe 	bl	0 <GPIO_SetBits>
 2a2:	e7a2      	b.n	1ea <Keyboard_Handling+0x1ea>
C:\tien\PROJEKTY\procesory\STM\T108_V100a\sources/sys.c:449
            
            Keyboard_Inputs_Select_Counter++;
        break;

        case 4:
            if ( GPIO_ReadInputDataBit(PORT_IN_INPUTS, PIN_IN_INPUTS) == 0 )    
 2a4:	4856      	ldr	r0, [pc, #344]	(400 <Keyboard_Handling+0x400>)
 2a6:	2180      	movs	r1, #128
 2a8:	f7ff fffe 	bl	0 <GPIO_ReadInputDataBit>
 2ac:	4a56      	ldr	r2, [pc, #344]	(408 <Keyboard_Handling+0x408>)
 2ae:	b918      	cbnz	r0, 2b8 <Keyboard_Handling+0x2b8>
C:\tien\PROJEKTY\procesory\STM\T108_V100a\sources/sys.c:450
                Inputs_Level |= INPUT19;
 2b0:	68d3      	ldr	r3, [r2, #12]
 2b2:	f443 2380 	orr.w	r3, r3, #262144	; 0x40000
 2b6:	e002      	b.n	2be <Keyboard_Handling+0x2be>
C:\tien\PROJEKTY\procesory\STM\T108_V100a\sources/sys.c:452
            else
                Inputs_Level &= ~INPUT19;            
 2b8:	68d3      	ldr	r3, [r2, #12]
 2ba:	f423 2380 	bic.w	r3, r3, #262144	; 0x40000
 2be:	60d3      	str	r3, [r2, #12]
C:\tien\PROJEKTY\procesory\STM\T108_V100a\sources/sys.c:454

            if ( GPIO_ReadInputDataBit(KBD_OUT_PORT, KBD_OUT_PIN) == 0 )    
 2c0:	484f      	ldr	r0, [pc, #316]	(400 <Keyboard_Handling+0x400>)
 2c2:	f44f 7180 	mov.w	r1, #256	; 0x100
 2c6:	f7ff fffe 	bl	0 <GPIO_ReadInputDataBit>
 2ca:	4a4e      	ldr	r2, [pc, #312]	(404 <Keyboard_Handling+0x404>)
 2cc:	b918      	cbnz	r0, 2d6 <Keyboard_Handling+0x2d6>
C:\tien\PROJEKTY\procesory\STM\T108_V100a\sources/sys.c:455
                Keyboard.Keyboard_State |= KEY_RIGHT;
 2ce:	7853      	ldrb	r3, [r2, #1]
 2d0:	f043 0310 	orr.w	r3, r3, #16	; 0x10
 2d4:	e002      	b.n	2dc <Keyboard_Handling+0x2dc>
C:\tien\PROJEKTY\procesory\STM\T108_V100a\sources/sys.c:457
            else
                Keyboard.Keyboard_State &= ~KEY_RIGHT;
 2d6:	7853      	ldrb	r3, [r2, #1]
 2d8:	f023 0310 	bic.w	r3, r3, #16	; 0x10
 2dc:	7053      	strb	r3, [r2, #1]
C:\tien\PROJEKTY\procesory\STM\T108_V100a\sources/sys.c:459

            GPIO_ResetBits(KBD_SEL1_PORT, KBD_SEL1_PIN);                   
 2de:	4848      	ldr	r0, [pc, #288]	(400 <Keyboard_Handling+0x400>)
 2e0:	f44f 6180 	mov.w	r1, #1024	; 0x400
 2e4:	f7ff fffe 	bl	0 <GPIO_ResetBits>
 2e8:	e021      	b.n	32e <Keyboard_Handling+0x32e>
C:\tien\PROJEKTY\procesory\STM\T108_V100a\sources/sys.c:467
            
            Keyboard_Inputs_Select_Counter++;
        break;

        case 5:
            if ( GPIO_ReadInputDataBit(PORT_IN_INPUTS, PIN_IN_INPUTS) == 0 )    
 2ea:	4845      	ldr	r0, [pc, #276]	(400 <Keyboard_Handling+0x400>)
 2ec:	2180      	movs	r1, #128
 2ee:	f7ff fffe 	bl	0 <GPIO_ReadInputDataBit>
 2f2:	4a45      	ldr	r2, [pc, #276]	(408 <Keyboard_Handling+0x408>)
 2f4:	b918      	cbnz	r0, 2fe <Keyboard_Handling+0x2fe>
C:\tien\PROJEKTY\procesory\STM\T108_V100a\sources/sys.c:468
                Inputs_Level |= INPUT14;
 2f6:	68d3      	ldr	r3, [r2, #12]
 2f8:	f443 5300 	orr.w	r3, r3, #8192	; 0x2000
 2fc:	e002      	b.n	304 <Keyboard_Handling+0x304>
C:\tien\PROJEKTY\procesory\STM\T108_V100a\sources/sys.c:470
            else
                Inputs_Level &= ~INPUT14;            
 2fe:	68d3      	ldr	r3, [r2, #12]
 300:	f423 5300 	bic.w	r3, r3, #8192	; 0x2000
 304:	60d3      	str	r3, [r2, #12]
C:\tien\PROJEKTY\procesory\STM\T108_V100a\sources/sys.c:472

            if ( GPIO_ReadInputDataBit(KBD_OUT_PORT, KBD_OUT_PIN) == 0 )    
 306:	483e      	ldr	r0, [pc, #248]	(400 <Keyboard_Handling+0x400>)
 308:	f44f 7180 	mov.w	r1, #256	; 0x100
 30c:	f7ff fffe 	bl	0 <GPIO_ReadInputDataBit>
 310:	4a3c      	ldr	r2, [pc, #240]	(404 <Keyboard_Handling+0x404>)
 312:	b918      	cbnz	r0, 31c <Keyboard_Handling+0x31c>
C:\tien\PROJEKTY\procesory\STM\T108_V100a\sources/sys.c:473
                Keyboard.Keyboard_State |= KEY_ENTER;
 314:	7853      	ldrb	r3, [r2, #1]
 316:	f043 0301 	orr.w	r3, r3, #1	; 0x1
 31a:	e002      	b.n	322 <Keyboard_Handling+0x322>
C:\tien\PROJEKTY\procesory\STM\T108_V100a\sources/sys.c:475
            else
                Keyboard.Keyboard_State &= ~KEY_ENTER;
 31c:	7853      	ldrb	r3, [r2, #1]
 31e:	f023 0301 	bic.w	r3, r3, #1	; 0x1
 322:	7053      	strb	r3, [r2, #1]
C:\tien\PROJEKTY\procesory\STM\T108_V100a\sources/sys.c:477

            GPIO_SetBits(KBD_SEL1_PORT, KBD_SEL1_PIN);                   
 324:	4836      	ldr	r0, [pc, #216]	(400 <Keyboard_Handling+0x400>)
 326:	f44f 6180 	mov.w	r1, #1024	; 0x400
 32a:	f7ff fffe 	bl	0 <GPIO_SetBits>
C:\tien\PROJEKTY\procesory\STM\T108_V100a\sources/sys.c:478
            GPIO_ResetBits(KBD_SEL2_PORT, KBD_SEL2_PIN); 
 32e:	4834      	ldr	r0, [pc, #208]	(400 <Keyboard_Handling+0x400>)
 330:	f44f 6100 	mov.w	r1, #2048	; 0x800
 334:	f7ff fffe 	bl	0 <GPIO_ResetBits>
 338:	e026      	b.n	388 <Keyboard_Handling+0x388>
C:\tien\PROJEKTY\procesory\STM\T108_V100a\sources/sys.c:485
            
            Keyboard_Inputs_Select_Counter++;
        break;  

        case 6:
            if ( GPIO_ReadInputDataBit(PORT_IN_INPUTS, PIN_IN_INPUTS) == 0 )    
 33a:	4831      	ldr	r0, [pc, #196]	(400 <Keyboard_Handling+0x400>)
 33c:	2180      	movs	r1, #128
 33e:	f7ff fffe 	bl	0 <GPIO_ReadInputDataBit>
 342:	4a31      	ldr	r2, [pc, #196]	(408 <Keyboard_Handling+0x408>)
 344:	b918      	cbnz	r0, 34e <Keyboard_Handling+0x34e>
C:\tien\PROJEKTY\procesory\STM\T108_V100a\sources/sys.c:486
                Inputs_Level |= INPUT16;
 346:	68d3      	ldr	r3, [r2, #12]
 348:	f443 4300 	orr.w	r3, r3, #32768	; 0x8000
 34c:	e002      	b.n	354 <Keyboard_Handling+0x354>
C:\tien\PROJEKTY\procesory\STM\T108_V100a\sources/sys.c:488
            else
                Inputs_Level &= ~INPUT16;            
 34e:	68d3      	ldr	r3, [r2, #12]
 350:	f423 4300 	bic.w	r3, r3, #32768	; 0x8000
 354:	60d3      	str	r3, [r2, #12]
C:\tien\PROJEKTY\procesory\STM\T108_V100a\sources/sys.c:490

            if ( GPIO_ReadInputDataBit(KBD_OUT_PORT, KBD_OUT_PIN) == 0 )    
 356:	482a      	ldr	r0, [pc, #168]	(400 <Keyboard_Handling+0x400>)
 358:	f44f 7180 	mov.w	r1, #256	; 0x100
 35c:	f7ff fffe 	bl	0 <GPIO_ReadInputDataBit>
 360:	4a28      	ldr	r2, [pc, #160]	(404 <Keyboard_Handling+0x404>)
 362:	b918      	cbnz	r0, 36c <Keyboard_Handling+0x36c>
C:\tien\PROJEKTY\procesory\STM\T108_V100a\sources/sys.c:491
                Keyboard.Keyboard_State |= KEY_UP;
 364:	7853      	ldrb	r3, [r2, #1]
 366:	f043 0308 	orr.w	r3, r3, #8	; 0x8
 36a:	e002      	b.n	372 <Keyboard_Handling+0x372>
C:\tien\PROJEKTY\procesory\STM\T108_V100a\sources/sys.c:493
            else
                Keyboard.Keyboard_State &= ~KEY_UP;
 36c:	7853      	ldrb	r3, [r2, #1]
 36e:	f023 0308 	bic.w	r3, r3, #8	; 0x8
C:\tien\PROJEKTY\procesory\STM\T108_V100a\sources/sys.c:495

            GPIO_ResetBits(KBD_SEL1_PORT, KBD_SEL1_PIN);                   
 372:	4823      	ldr	r0, [pc, #140]	(400 <Keyboard_Handling+0x400>)
 374:	f44f 6180 	mov.w	r1, #1024	; 0x400
C:\tien\PROJEKTY\procesory\STM\T108_V100a\sources/sys.c:493
                Inputs_Level &= ~INPUT16;            

            if ( GPIO_ReadInputDataBit(KBD_OUT_PORT, KBD_OUT_PIN) == 0 )    
                Keyboard.Keyboard_State |= KEY_UP;
            else
                Keyboard.Keyboard_State &= ~KEY_UP;
 378:	7053      	strb	r3, [r2, #1]
C:\tien\PROJEKTY\procesory\STM\T108_V100a\sources/sys.c:495

            GPIO_ResetBits(KBD_SEL1_PORT, KBD_SEL1_PIN);                   
 37a:	f7ff fffe 	bl	0 <GPIO_ResetBits>
C:\tien\PROJEKTY\procesory\STM\T108_V100a\sources/sys.c:496
            GPIO_SetBits(KBD_SEL2_PORT, KBD_SEL2_PIN); 
 37e:	4820      	ldr	r0, [pc, #128]	(400 <Keyboard_Handling+0x400>)
 380:	f44f 6100 	mov.w	r1, #2048	; 0x800
 384:	f7ff fffe 	bl	0 <GPIO_SetBits>
C:\tien\PROJEKTY\procesory\STM\T108_V100a\sources/sys.c:497
            GPIO_SetBits(KBD_SEL3_PORT, KBD_SEL3_PIN); 
 388:	481d      	ldr	r0, [pc, #116]	(400 <Keyboard_Handling+0x400>)
 38a:	f44f 5180 	mov.w	r1, #4096	; 0x1000
 38e:	f7ff fffe 	bl	0 <GPIO_SetBits>
 392:	e72f      	b.n	1f4 <Keyboard_Handling+0x1f4>
C:\tien\PROJEKTY\procesory\STM\T108_V100a\sources/sys.c:503
            
            Keyboard_Inputs_Select_Counter++;
        break; 

        case 7:
            if ( GPIO_ReadInputDataBit(PORT_IN_INPUTS, PIN_IN_INPUTS) == 0 )    
 394:	481a      	ldr	r0, [pc, #104]	(400 <Keyboard_Handling+0x400>)
 396:	2180      	movs	r1, #128
 398:	f7ff fffe 	bl	0 <GPIO_ReadInputDataBit>
 39c:	4a1a      	ldr	r2, [pc, #104]	(408 <Keyboard_Handling+0x408>)
 39e:	b918      	cbnz	r0, 3a8 <Keyboard_Handling+0x3a8>
C:\tien\PROJEKTY\procesory\STM\T108_V100a\sources/sys.c:504
                Inputs_Level |= INPUT18;
 3a0:	68d3      	ldr	r3, [r2, #12]
 3a2:	f443 3300 	orr.w	r3, r3, #131072	; 0x20000
 3a6:	e002      	b.n	3ae <Keyboard_Handling+0x3ae>
C:\tien\PROJEKTY\procesory\STM\T108_V100a\sources/sys.c:506
            else
                Inputs_Level &= ~INPUT18;            
 3a8:	68d3      	ldr	r3, [r2, #12]
 3aa:	f423 3300 	bic.w	r3, r3, #131072	; 0x20000
 3ae:	60d3      	str	r3, [r2, #12]
C:\tien\PROJEKTY\procesory\STM\T108_V100a\sources/sys.c:508

            if ( GPIO_ReadInputDataBit(KBD_OUT_PORT, KBD_OUT_PIN) == 0 )    
 3b0:	4813      	ldr	r0, [pc, #76]	(400 <Keyboard_Handling+0x400>)
 3b2:	f44f 7180 	mov.w	r1, #256	; 0x100
 3b6:	f7ff fffe 	bl	0 <GPIO_ReadInputDataBit>
 3ba:	4a12      	ldr	r2, [pc, #72]	(404 <Keyboard_Handling+0x404>)
 3bc:	b918      	cbnz	r0, 3c6 <Keyboard_Handling+0x3c6>
C:\tien\PROJEKTY\procesory\STM\T108_V100a\sources/sys.c:509
                Keyboard.Keyboard_State |= KEY_LEFT;
 3be:	7853      	ldrb	r3, [r2, #1]
 3c0:	f043 0304 	orr.w	r3, r3, #4	; 0x4
 3c4:	e002      	b.n	3cc <Keyboard_Handling+0x3cc>
C:\tien\PROJEKTY\procesory\STM\T108_V100a\sources/sys.c:511
            else
                Keyboard.Keyboard_State &= ~KEY_LEFT;
 3c6:	7853      	ldrb	r3, [r2, #1]
 3c8:	f023 0304 	bic.w	r3, r3, #4	; 0x4
 3cc:	7053      	strb	r3, [r2, #1]
C:\tien\PROJEKTY\procesory\STM\T108_V100a\sources/sys.c:513

            GPIO_SetBits(KBD_SEL1_PORT, KBD_SEL1_PIN);                   
 3ce:	480c      	ldr	r0, [pc, #48]	(400 <Keyboard_Handling+0x400>)
 3d0:	f44f 6180 	mov.w	r1, #1024	; 0x400
 3d4:	f7ff fffe 	bl	0 <GPIO_SetBits>
C:\tien\PROJEKTY\procesory\STM\T108_V100a\sources/sys.c:514
            GPIO_SetBits(KBD_SEL2_PORT, KBD_SEL2_PIN); 
 3d8:	4809      	ldr	r0, [pc, #36]	(400 <Keyboard_Handling+0x400>)
 3da:	f44f 6100 	mov.w	r1, #2048	; 0x800
 3de:	f7ff fffe 	bl	0 <GPIO_SetBits>
C:\tien\PROJEKTY\procesory\STM\T108_V100a\sources/sys.c:515
            GPIO_SetBits(KBD_SEL3_PORT, KBD_SEL3_PIN); 
 3e2:	4807      	ldr	r0, [pc, #28]	(400 <Keyboard_Handling+0x400>)
 3e4:	f44f 5180 	mov.w	r1, #4096	; 0x1000
 3e8:	f7ff fffe 	bl	0 <GPIO_SetBits>
C:\tien\PROJEKTY\procesory\STM\T108_V100a\sources/sys.c:521
            
            Keyboard_Inputs_Select_Counter = 0;
        break;  
            
        default:
            Keyboard_Inputs_Select_Counter = 0;
 3ec:	4b06      	ldr	r3, [pc, #24]	(408 <Keyboard_Handling+0x408>)
 3ee:	2200      	movs	r2, #0
 3f0:	751a      	strb	r2, [r3, #20]
C:\tien\PROJEKTY\procesory\STM\T108_V100a\sources/sys.c:525
        break;
        }

		System_Timer_Setting ( &Keyboard_Timer.Timer, KBD_SAMPLE_TIME, T_10msec );
 3f2:	2101      	movs	r1, #1
 3f4:	4805      	ldr	r0, [pc, #20]	(40c <Keyboard_Handling+0x40c>)
 3f6:	460a      	mov	r2, r1
 3f8:	f7ff fffe 	bl	0 <Keyboard_Handling>
C:\tien\PROJEKTY\procesory\STM\T108_V100a\sources/sys.c:528
    }

}
 3fc:	bd10      	pop	{r4, pc}
 3fe:	46c0      	nop			(mov r8, r8)
 400:	40011000 	.word	0x40011000
	...
Disassembly of section .text.Periods_Handling:

00000000 <Periods_Handling>:
Periods_Handling():
C:\tien\PROJEKTY\procesory\STM\T108_V100a\sources/sys.c:816
                         uint8_t Hour_4,
                         uint8_t Minute_1,
                         uint8_t Minute_2,
                         uint8_t Minute_3,
                         uint8_t Minute_4 )
{
   0:	e92d 4ff7 	stmdb	sp!, {r0, r1, r2, r4, r5, r6, r7, r8, r9, sl, fp, lr}
   4:	4607      	mov	r7, r0
   6:	461e      	mov	r6, r3
   8:	f89d 3034 	ldrb.w	r3, [sp, #52]
C:\tien\PROJEKTY\procesory\STM\T108_V100a\sources/sys.c:833
    Period_4 = ( Hour_4 * 3600) + ( Minute_4 * 60 );
 
    Period1_Marker = FALSE;
    Period2_Marker = FALSE;

    if ( Period1_Enable == TRUE )
   c:	2f01      	cmp	r7, #1
C:\tien\PROJEKTY\procesory\STM\T108_V100a\sources/sys.c:816
                         uint8_t Hour_4,
                         uint8_t Minute_1,
                         uint8_t Minute_2,
                         uint8_t Minute_3,
                         uint8_t Minute_4 )
{
   e:	468a      	mov	sl, r1
  10:	f89d b030 	ldrb.w	fp, [sp, #48]
  14:	4611      	mov	r1, r2
  16:	9301      	str	r3, [sp, #4]
  18:	f89d 0038 	ldrb.w	r0, [sp, #56]
  1c:	f89d 503c 	ldrb.w	r5, [sp, #60]
  20:	f89d 8040 	ldrb.w	r8, [sp, #64]
  24:	f89d 9044 	ldrb.w	r9, [sp, #68]
C:\tien\PROJEKTY\procesory\STM\T108_V100a\sources/sys.c:833
    Period_4 = ( Hour_4 * 3600) + ( Minute_4 * 60 );
 
    Period1_Marker = FALSE;
    Period2_Marker = FALSE;

    if ( Period1_Enable == TRUE )
  28:	d11d      	bne.n	66 <Periods_Handling+0x66>
C:\tien\PROJEKTY\procesory\STM\T108_V100a\sources/sys.c:825
    uint32_t Period_1;
    uint32_t Period_2;
    uint32_t Period_3;
    uint32_t Period_4;

    Period_1 = ( Hour_1 * 3600) + ( Minute_1 * 60 );
  2a:	f44f 6261 	mov.w	r2, #3600	; 0xe10
  2e:	4351      	muls	r1, r2
C:\tien\PROJEKTY\procesory\STM\T108_V100a\sources/sys.c:826
    Period_2 = ( Hour_2 * 3600) + ( Minute_2 * 60 );
  30:	4372      	muls	r2, r6
C:\tien\PROJEKTY\procesory\STM\T108_V100a\sources/sys.c:825
    uint32_t Period_1;
    uint32_t Period_2;
    uint32_t Period_3;
    uint32_t Period_4;

    Period_1 = ( Hour_1 * 3600) + ( Minute_1 * 60 );
  32:	233c      	movs	r3, #60
  34:	fb03 1400 	mla	r4, r3, r0, r1
C:\tien\PROJEKTY\procesory\STM\T108_V100a\sources/sys.c:826
    Period_2 = ( Hour_2 * 3600) + ( Minute_2 * 60 );
  38:	fb03 2505 	mla	r5, r3, r5, r2
C:\tien\PROJEKTY\procesory\STM\T108_V100a\sources/sys.c:835
    Period1_Marker = FALSE;
    Period2_Marker = FALSE;

    if ( Period1_Enable == TRUE )
    {
        if ( Period_1 < Period_2 )
  3c:	42ac      	cmp	r4, r5
  3e:	d204      	bcs.n	4a <Periods_Handling+0x4a>
C:\tien\PROJEKTY\procesory\STM\T108_V100a\sources/sys.c:837
        {
            if ( (RTC_GetCounter() >= Period_1) && (RTC_GetCounter() <= Period_2) )
  40:	f7ff fffe 	bl	0 <RTC_GetCounter>
  44:	42a0      	cmp	r0, r4
  46:	d30e      	bcc.n	66 <Periods_Handling+0x66>
  48:	e006      	b.n	58 <Periods_Handling+0x58>
C:\tien\PROJEKTY\procesory\STM\T108_V100a\sources/sys.c:842
            {
                Period1_Marker = TRUE;
            }
        }
        else if ( Period_1 > Period_2 )
  4a:	d90c      	bls.n	66 <Periods_Handling+0x66>
C:\tien\PROJEKTY\procesory\STM\T108_V100a\sources/sys.c:844
        {
            if ( (RTC_GetCounter() >= Period_1) || (RTC_GetCounter() <= Period_2) )
  4c:	f7ff fffe 	bl	0 <RTC_GetCounter>
  50:	42a0      	cmp	r0, r4
  52:	d301      	bcc.n	58 <Periods_Handling+0x58>
  54:	463e      	mov	r6, r7
  56:	e007      	b.n	68 <Periods_Handling+0x68>
  58:	f7ff fffe 	bl	0 <RTC_GetCounter>
  5c:	42a8      	cmp	r0, r5
  5e:	bf8c      	ite	hi
  60:	2600      	movhi	r6, #0
  62:	2601      	movls	r6, #1
  64:	e000      	b.n	68 <Periods_Handling+0x68>
  66:	2600      	movs	r6, #0
C:\tien\PROJEKTY\procesory\STM\T108_V100a\sources/sys.c:851
                Period1_Marker = TRUE;
            } 
        }
    }

    if ( Period2_Enable == TRUE )
  68:	f1ba 0f01 	cmp.w	sl, #1	; 0x1
  6c:	d118      	bne.n	a0 <Periods_Handling+0xa0>
C:\tien\PROJEKTY\procesory\STM\T108_V100a\sources/sys.c:827
    uint32_t Period_3;
    uint32_t Period_4;

    Period_1 = ( Hour_1 * 3600) + ( Minute_1 * 60 );
    Period_2 = ( Hour_2 * 3600) + ( Minute_2 * 60 );
    Period_3 = ( Hour_3 * 3600) + ( Minute_3 * 60 );
  6e:	f44f 6261 	mov.w	r2, #3600	; 0xe10
  72:	fb02 f10b 	mul.w	r1, r2, fp
  76:	233c      	movs	r3, #60
  78:	fb03 1408 	mla	r4, r3, r8, r1
C:\tien\PROJEKTY\procesory\STM\T108_V100a\sources/sys.c:828
    Period_4 = ( Hour_4 * 3600) + ( Minute_4 * 60 );
  7c:	9901      	ldr	r1, [sp, #4]
  7e:	434a      	muls	r2, r1
  80:	fb03 2509 	mla	r5, r3, r9, r2
C:\tien\PROJEKTY\procesory\STM\T108_V100a\sources/sys.c:853
        }
    }

    if ( Period2_Enable == TRUE )
    {
        if ( Period_3 < Period_4 )
  84:	42ac      	cmp	r4, r5
  86:	d300      	bcc.n	8a <Periods_Handling+0x8a>
C:\tien\PROJEKTY\procesory\STM\T108_V100a\sources/sys.c:860
            if ( (RTC_GetCounter() >= Period_3) && (RTC_GetCounter() <= Period_4) )
            {
                Period2_Marker = TRUE;
            }
        }
        else if ( Period_3 > Period_4 )
  88:	d90a      	bls.n	a0 <Periods_Handling+0xa0>
C:\tien\PROJEKTY\procesory\STM\T108_V100a\sources/sys.c:862
        {
            if ( (RTC_GetCounter() >= Period_3) && (RTC_GetCounter() <= Period_4) )
  8a:	f7ff fffe 	bl	0 <RTC_GetCounter>
  8e:	42a0      	cmp	r0, r4
  90:	d306      	bcc.n	a0 <Periods_Handling+0xa0>
  92:	f7ff fffe 	bl	0 <RTC_GetCounter>
  96:	42a8      	cmp	r0, r5
  98:	bf8c      	ite	hi
  9a:	2000      	movhi	r0, #0
  9c:	2001      	movls	r0, #1
  9e:	e000      	b.n	a2 <RTC_GetCounter+0xa2>
  a0:	2000      	movs	r0, #0
C:\tien\PROJEKTY\procesory\STM\T108_V100a\sources/sys.c:869
                Period2_Marker = TRUE;
            }
        } 
    }

    if ( Period1_Marker == TRUE || Period2_Marker == TRUE )
  a2:	2e01      	cmp	r6, #1
  a4:	bf08      	it	eq
  a6:	4630      	moveq	r0, r6
C:\tien\PROJEKTY\procesory\STM\T108_V100a\sources/sys.c:873
        return TRUE;
    else
        return FALSE;;
}
  a8:	e8bd 8ffe 	ldmia.w	sp!, {r1, r2, r3, r4, r5, r6, r7, r8, r9, sl, fp, pc}
Disassembly of section .text.Analog_Measure:

00000000 <Analog_Measure>:
Analog_Measure():
C:\tien\PROJEKTY\procesory\STM\T108_V100a\sources/sys.c:772
* Input          : None
* Output         : None
* Return         : None
*******************************************************************************/
void Analog_Measure ( void )
{
   0:	b510      	push	{r4, lr}
C:\tien\PROJEKTY\procesory\STM\T108_V100a\sources/sys.c:776
    static const int16_t T25 = 1750;
    static const int16_t Avg_Slope = 5;

	if ( System_Timer_Check ( &Temperature_Timer.Timer, T_10msec ) == TRUE )
   2:	2101      	movs	r1, #1
   4:	4819      	ldr	r0, [pc, #100]	(6c <Analog_Measure+0x6c>)
   6:	f7ff fffe 	bl	0 <Analog_Measure>
   a:	2801      	cmp	r0, #1
   c:	4604      	mov	r4, r0
   e:	d10b      	bne.n	28 <Analog_Measure+0x28>
C:\tien\PROJEKTY\procesory\STM\T108_V100a\sources/sys.c:778
	{    
        ADC_SoftwareStartConvCmd(ADC1, ENABLE);
  10:	4817      	ldr	r0, [pc, #92]	(70 <Analog_Measure+0x70>)
  12:	4621      	mov	r1, r4
  14:	f7ff fffe 	bl	0 <ADC_SoftwareStartConvCmd>
C:\tien\PROJEKTY\procesory\STM\T108_V100a\sources/sys.c:779
        ADC_MEASURED = FALSE;
  18:	4b16      	ldr	r3, [pc, #88]	(74 <Analog_Measure+0x74>)
  1a:	2200      	movs	r2, #0
  1c:	755a      	strb	r2, [r3, #21]
C:\tien\PROJEKTY\procesory\STM\T108_V100a\sources/sys.c:780
        System_Timer_Setting ( &Temperature_Timer.Timer, T_SAMPLE_TIME, T_10msec );
  1e:	4813      	ldr	r0, [pc, #76]	(6c <Analog_Measure+0x6c>)
  20:	2103      	movs	r1, #3
  22:	4622      	mov	r2, r4
  24:	f7ff fffe 	bl	0 <Analog_Measure>
C:\tien\PROJEKTY\procesory\STM\T108_V100a\sources/sys.c:783
    }

    if ( ADC_MEASURED == TRUE )
  28:	4a12      	ldr	r2, [pc, #72]	(74 <Analog_Measure+0x74>)
  2a:	7d53      	ldrb	r3, [r2, #21]
  2c:	2b01      	cmp	r3, #1
  2e:	d11b      	bne.n	68 <Analog_Measure+0x68>
C:\tien\PROJEKTY\procesory\STM\T108_V100a\sources/sys.c:785
    {
        ADC_MEASURED = FALSE;
  30:	3b01      	subs	r3, #1
  32:	7553      	strb	r3, [r2, #21]
C:\tien\PROJEKTY\procesory\STM\T108_V100a\sources/sys.c:787
    
        Controller_Variables.Controller_Vars.AD_0 = ADC_ConvertedValueTab[0];
  34:	4a10      	ldr	r2, [pc, #64]	(78 <Analog_Measure+0x78>)
  36:	4911      	ldr	r1, [pc, #68]	(7c <Analog_Measure+0x7c>)
  38:	8813      	ldrh	r3, [r2, #0]
  3a:	820b      	strh	r3, [r1, #16]
C:\tien\PROJEKTY\procesory\STM\T108_V100a\sources/sys.c:788
        Controller_Variables.Controller_Vars.AD_1 = ADC_ConvertedValueTab[1];
  3c:	8853      	ldrh	r3, [r2, #2]
  3e:	824b      	strh	r3, [r1, #18]
C:\tien\PROJEKTY\procesory\STM\T108_V100a\sources/sys.c:789
        Controller_Variables.Controller_Vars.AD_8 = ADC_ConvertedValueTab[2];
  40:	8893      	ldrh	r3, [r2, #4]
  42:	828b      	strh	r3, [r1, #20]
C:\tien\PROJEKTY\procesory\STM\T108_V100a\sources/sys.c:790
        Controller_Variables.Controller_Vars.AD_9 = ADC_ConvertedValueTab[3];
  44:	88d3      	ldrh	r3, [r2, #6]
  46:	82cb      	strh	r3, [r1, #22]
C:\tien\PROJEKTY\procesory\STM\T108_V100a\sources/sys.c:791
        Controller_Variables.Controller_Vars.AD_14 = ADC_ConvertedValueTab[4];
  48:	8913      	ldrh	r3, [r2, #8]
  4a:	830b      	strh	r3, [r1, #24]
C:\tien\PROJEKTY\procesory\STM\T108_V100a\sources/sys.c:792
        Controller_Variables.Controller_Vars.AD_15 = ADC_ConvertedValueTab[5];
  4c:	8953      	ldrh	r3, [r2, #10]
  4e:	834b      	strh	r3, [r1, #26]
C:\tien\PROJEKTY\procesory\STM\T108_V100a\sources/sys.c:793
        Controller_Variables.Controller_Vars.AD_16 = ADC_ConvertedValueTab[6];
  50:	8993      	ldrh	r3, [r2, #12]
C:\tien\PROJEKTY\procesory\STM\T108_V100a\sources/sys.c:795

        Controller_Variables.Controller_Vars.Internal_Temperature = (int16_t)(T25-Controller_Variables.Controller_Vars.AD_16)/Avg_Slope + 25;
  52:	2205      	movs	r2, #5
C:\tien\PROJEKTY\procesory\STM\T108_V100a\sources/sys.c:793
        Controller_Variables.Controller_Vars.AD_1 = ADC_ConvertedValueTab[1];
        Controller_Variables.Controller_Vars.AD_8 = ADC_ConvertedValueTab[2];
        Controller_Variables.Controller_Vars.AD_9 = ADC_ConvertedValueTab[3];
        Controller_Variables.Controller_Vars.AD_14 = ADC_ConvertedValueTab[4];
        Controller_Variables.Controller_Vars.AD_15 = ADC_ConvertedValueTab[5];
        Controller_Variables.Controller_Vars.AD_16 = ADC_ConvertedValueTab[6];
  54:	b29b      	uxth	r3, r3
  56:	838b      	strh	r3, [r1, #28]
C:\tien\PROJEKTY\procesory\STM\T108_V100a\sources/sys.c:795

        Controller_Variables.Controller_Vars.Internal_Temperature = (int16_t)(T25-Controller_Variables.Controller_Vars.AD_16)/Avg_Slope + 25;
  58:	f5c3 63da 	rsb	r3, r3, #1744	; 0x6d0
  5c:	3306      	adds	r3, #6
  5e:	b21b      	sxth	r3, r3
  60:	fb93 f3f2 	sdiv	r3, r3, r2
  64:	3319      	adds	r3, #25
  66:	840b      	strh	r3, [r1, #32]
C:\tien\PROJEKTY\procesory\STM\T108_V100a\sources/sys.c:797
    }
}
  68:	bd10      	pop	{r4, pc}
  6a:	46c0      	nop			(mov r8, r8)
  6c:	00000000 	.word	0x00000000
  70:	40012400 	.word	0x40012400
	...
Disassembly of section .text.Sys_sys:

00000000 <Sys_sys>:
Sys_sys():
C:\tien\PROJEKTY\procesory\STM\T108_V100a\sources/sys.c:179
* Output         : None
* Return         : None
*******************************************************************************/
void Sys_sys ( void )
{
    Controller_Variables.Controller_Vars.Machine_State_Var = (uint16_t)Machine_State;
   0:	4b22      	ldr	r3, [pc, #136]	(8c <Sys_sys+0x8c>)
C:\tien\PROJEKTY\procesory\STM\T108_V100a\sources/sys.c:178
* Input          : None
* Output         : None
* Return         : None
*******************************************************************************/
void Sys_sys ( void )
{
   2:	b570      	push	{r4, r5, r6, lr}
C:\tien\PROJEKTY\procesory\STM\T108_V100a\sources/sys.c:179
    Controller_Variables.Controller_Vars.Machine_State_Var = (uint16_t)Machine_State;
   4:	781a      	ldrb	r2, [r3, #0]
   6:	4b22      	ldr	r3, [pc, #136]	(90 <Sys_sys+0x90>)
C:\tien\PROJEKTY\procesory\STM\T108_V100a\sources/sys.c:195
    RS485_Send();
    Motor_24VDC_handling();
    Status_Handling();


    PULSE_LAMP_FLAG = Square_Generator ( &Lamp_Timer.Timer, Service_Variables.Serv_Vars.Serwis_021, T_10msec );
   8:	4c22      	ldr	r4, [pc, #136]	(94 <Sys_sys+0x94>)
C:\tien\PROJEKTY\procesory\STM\T108_V100a\sources/sys.c:179
* Output         : None
* Return         : None
*******************************************************************************/
void Sys_sys ( void )
{
    Controller_Variables.Controller_Vars.Machine_State_Var = (uint16_t)Machine_State;
   a:	845a      	strh	r2, [r3, #34]
C:\tien\PROJEKTY\procesory\STM\T108_V100a\sources/sys.c:181

    AS5040_Angle_Handling();
   c:	f7ff fffe 	bl	0 <Sys_sys>
C:\tien\PROJEKTY\procesory\STM\T108_V100a\sources/sys.c:182
    Analog_Measure();
  10:	f7ff fffe 	bl	0 <Sys_sys>
C:\tien\PROJEKTY\procesory\STM\T108_V100a\sources/sys.c:183
    Keyboard_Handling();
  14:	f7ff fffe 	bl	0 <Sys_sys>
C:\tien\PROJEKTY\procesory\STM\T108_V100a\sources/sys.c:184
    Inputs_Handling();
  18:	f7ff fffe 	bl	0 <Sys_sys>
C:\tien\PROJEKTY\procesory\STM\T108_V100a\sources/sys.c:185
    RTC_Handler();
  1c:	f7ff fffe 	bl	0 <RTC_Handler>
C:\tien\PROJEKTY\procesory\STM\T108_V100a\sources/sys.c:186
    WWDT_Handler();
  20:	f7ff fffe 	bl	0 <WWDT_Handler>
C:\tien\PROJEKTY\procesory\STM\T108_V100a\sources/sys.c:187
    Inputs_Alert();
  24:	f7ff fffe 	bl	0 <Inputs_Alert>
C:\tien\PROJEKTY\procesory\STM\T108_V100a\sources/sys.c:188
    Inputs_Stop();
  28:	f7ff fffe 	bl	0 <Inputs_Stop>
C:\tien\PROJEKTY\procesory\STM\T108_V100a\sources/sys.c:189
    Motors_Enable_Fun();
  2c:	f7ff fffe 	bl	0 <Sys_sys>
C:\tien\PROJEKTY\procesory\STM\T108_V100a\sources/sys.c:190
    RS485_Send();
  30:	f7ff fffe 	bl	0 <Sys_sys>
C:\tien\PROJEKTY\procesory\STM\T108_V100a\sources/sys.c:191
    Motor_24VDC_handling();
  34:	f7ff fffe 	bl	0 <Sys_sys>
C:\tien\PROJEKTY\procesory\STM\T108_V100a\sources/sys.c:192
    Status_Handling();
  38:	f7ff fffe 	bl	0 <Sys_sys>
C:\tien\PROJEKTY\procesory\STM\T108_V100a\sources/sys.c:195


    PULSE_LAMP_FLAG = Square_Generator ( &Lamp_Timer.Timer, Service_Variables.Serv_Vars.Serwis_021, T_10msec );
  3c:	f8b4 1044 	ldrh.w	r1, [r4, #68]
  40:	2201      	movs	r2, #1
  42:	4815      	ldr	r0, [pc, #84]	(98 <Sys_sys+0x98>)
  44:	f7ff fffe 	bl	0 <Sys_sys>
  48:	4b14      	ldr	r3, [pc, #80]	(9c <Sys_sys+0x9c>)
C:\tien\PROJEKTY\procesory\STM\T108_V100a\sources/sys.c:197

    Manual_Values.Values.RL1_Manual_Value = Relays_Handling(Service_Variables.Serv_Vars.Out1_Fun);
  4a:	4d15      	ldr	r5, [pc, #84]	(a0 <Sys_sys+0xa0>)
C:\tien\PROJEKTY\procesory\STM\T108_V100a\sources/sys.c:195
    RS485_Send();
    Motor_24VDC_handling();
    Status_Handling();


    PULSE_LAMP_FLAG = Square_Generator ( &Lamp_Timer.Timer, Service_Variables.Serv_Vars.Serwis_021, T_10msec );
  4c:	7018      	strb	r0, [r3, #0]
C:\tien\PROJEKTY\procesory\STM\T108_V100a\sources/sys.c:197

    Manual_Values.Values.RL1_Manual_Value = Relays_Handling(Service_Variables.Serv_Vars.Out1_Fun);
  4e:	f894 0078 	ldrb.w	r0, [r4, #120]
  52:	f7ff fffe 	bl	0 <Sys_sys>
  56:	70a8      	strb	r0, [r5, #2]
C:\tien\PROJEKTY\procesory\STM\T108_V100a\sources/sys.c:198
    Manual_Values.Values.RL2_Manual_Value = Relays_Handling(Service_Variables.Serv_Vars.Out2_Fun);
  58:	f894 0079 	ldrb.w	r0, [r4, #121]
  5c:	f7ff fffe 	bl	0 <Sys_sys>
  60:	70e8      	strb	r0, [r5, #3]
C:\tien\PROJEKTY\procesory\STM\T108_V100a\sources/sys.c:199
    Manual_Values.Values.RL3_Manual_Value = Relays_Handling(Service_Variables.Serv_Vars.Out3_Fun);
  62:	f894 007a 	ldrb.w	r0, [r4, #122]
  66:	f7ff fffe 	bl	0 <Sys_sys>
  6a:	7128      	strb	r0, [r5, #4]
C:\tien\PROJEKTY\procesory\STM\T108_V100a\sources/sys.c:200
    Manual_Values.Values.RL4_Manual_Value = Relays_Handling(Service_Variables.Serv_Vars.Out4_Fun);
  6c:	f894 007b 	ldrb.w	r0, [r4, #123]
  70:	f7ff fffe 	bl	0 <Sys_sys>
  74:	7168      	strb	r0, [r5, #5]
C:\tien\PROJEKTY\procesory\STM\T108_V100a\sources/sys.c:201
    Manual_Values.Values.RL5_Manual_Value = Relays_Handling(Service_Variables.Serv_Vars.Out5_Fun);
  76:	f894 007c 	ldrb.w	r0, [r4, #124]
  7a:	f7ff fffe 	bl	0 <Sys_sys>
  7e:	71a8      	strb	r0, [r5, #6]
C:\tien\PROJEKTY\procesory\STM\T108_V100a\sources/sys.c:202
    Manual_Values.Values.RL6_Manual_Value = Relays_Handling(Service_Variables.Serv_Vars.Out6_Fun);
  80:	f894 007d 	ldrb.w	r0, [r4, #125]
  84:	f7ff fffe 	bl	0 <Sys_sys>
  88:	71e8      	strb	r0, [r5, #7]
C:\tien\PROJEKTY\procesory\STM\T108_V100a\sources/sys.c:203
}
  8a:	bd70      	pop	{r4, r5, r6, pc}
	...
