Archive member included because of file (symbol)

c:/program files (x86)/raisonance/ride/arm-gcc/bin/../lib/gcc/arm-none-eabi/4.3.2/../../../../arm-none-eabi/lib/thumb2\libc.a(lib_a-memcpy.o)
                              C:\tien\PROJEKTY\procesory\STM\T108_V100a\RTC.o (memcpy)
C:\Program Files (x86)\Raisonance\Ride\Lib\ARM\STM32x_io_putchar_thumb.a(syscalls.o)
                              (_write)
C:\Program Files (x86)\Raisonance\Ride\Lib\ARM\STM32x_io_putchar_thumb.a(STM32F10X_IO_putchar.o)
                              (__io_putchar)
C:\Program Files (x86)\Raisonance\Ride\Lib\ARM\STM32F10x_thumb.lib(stm32f10x_dma.o)
                              C:\tien\PROJEKTY\procesory\STM\T108_V100a\hardware.o (DMA_DeInit)
C:\Program Files (x86)\Raisonance\Ride\Lib\ARM\STM32F10x_thumb.lib(stm32f10x_exti.o)
                              C:\tien\PROJEKTY\procesory\STM\T108_V100a\hardware.o (EXTI_Init)
C:\Program Files (x86)\Raisonance\Ride\Lib\ARM\STM32F10x_thumb.lib(stm32f10x_gpio.o)
                              C:\tien\PROJEKTY\procesory\STM\T108_V100a\hardware.o (GPIO_Init)
C:\Program Files (x86)\Raisonance\Ride\Lib\ARM\STM32F10x_thumb.lib(stm32f10x_iwdg.o)
                              C:\tien\PROJEKTY\procesory\STM\T108_V100a\hardware.o (IWDG_WriteAccessCmd)
C:\Program Files (x86)\Raisonance\Ride\Lib\ARM\STM32F10x_thumb.lib(stm32f10x_nvic.o)
                              C:\tien\PROJEKTY\procesory\STM\T108_V100a\hardware.o (NVIC_Init)
C:\Program Files (x86)\Raisonance\Ride\Lib\ARM\STM32F10x_thumb.lib(stm32f10x_pwr.o)
                              C:\tien\PROJEKTY\procesory\STM\T108_V100a\hardware.o (PWR_BackupAccessCmd)
C:\Program Files (x86)\Raisonance\Ride\Lib\ARM\STM32F10x_thumb.lib(stm32f10x_rcc.o)
                              C:\tien\PROJEKTY\procesory\STM\T108_V100a\hardware.o (RCC_DeInit)
C:\Program Files (x86)\Raisonance\Ride\Lib\ARM\STM32F10x_thumb.lib(stm32f10x_rtc.o)
                              C:\tien\PROJEKTY\procesory\STM\T108_V100a\sys.o (RTC_GetCounter)
C:\Program Files (x86)\Raisonance\Ride\Lib\ARM\STM32F10x_thumb.lib(stm32f10x_spi.o)
                              C:\tien\PROJEKTY\procesory\STM\T108_V100a\hardware.o (SPI_Init)
C:\Program Files (x86)\Raisonance\Ride\Lib\ARM\STM32F10x_thumb.lib(stm32f10x_systick.o)
                              C:\tien\PROJEKTY\procesory\STM\T108_V100a\hardware.o (SysTick_CLKSourceConfig)
C:\Program Files (x86)\Raisonance\Ride\Lib\ARM\STM32F10x_thumb.lib(stm32f10x_tim.o)
                              C:\tien\PROJEKTY\procesory\STM\T108_V100a\hardware.o (TIM_TimeBaseInit)
C:\Program Files (x86)\Raisonance\Ride\Lib\ARM\STM32F10x_thumb.lib(stm32f10x_usart.o)
                              C:\tien\PROJEKTY\procesory\STM\T108_V100a\hardware.o (USART_Cmd)
C:\Program Files (x86)\Raisonance\Ride\Lib\ARM\STM32F10x_thumb.lib(stm32f10x_wwdg.o)
                              C:\tien\PROJEKTY\procesory\STM\T108_V100a\hardware.o (WWDG_SetPrescaler)
C:\Program Files (x86)\Raisonance\Ride\Lib\ARM\STM32F10x_thumb.lib(stm32f10x_adc.o)
                              C:\tien\PROJEKTY\procesory\STM\T108_V100a\hardware.o (ADC_Init)
C:\Program Files (x86)\Raisonance\Ride\Lib\ARM\STM32F10x_thumb.lib(stm32f10x_bkp.o)
                              C:\tien\PROJEKTY\procesory\STM\T108_V100a\RTC.o (BKP_WriteBackupRegister)
C:\Program Files (x86)\Raisonance\Ride\Lib\ARM\STM32F10x_thumb.lib(cortexm3_macro.o)
                              C:\Program Files (x86)\Raisonance\Ride\Lib\ARM\STM32F10x_thumb.lib(stm32f10x_pwr.o) (__WFI)
c:/program files (x86)/raisonance/ride/arm-gcc/bin/../lib/gcc/arm-none-eabi/4.3.2/../../../../arm-none-eabi/lib/thumb2\libc.a(lib_a-abort.o)
                              C:\Program Files (x86)\Raisonance\Ride\Lib\ARM\STM32x_io_putchar_thumb.a(syscalls.o) (abort)
c:/program files (x86)/raisonance/ride/arm-gcc/bin/../lib/gcc/arm-none-eabi/4.3.2/../../../../arm-none-eabi/lib/thumb2\libc.a(lib_a-errno.o)
                              C:\Program Files (x86)\Raisonance\Ride\Lib\ARM\STM32x_io_putchar_thumb.a(syscalls.o) (__errno)
c:/program files (x86)/raisonance/ride/arm-gcc/bin/../lib/gcc/arm-none-eabi/4.3.2/../../../../arm-none-eabi/lib/thumb2\libc.a(lib_a-impure.o)
                              c:/program files (x86)/raisonance/ride/arm-gcc/bin/../lib/gcc/arm-none-eabi/4.3.2/../../../../arm-none-eabi/lib/thumb2\libc.a(lib_a-errno.o) (_impure_ptr)
c:/program files (x86)/raisonance/ride/arm-gcc/bin/../lib/gcc/arm-none-eabi/4.3.2/../../../../arm-none-eabi/lib/thumb2\libc.a(lib_a-signal.o)
                              c:/program files (x86)/raisonance/ride/arm-gcc/bin/../lib/gcc/arm-none-eabi/4.3.2/../../../../arm-none-eabi/lib/thumb2\libc.a(lib_a-abort.o) (raise)
c:/program files (x86)/raisonance/ride/arm-gcc/bin/../lib/gcc/arm-none-eabi/4.3.2/../../../../arm-none-eabi/lib/thumb2\libc.a(lib_a-signalr.o)
                              c:/program files (x86)/raisonance/ride/arm-gcc/bin/../lib/gcc/arm-none-eabi/4.3.2/../../../../arm-none-eabi/lib/thumb2\libc.a(lib_a-signal.o) (_getpid_r)
c:/program files (x86)/raisonance/ride/arm-gcc/bin/../lib/gcc/arm-none-eabi/4.3.2/../../../../arm-none-eabi/lib/thumb2\libc.a(lib_a-mallocr.o)
                              c:/program files (x86)/raisonance/ride/arm-gcc/bin/../lib/gcc/arm-none-eabi/4.3.2/../../../../arm-none-eabi/lib/thumb2\libc.a(lib_a-signal.o) (_malloc_r)
c:/program files (x86)/raisonance/ride/arm-gcc/bin/../lib/gcc/arm-none-eabi/4.3.2/../../../../arm-none-eabi/lib/thumb2\libc.a(lib_a-mlock.o)
                              c:/program files (x86)/raisonance/ride/arm-gcc/bin/../lib/gcc/arm-none-eabi/4.3.2/../../../../arm-none-eabi/lib/thumb2\libc.a(lib_a-mallocr.o) (__malloc_lock)
c:/program files (x86)/raisonance/ride/arm-gcc/bin/../lib/gcc/arm-none-eabi/4.3.2/../../../../arm-none-eabi/lib/thumb2\libc.a(lib_a-reent.o)
                              c:/program files (x86)/raisonance/ride/arm-gcc/bin/../lib/gcc/arm-none-eabi/4.3.2/../../../../arm-none-eabi/lib/thumb2\libc.a(lib_a-signalr.o) (errno)
c:/program files (x86)/raisonance/ride/arm-gcc/bin/../lib/gcc/arm-none-eabi/4.3.2/../../../../arm-none-eabi/lib/thumb2\libc.a(lib_a-sbrkr.o)
                              c:/program files (x86)/raisonance/ride/arm-gcc/bin/../lib/gcc/arm-none-eabi/4.3.2/../../../../arm-none-eabi/lib/thumb2\libc.a(lib_a-mallocr.o) (_sbrk_r)
c:/program files (x86)/raisonance/ride/arm-gcc/bin/../lib/gcc/arm-none-eabi/4.3.2/../../../../arm-none-eabi/lib/thumb2\libc.a(lib_a-freer.o)
                              c:/program files (x86)/raisonance/ride/arm-gcc/bin/../lib/gcc/arm-none-eabi/4.3.2/../../../../arm-none-eabi/lib/thumb2\libc.a(lib_a-mallocr.o) (_free_r)

Allocating common symbols
Common symbol       size              file

SaveRState          0x2               C:\tien\PROJEKTY\procesory\STM\T108_V100a\usb_int.o
Angle2_Memory       0x2               C:\tien\PROJEKTY\procesory\STM\T108_V100a\control.o
Msens1_High_Measured
                    0x2               C:\tien\PROJEKTY\procesory\STM\T108_V100a\stm32f10x_it.o
Service_Variables   0x80              C:\tien\PROJEKTY\procesory\STM\T108_V100a\gui.o
HSEStartUpStatus    0x1               C:\tien\PROJEKTY\procesory\STM\T108_V100a\hardware.o
Keyboard_Timer      0x4               C:\tien\PROJEKTY\procesory\STM\T108_V100a\sys.o
j                   0x2               C:\tien\PROJEKTY\procesory\STM\T108_V100a\usb_endp.o
Lcd_Buffer          0x50              C:\tien\PROJEKTY\procesory\STM\T108_V100a\lcd.o
TIM_TimeBaseStructure
                    0xa               C:\tien\PROJEKTY\procesory\STM\T108_V100a\hardware.o
Screen_Number       0x1               C:\tien\PROJEKTY\procesory\STM\T108_V100a\gui.o
Keyboard            0x3               C:\tien\PROJEKTY\procesory\STM\T108_V100a\sys.o
Div_Temp            0x4               C:\tien\PROJEKTY\procesory\STM\T108_V100a\gui.o
Bkp_Reg_Temp        0x2               C:\tien\PROJEKTY\procesory\STM\T108_V100a\usb_endp.o
Screen_Before_Password
                    0x1               C:\tien\PROJEKTY\procesory\STM\T108_V100a\gui.o
SaveState           0x2               C:\tien\PROJEKTY\procesory\STM\T108_V100a\usb_init.o
errno               0x4               c:/program files (x86)/raisonance/ride/arm-gcc/bin/../lib/gcc/arm-none-eabi/4.3.2/../../../../arm-none-eabi/lib/thumb2\libc.a(lib_a-reent.o)
RS485_Packet_Counter
                    0x1               C:\tien\PROJEKTY\procesory\STM\T108_V100a\control.o
ProtocolValue       0x4               C:\tien\PROJEKTY\procesory\STM\T108_V100a\usb_prop.o
Controlling_Variables_Set
                    0x40              C:\tien\PROJEKTY\procesory\STM\T108_V100a\gui.o
Controller_Variables
                    0x4c              C:\tien\PROJEKTY\procesory\STM\T108_V100a\gui.o
Counters_Variables  0x4               C:\tien\PROJEKTY\procesory\STM\T108_V100a\gui.o
Inputs_Error_Mask   0x2               C:\tien\PROJEKTY\procesory\STM\T108_V100a\gui.o
Angle1_Max          0x2               C:\tien\PROJEKTY\procesory\STM\T108_V100a\control.o
Enable_String_Mask  0x4               C:\tien\PROJEKTY\procesory\STM\T108_V100a\gui.o
Opening_Closing_Timer
                    0x4               C:\tien\PROJEKTY\procesory\STM\T108_V100a\control.o
Startup_Timer       0x4               C:\tien\PROJEKTY\procesory\STM\T108_V100a\sys.o
while_timeout       0x4               C:\tien\PROJEKTY\procesory\STM\T108_V100a\hardware.o
wIstr               0x2               C:\tien\PROJEKTY\procesory\STM\T108_V100a\usb_istr.o
Usb_Tx_Buf_Tab      0x200             C:\tien\PROJEKTY\procesory\STM\T108_V100a\gui.o
Inputs_Timer        0x4               C:\tien\PROJEKTY\procesory\STM\T108_V100a\sys.o
k                   0x1               C:\tien\PROJEKTY\procesory\STM\T108_V100a\lcd.o
pProperty           0x4               C:\tien\PROJEKTY\procesory\STM\T108_V100a\usb_init.o
Msens2_High_Measured
                    0x2               C:\tien\PROJEKTY\procesory\STM\T108_V100a\stm32f10x_it.o
RS485_Timer         0x4               C:\tien\PROJEKTY\procesory\STM\T108_V100a\sys.o
String_Lic_Mask     0x4               C:\tien\PROJEKTY\procesory\STM\T108_V100a\gui.o
Slow_1_Timer        0x4               C:\tien\PROJEKTY\procesory\STM\T108_V100a\control.o
Other_Variables     0x3c              C:\tien\PROJEKTY\procesory\STM\T108_V100a\gui.o
Menu_Backup_Keys_Set
                    0x3               C:\tien\PROJEKTY\procesory\STM\T108_V100a\gui.o
Angle1_Memory       0x2               C:\tien\PROJEKTY\procesory\STM\T108_V100a\control.o
EPindex             0x1               C:\tien\PROJEKTY\procesory\STM\T108_V100a\usb_init.o
Pulse_RL1_Timer     0x4               C:\tien\PROJEKTY\procesory\STM\T108_V100a\sys.o
Screen_After_Password
                    0x1               C:\tien\PROJEKTY\procesory\STM\T108_V100a\gui.o
Interval_Sec        0x4               C:\tien\PROJEKTY\procesory\STM\T108_V100a\sys.o
Reload_Screen       0x1               C:\tien\PROJEKTY\procesory\STM\T108_V100a\gui.o
Var_Lic_Mask        0x4               C:\tien\PROJEKTY\procesory\STM\T108_V100a\gui.o
Date                0x6               C:\tien\PROJEKTY\procesory\STM\T108_V100a\RTC.o
Pulse_OC2_Timer     0x4               C:\tien\PROJEKTY\procesory\STM\T108_V100a\sys.o
Service_Variables_Set
                    0x80              C:\tien\PROJEKTY\procesory\STM\T108_V100a\gui.o
Uart_Rx_Packet      0x40              C:\tien\PROJEKTY\procesory\STM\T108_V100a\sys.o
Crc_received        0x2               C:\tien\PROJEKTY\procesory\STM\T108_V100a\sys.o
OPENING_HALF_FLAG   0x1               C:\tien\PROJEKTY\procesory\STM\T108_V100a\control.o
Time_Set            0x3               C:\tien\PROJEKTY\procesory\STM\T108_V100a\RTC.o
ADC_InitStructure   0x14              C:\tien\PROJEKTY\procesory\STM\T108_V100a\hardware.o
Usb_Rx_Buf_Tab      0x200             C:\tien\PROJEKTY\procesory\STM\T108_V100a\gui.o
Controller_Variables_Set
                    0x4c              C:\tien\PROJEKTY\procesory\STM\T108_V100a\gui.o
Controlling_Variables
                    0x40              C:\tien\PROJEKTY\procesory\STM\T108_V100a\gui.o
SaveTState          0x2               C:\tien\PROJEKTY\procesory\STM\T108_V100a\usb_int.o
i                   0x2               C:\tien\PROJEKTY\procesory\STM\T108_V100a\usb_endp.o
Counters_Variables_Set
                    0x4               C:\tien\PROJEKTY\procesory\STM\T108_V100a\gui.o
Device_Info         0x1c              C:\tien\PROJEKTY\procesory\STM\T108_V100a\usb_init.o
pUser_Standard_Requests
                    0x4               C:\tien\PROJEKTY\procesory\STM\T108_V100a\usb_init.o
Pulse_RL5_Timer     0x4               C:\tien\PROJEKTY\procesory\STM\T108_V100a\sys.o
Time_4_Gate1        0x2               C:\tien\PROJEKTY\procesory\STM\T108_V100a\control.o
Opened_Timer        0x4               C:\tien\PROJEKTY\procesory\STM\T108_V100a\control.o
Angle2_Max          0x2               C:\tien\PROJEKTY\procesory\STM\T108_V100a\control.o
System_Timers       0x14              C:\tien\PROJEKTY\procesory\STM\T108_V100a\sys.o
Encoder_Timer       0x4               C:\tien\PROJEKTY\procesory\STM\T108_V100a\control.o
Msens2_Low_Measured
                    0x2               C:\tien\PROJEKTY\procesory\STM\T108_V100a\stm32f10x_it.o
ADC_ConvertedValueTab
                    0xe               C:\tien\PROJEKTY\procesory\STM\T108_V100a\hardware.o
Interval            0x4               C:\tien\PROJEKTY\procesory\STM\T108_V100a\sys.o
Lcd_Write_Ptr       0x1               C:\tien\PROJEKTY\procesory\STM\T108_V100a\gui.o
TIM_OCInitStructure
                    0x10              C:\tien\PROJEKTY\procesory\STM\T108_V100a\hardware.o
Pre_Worning_Timer   0x4               C:\tien\PROJEKTY\procesory\STM\T108_V100a\control.o
StatusInfo          0x2               C:\tien\PROJEKTY\procesory\STM\T108_V100a\usb_core.o
pInformation        0x4               C:\tien\PROJEKTY\procesory\STM\T108_V100a\usb_init.o
ResumeS             0x2               C:\tien\PROJEKTY\procesory\STM\T108_V100a\usb_pwr.o
Pulse_RL4_Timer     0x4               C:\tien\PROJEKTY\procesory\STM\T108_V100a\sys.o
Variable_Editing_Ptr
                    0x4               C:\tien\PROJEKTY\procesory\STM\T108_V100a\gui.o
Uart_Tx_Packet      0x40              C:\tien\PROJEKTY\procesory\STM\T108_V100a\sys.o
Inputs              0x3               C:\tien\PROJEKTY\procesory\STM\T108_V100a\sys.o
Slow_2_Timer        0x4               C:\tien\PROJEKTY\procesory\STM\T108_V100a\control.o
Pulse_OC1_Timer     0x4               C:\tien\PROJEKTY\procesory\STM\T108_V100a\sys.o
ENCODER_SIGNAL_DETECTED
                    0x1               C:\tien\PROJEKTY\procesory\STM\T108_V100a\control.o
Manual_Test_Mask    0x4               C:\tien\PROJEKTY\procesory\STM\T108_V100a\gui.o
Lamp_Timer          0x4               C:\tien\PROJEKTY\procesory\STM\T108_V100a\control.o
Screen_Reload_Timer
                    0x4               C:\tien\PROJEKTY\procesory\STM\T108_V100a\sys.o
Usb_Rx_Buffer       0x40              C:\tien\PROJEKTY\procesory\STM\T108_V100a\usb_endp.o
RS485_Packet_Length
                    0x1               C:\tien\PROJEKTY\procesory\STM\T108_V100a\control.o
GPIO_InitStructure  0x4               C:\tien\PROJEKTY\procesory\STM\T108_V100a\hardware.o
SPI_InitStructure   0x12              C:\tien\PROJEKTY\procesory\STM\T108_V100a\hardware.o
USART_InitStructure
                    0x10              C:\tien\PROJEKTY\procesory\STM\T108_V100a\hardware.o
Object_Pos          0x2               C:\tien\PROJEKTY\procesory\STM\T108_V100a\lcd.o
Object_Pos_Temp     0x2               C:\tien\PROJEKTY\procesory\STM\T108_V100a\lcd.o
Usb_Tx_Buffer       0x40              C:\tien\PROJEKTY\procesory\STM\T108_V100a\usb_endp.o
Pulse_RL6_Timer     0x4               C:\tien\PROJEKTY\procesory\STM\T108_V100a\sys.o
Relay_Timer         0x4               C:\tien\PROJEKTY\procesory\STM\T108_V100a\control.o
Mosfets_Pwm         0x4               C:\tien\PROJEKTY\procesory\STM\T108_V100a\control.o
PULSE_LAMP_FLAG     0x1               C:\tien\PROJEKTY\procesory\STM\T108_V100a\control.o
Menu_Backup_Keys_Sensors
                    0x3               C:\tien\PROJEKTY\procesory\STM\T108_V100a\gui.o
Count_Add           0x1               C:\tien\PROJEKTY\procesory\STM\T108_V100a\gui.o
TIM_ICInitStructure
                    0xa               C:\tien\PROJEKTY\procesory\STM\T108_V100a\hardware.o
Pulse_Relay_Timer   0x12              C:\tien\PROJEKTY\procesory\STM\T108_V100a\control.o
Time                0x3               C:\tien\PROJEKTY\procesory\STM\T108_V100a\RTC.o
Crc_check           0x2               C:\tien\PROJEKTY\procesory\STM\T108_V100a\sys.o
Pulse_RL2_Timer     0x4               C:\tien\PROJEKTY\procesory\STM\T108_V100a\sys.o
Menu_Backup_Keys    0x3               C:\tien\PROJEKTY\procesory\STM\T108_V100a\gui.o
Crc_value           0x2               C:\tien\PROJEKTY\procesory\STM\T108_V100a\sys.o
Braking_2_Timer     0x4               C:\tien\PROJEKTY\procesory\STM\T108_V100a\control.o
Pulse_RL3_Timer     0x4               C:\tien\PROJEKTY\procesory\STM\T108_V100a\sys.o
Temperature_Timer   0x4               C:\tien\PROJEKTY\procesory\STM\T108_V100a\sys.o
Time_4_Gate2        0x2               C:\tien\PROJEKTY\procesory\STM\T108_V100a\control.o
Usart1_Rx_Data      0x1               C:\tien\PROJEKTY\procesory\STM\T108_V100a\stm32f10x_it.o
NVIC_InitStructure  0x4               C:\tien\PROJEKTY\procesory\STM\T108_V100a\hardware.o
Date_Set            0x6               C:\tien\PROJEKTY\procesory\STM\T108_V100a\RTC.o
EXTI_InitStructure  0x8               C:\tien\PROJEKTY\procesory\STM\T108_V100a\hardware.o
Flash_Address       0x4               C:\tien\PROJEKTY\procesory\STM\T108_V100a\gui.o
Msens1_Low_Measured
                    0x2               C:\tien\PROJEKTY\procesory\STM\T108_V100a\stm32f10x_it.o
DMA_InitStructure   0x2c              C:\tien\PROJEKTY\procesory\STM\T108_V100a\hardware.o
Test_String_Mask    0x4               C:\tien\PROJEKTY\procesory\STM\T108_V100a\gui.o
WG_Timer            0x4               C:\tien\PROJEKTY\procesory\STM\T108_V100a\control.o
Language_Num        0x1               C:\tien\PROJEKTY\procesory\STM\T108_V100a\gui.o
Pulse_OC_Timer      0x12              C:\tien\PROJEKTY\procesory\STM\T108_V100a\control.o
Braking_1_Timer     0x4               C:\tien\PROJEKTY\procesory\STM\T108_V100a\control.o
Manual_Values       0xe               C:\tien\PROJEKTY\procesory\STM\T108_V100a\control.o
wInterrupt_Mask     0x2               C:\tien\PROJEKTY\procesory\STM\T108_V100a\usb_init.o
FLASHStatus         0x1               C:\tien\PROJEKTY\procesory\STM\T108_V100a\gui.o

Discarded input sections

 .text          0x00000000        0x0 C:\Program Files (x86)\Raisonance\Ride\lib\ARM\crt0_STM32x_HD.o
 .data          0x00000000        0x0 C:\Program Files (x86)\Raisonance\Ride\lib\ARM\crt0_STM32x_HD.o
 .bss           0x00000000        0x0 C:\Program Files (x86)\Raisonance\Ride\lib\ARM\crt0_STM32x_HD.o
 .text          0x00000000        0x0 C:\tien\PROJEKTY\procesory\STM\T108_V100a\stm32f10x_flash.o
 .data          0x00000000        0x0 C:\tien\PROJEKTY\procesory\STM\T108_V100a\stm32f10x_flash.o
 .bss           0x00000000        0x0 C:\tien\PROJEKTY\procesory\STM\T108_V100a\stm32f10x_flash.o
 .text.FLASH_HalfCycleAccessCmd
                0x00000000        0x0 C:\tien\PROJEKTY\procesory\STM\T108_V100a\stm32f10x_flash.o
 .text.FLASH_Lock
                0x00000000        0x0 C:\tien\PROJEKTY\procesory\STM\T108_V100a\stm32f10x_flash.o
 .text.FLASH_GetUserOptionByte
                0x00000000        0x0 C:\tien\PROJEKTY\procesory\STM\T108_V100a\stm32f10x_flash.o
 .text.FLASH_GetWriteProtectionOptionByte
                0x00000000        0x0 C:\tien\PROJEKTY\procesory\STM\T108_V100a\stm32f10x_flash.o
 .text.FLASH_GetReadOutProtectionStatus
                0x00000000        0x0 C:\tien\PROJEKTY\procesory\STM\T108_V100a\stm32f10x_flash.o
 .text.FLASH_GetPrefetchBufferStatus
                0x00000000        0x0 C:\tien\PROJEKTY\procesory\STM\T108_V100a\stm32f10x_flash.o
 .text.FLASH_ITConfig
                0x00000000        0x0 C:\tien\PROJEKTY\procesory\STM\T108_V100a\stm32f10x_flash.o
 .text.FLASH_GetFlagStatus
                0x00000000        0x0 C:\tien\PROJEKTY\procesory\STM\T108_V100a\stm32f10x_flash.o
 .text.FLASH_UserOptionByteConfig
                0x00000000        0x0 C:\tien\PROJEKTY\procesory\STM\T108_V100a\stm32f10x_flash.o
 .text.FLASH_ReadOutProtection
                0x00000000        0x0 C:\tien\PROJEKTY\procesory\STM\T108_V100a\stm32f10x_flash.o
 .text.FLASH_EnableWriteProtection
                0x00000000        0x0 C:\tien\PROJEKTY\procesory\STM\T108_V100a\stm32f10x_flash.o
 .text.FLASH_ProgramOptionByteData
                0x00000000        0x0 C:\tien\PROJEKTY\procesory\STM\T108_V100a\stm32f10x_flash.o
 .text.FLASH_ProgramHalfWord
                0x00000000        0x0 C:\tien\PROJEKTY\procesory\STM\T108_V100a\stm32f10x_flash.o
 .text.FLASH_EraseOptionBytes
                0x00000000        0x0 C:\tien\PROJEKTY\procesory\STM\T108_V100a\stm32f10x_flash.o
 .text.FLASH_EraseAllPages
                0x00000000        0x0 C:\tien\PROJEKTY\procesory\STM\T108_V100a\stm32f10x_flash.o
 .text          0x00000000        0x0 C:\tien\PROJEKTY\procesory\STM\T108_V100a\control.o
 .text          0x00000000        0x0 C:\tien\PROJEKTY\procesory\STM\T108_V100a\sys.o
 .text.Periods_Handling
                0x00000000        0x0 C:\tien\PROJEKTY\procesory\STM\T108_V100a\sys.o
 .text          0x00000000        0x0 C:\tien\PROJEKTY\procesory\STM\T108_V100a\stm32f10x_it.o
 .data          0x00000000        0x0 C:\tien\PROJEKTY\procesory\STM\T108_V100a\stm32f10x_it.o
 .text          0x00000000        0x0 C:\tien\PROJEKTY\procesory\STM\T108_V100a\RTC.o
 .text.Set_Date
                0x00000000        0x0 C:\tien\PROJEKTY\procesory\STM\T108_V100a\RTC.o
 .text.Set_Time
                0x00000000        0x0 C:\tien\PROJEKTY\procesory\STM\T108_V100a\RTC.o
 .text          0x00000000        0x0 C:\tien\PROJEKTY\procesory\STM\T108_V100a\main.o
 .data          0x00000000        0x0 C:\tien\PROJEKTY\procesory\STM\T108_V100a\main.o
 .bss           0x00000000        0x0 C:\tien\PROJEKTY\procesory\STM\T108_V100a\main.o
 .text          0x00000000        0x0 C:\tien\PROJEKTY\procesory\STM\T108_V100a\lcd.o
 .bss           0x00000000        0x0 C:\tien\PROJEKTY\procesory\STM\T108_V100a\lcd.o
 .text.Lcd_Clear
                0x00000000        0x0 C:\tien\PROJEKTY\procesory\STM\T108_V100a\lcd.o
 .text          0x00000000        0x0 C:\tien\PROJEKTY\procesory\STM\T108_V100a\hardware.o
 .data          0x00000000        0x0 C:\tien\PROJEKTY\procesory\STM\T108_V100a\hardware.o
 .bss           0x00000000        0x0 C:\tien\PROJEKTY\procesory\STM\T108_V100a\hardware.o
 .text.Software_Delay
                0x00000000        0x0 C:\tien\PROJEKTY\procesory\STM\T108_V100a\hardware.o
 .text          0x00000000        0x0 C:\tien\PROJEKTY\procesory\STM\T108_V100a\gui.o
 .text          0x00000000        0x0 C:\tien\PROJEKTY\procesory\STM\T108_V100a\usb_core.o
 .data          0x00000000        0x0 C:\tien\PROJEKTY\procesory\STM\T108_V100a\usb_core.o
 .text          0x00000000        0x0 C:\tien\PROJEKTY\procesory\STM\T108_V100a\usb_init.o
 .data          0x00000000        0x0 C:\tien\PROJEKTY\procesory\STM\T108_V100a\usb_init.o
 .bss           0x00000000        0x0 C:\tien\PROJEKTY\procesory\STM\T108_V100a\usb_init.o
 .text          0x00000000        0x0 C:\tien\PROJEKTY\procesory\STM\T108_V100a\usb_int.o
 .data          0x00000000        0x0 C:\tien\PROJEKTY\procesory\STM\T108_V100a\usb_int.o
 .bss           0x00000000        0x0 C:\tien\PROJEKTY\procesory\STM\T108_V100a\usb_int.o
 .text.CTR_HP   0x00000000        0x0 C:\tien\PROJEKTY\procesory\STM\T108_V100a\usb_int.o
 .text          0x00000000        0x0 C:\tien\PROJEKTY\procesory\STM\T108_V100a\usb_mem.o
 .data          0x00000000        0x0 C:\tien\PROJEKTY\procesory\STM\T108_V100a\usb_mem.o
 .bss           0x00000000        0x0 C:\tien\PROJEKTY\procesory\STM\T108_V100a\usb_mem.o
 .text          0x00000000        0x0 C:\tien\PROJEKTY\procesory\STM\T108_V100a\usb_regs.o
 .data          0x00000000        0x0 C:\tien\PROJEKTY\procesory\STM\T108_V100a\usb_regs.o
 .bss           0x00000000        0x0 C:\tien\PROJEKTY\procesory\STM\T108_V100a\usb_regs.o
 .text.SetCNTR  0x00000000        0x0 C:\tien\PROJEKTY\procesory\STM\T108_V100a\usb_regs.o
 .text.GetCNTR  0x00000000        0x0 C:\tien\PROJEKTY\procesory\STM\T108_V100a\usb_regs.o
 .text.SetISTR  0x00000000        0x0 C:\tien\PROJEKTY\procesory\STM\T108_V100a\usb_regs.o
 .text.GetISTR  0x00000000        0x0 C:\tien\PROJEKTY\procesory\STM\T108_V100a\usb_regs.o
 .text.GetFNR   0x00000000        0x0 C:\tien\PROJEKTY\procesory\STM\T108_V100a\usb_regs.o
 .text.SetDADDR
                0x00000000        0x0 C:\tien\PROJEKTY\procesory\STM\T108_V100a\usb_regs.o
 .text.GetDADDR
                0x00000000        0x0 C:\tien\PROJEKTY\procesory\STM\T108_V100a\usb_regs.o
 .text.GetBTABLE
                0x00000000        0x0 C:\tien\PROJEKTY\procesory\STM\T108_V100a\usb_regs.o
 .text.SetENDPOINT
                0x00000000        0x0 C:\tien\PROJEKTY\procesory\STM\T108_V100a\usb_regs.o
 .text.GetENDPOINT
                0x00000000        0x0 C:\tien\PROJEKTY\procesory\STM\T108_V100a\usb_regs.o
 .text.GetEPType
                0x00000000        0x0 C:\tien\PROJEKTY\procesory\STM\T108_V100a\usb_regs.o
 .text.SetDouBleBuffEPStall
                0x00000000        0x0 C:\tien\PROJEKTY\procesory\STM\T108_V100a\usb_regs.o
 .text.GetEPTxStatus
                0x00000000        0x0 C:\tien\PROJEKTY\procesory\STM\T108_V100a\usb_regs.o
 .text.GetEPRxStatus
                0x00000000        0x0 C:\tien\PROJEKTY\procesory\STM\T108_V100a\usb_regs.o
 .text.SetEP_KIND
                0x00000000        0x0 C:\tien\PROJEKTY\procesory\STM\T108_V100a\usb_regs.o
 .text.ClearEP_KIND
                0x00000000        0x0 C:\tien\PROJEKTY\procesory\STM\T108_V100a\usb_regs.o
 .text.Set_Status_Out
                0x00000000        0x0 C:\tien\PROJEKTY\procesory\STM\T108_V100a\usb_regs.o
 .text.SetEPDoubleBuff
                0x00000000        0x0 C:\tien\PROJEKTY\procesory\STM\T108_V100a\usb_regs.o
 .text.ClearEPDoubleBuff
                0x00000000        0x0 C:\tien\PROJEKTY\procesory\STM\T108_V100a\usb_regs.o
 .text.GetTxStallStatus
                0x00000000        0x0 C:\tien\PROJEKTY\procesory\STM\T108_V100a\usb_regs.o
 .text.GetRxStallStatus
                0x00000000        0x0 C:\tien\PROJEKTY\procesory\STM\T108_V100a\usb_regs.o
 .text.ClearEP_CTR_RX
                0x00000000        0x0 C:\tien\PROJEKTY\procesory\STM\T108_V100a\usb_regs.o
 .text.ClearEP_CTR_TX
                0x00000000        0x0 C:\tien\PROJEKTY\procesory\STM\T108_V100a\usb_regs.o
 .text.ToggleDTOG_RX
                0x00000000        0x0 C:\tien\PROJEKTY\procesory\STM\T108_V100a\usb_regs.o
 .text.ToggleDTOG_TX
                0x00000000        0x0 C:\tien\PROJEKTY\procesory\STM\T108_V100a\usb_regs.o
 .text.SetEPAddress
                0x00000000        0x0 C:\tien\PROJEKTY\procesory\STM\T108_V100a\usb_regs.o
 .text.GetEPAddress
                0x00000000        0x0 C:\tien\PROJEKTY\procesory\STM\T108_V100a\usb_regs.o
 .text.SetEPCountRxReg
                0x00000000        0x0 C:\tien\PROJEKTY\procesory\STM\T108_V100a\usb_regs.o
 .text.GetEPTxCount
                0x00000000        0x0 C:\tien\PROJEKTY\procesory\STM\T108_V100a\usb_regs.o
 .text.GetEPRxCount
                0x00000000        0x0 C:\tien\PROJEKTY\procesory\STM\T108_V100a\usb_regs.o
 .text.SetEPDblBuffAddr
                0x00000000        0x0 C:\tien\PROJEKTY\procesory\STM\T108_V100a\usb_regs.o
 .text.SetEPDblBuf0Addr
                0x00000000        0x0 C:\tien\PROJEKTY\procesory\STM\T108_V100a\usb_regs.o
 .text.SetEPDblBuf1Addr
                0x00000000        0x0 C:\tien\PROJEKTY\procesory\STM\T108_V100a\usb_regs.o
 .text.GetEPDblBuf0Addr
                0x00000000        0x0 C:\tien\PROJEKTY\procesory\STM\T108_V100a\usb_regs.o
 .text.GetEPDblBuf1Addr
                0x00000000        0x0 C:\tien\PROJEKTY\procesory\STM\T108_V100a\usb_regs.o
 .text.SetEPDblBuffCount
                0x00000000        0x0 C:\tien\PROJEKTY\procesory\STM\T108_V100a\usb_regs.o
 .text.SetEPDblBuf0Count
                0x00000000        0x0 C:\tien\PROJEKTY\procesory\STM\T108_V100a\usb_regs.o
 .text.SetEPDblBuf1Count
                0x00000000        0x0 C:\tien\PROJEKTY\procesory\STM\T108_V100a\usb_regs.o
 .text.GetEPDblBuf0Count
                0x00000000        0x0 C:\tien\PROJEKTY\procesory\STM\T108_V100a\usb_regs.o
 .text.GetEPDblBuf1Count
                0x00000000        0x0 C:\tien\PROJEKTY\procesory\STM\T108_V100a\usb_regs.o
 .text.GetEPDblBufDir
                0x00000000        0x0 C:\tien\PROJEKTY\procesory\STM\T108_V100a\usb_regs.o
 .text.FreeUserBuffer
                0x00000000        0x0 C:\tien\PROJEKTY\procesory\STM\T108_V100a\usb_regs.o
 .text.ToWord   0x00000000        0x0 C:\tien\PROJEKTY\procesory\STM\T108_V100a\usb_regs.o
 .text          0x00000000        0x0 C:\tien\PROJEKTY\procesory\STM\T108_V100a\usb_desc.o
 .bss           0x00000000        0x0 C:\tien\PROJEKTY\procesory\STM\T108_V100a\usb_desc.o
 .text          0x00000000        0x0 C:\tien\PROJEKTY\procesory\STM\T108_V100a\usb_istr.o
 .text          0x00000000        0x0 C:\tien\PROJEKTY\procesory\STM\T108_V100a\usb_prop.o
 .bss           0x00000000        0x0 C:\tien\PROJEKTY\procesory\STM\T108_V100a\usb_prop.o
 .text          0x00000000        0x0 C:\tien\PROJEKTY\procesory\STM\T108_V100a\usb_pwr.o
 .text.PowerOff
                0x00000000        0x0 C:\tien\PROJEKTY\procesory\STM\T108_V100a\usb_pwr.o
 .text          0x00000000        0x0 C:\tien\PROJEKTY\procesory\STM\T108_V100a\usb_endp.o
 .data          0x00000000        0x0 C:\tien\PROJEKTY\procesory\STM\T108_V100a\usb_endp.o
 .bss           0x00000000        0x0 C:\tien\PROJEKTY\procesory\STM\T108_V100a\usb_endp.o
 .data          0x00000000        0x0 c:/program files (x86)/raisonance/ride/arm-gcc/bin/../lib/gcc/arm-none-eabi/4.3.2/../../../../arm-none-eabi/lib/thumb2\libc.a(lib_a-memcpy.o)
 .bss           0x00000000        0x0 c:/program files (x86)/raisonance/ride/arm-gcc/bin/../lib/gcc/arm-none-eabi/4.3.2/../../../../arm-none-eabi/lib/thumb2\libc.a(lib_a-memcpy.o)
 .debug_frame   0x00000000        0x0 c:/program files (x86)/raisonance/ride/arm-gcc/bin/../lib/gcc/arm-none-eabi/4.3.2/../../../../arm-none-eabi/lib/thumb2\libc.a(lib_a-memcpy.o)
 .ARM.attributes
                0x00000000        0x0 c:/program files (x86)/raisonance/ride/arm-gcc/bin/../lib/gcc/arm-none-eabi/4.3.2/../../../../arm-none-eabi/lib/thumb2\libc.a(lib_a-memcpy.o)
 .vfp11_veneer  0x00000000        0x0 c:/program files (x86)/raisonance/ride/arm-gcc/bin/../lib/gcc/arm-none-eabi/4.3.2/../../../../arm-none-eabi/lib/thumb2\libc.a(lib_a-memcpy.o)
 .janus_2cc_veneer
                0x00000000        0x0 c:/program files (x86)/raisonance/ride/arm-gcc/bin/../lib/gcc/arm-none-eabi/4.3.2/../../../../arm-none-eabi/lib/thumb2\libc.a(lib_a-memcpy.o)
 .v4_bx         0x00000000        0x0 c:/program files (x86)/raisonance/ride/arm-gcc/bin/../lib/gcc/arm-none-eabi/4.3.2/../../../../arm-none-eabi/lib/thumb2\libc.a(lib_a-memcpy.o)
 .text          0x00000000        0x0 C:\Program Files (x86)\Raisonance\Ride\Lib\ARM\STM32x_io_putchar_thumb.a(syscalls.o)
 .data          0x00000000        0x0 C:\Program Files (x86)\Raisonance\Ride\Lib\ARM\STM32x_io_putchar_thumb.a(syscalls.o)
 .bss           0x00000000        0x0 C:\Program Files (x86)\Raisonance\Ride\Lib\ARM\STM32x_io_putchar_thumb.a(syscalls.o)
 .text._read    0x00000000        0x0 C:\Program Files (x86)\Raisonance\Ride\Lib\ARM\STM32x_io_putchar_thumb.a(syscalls.o)
 .text._lseek   0x00000000        0x0 C:\Program Files (x86)\Raisonance\Ride\Lib\ARM\STM32x_io_putchar_thumb.a(syscalls.o)
 .text._open    0x00000000        0x0 C:\Program Files (x86)\Raisonance\Ride\Lib\ARM\STM32x_io_putchar_thumb.a(syscalls.o)
 .text._close   0x00000000        0x0 C:\Program Files (x86)\Raisonance\Ride\Lib\ARM\STM32x_io_putchar_thumb.a(syscalls.o)
 .text._exit    0x00000000        0x0 C:\Program Files (x86)\Raisonance\Ride\Lib\ARM\STM32x_io_putchar_thumb.a(syscalls.o)
 .text._kill    0x00000000        0x0 C:\Program Files (x86)\Raisonance\Ride\Lib\ARM\STM32x_io_putchar_thumb.a(syscalls.o)
 .text._fstat   0x00000000        0x0 C:\Program Files (x86)\Raisonance\Ride\Lib\ARM\STM32x_io_putchar_thumb.a(syscalls.o)
 .text._stat    0x00000000        0x0 C:\Program Files (x86)\Raisonance\Ride\Lib\ARM\STM32x_io_putchar_thumb.a(syscalls.o)
 .text._link    0x00000000        0x0 C:\Program Files (x86)\Raisonance\Ride\Lib\ARM\STM32x_io_putchar_thumb.a(syscalls.o)
 .text._unlink  0x00000000        0x0 C:\Program Files (x86)\Raisonance\Ride\Lib\ARM\STM32x_io_putchar_thumb.a(syscalls.o)
 .text._raise   0x00000000        0x0 C:\Program Files (x86)\Raisonance\Ride\Lib\ARM\STM32x_io_putchar_thumb.a(syscalls.o)
 .text._getpid  0x00000000        0x0 C:\Program Files (x86)\Raisonance\Ride\Lib\ARM\STM32x_io_putchar_thumb.a(syscalls.o)
 .text._gettimeofday
                0x00000000        0x0 C:\Program Files (x86)\Raisonance\Ride\Lib\ARM\STM32x_io_putchar_thumb.a(syscalls.o)
 .text._times   0x00000000        0x0 C:\Program Files (x86)\Raisonance\Ride\Lib\ARM\STM32x_io_putchar_thumb.a(syscalls.o)
 .text.isatty   0x00000000        0x0 C:\Program Files (x86)\Raisonance\Ride\Lib\ARM\STM32x_io_putchar_thumb.a(syscalls.o)
 .text._isatty  0x00000000        0x0 C:\Program Files (x86)\Raisonance\Ride\Lib\ARM\STM32x_io_putchar_thumb.a(syscalls.o)
 .text._rename  0x00000000        0x0 C:\Program Files (x86)\Raisonance\Ride\Lib\ARM\STM32x_io_putchar_thumb.a(syscalls.o)
 .text._system  0x00000000        0x0 C:\Program Files (x86)\Raisonance\Ride\Lib\ARM\STM32x_io_putchar_thumb.a(syscalls.o)
 .text._sbrk    0x00000000        0x0 C:\Program Files (x86)\Raisonance\Ride\Lib\ARM\STM32x_io_putchar_thumb.a(syscalls.o)
 .rodata.str1.4
                0x00000000        0x0 C:\Program Files (x86)\Raisonance\Ride\Lib\ARM\STM32x_io_putchar_thumb.a(syscalls.o)
 .text          0x00000000        0x0 C:\Program Files (x86)\Raisonance\Ride\Lib\ARM\STM32x_io_putchar_thumb.a(STM32F10X_IO_putchar.o)
 .data          0x00000000        0x0 C:\Program Files (x86)\Raisonance\Ride\Lib\ARM\STM32x_io_putchar_thumb.a(STM32F10X_IO_putchar.o)
 .text.__io_SetMainOscFreq
                0x00000000        0x0 C:\Program Files (x86)\Raisonance\Ride\Lib\ARM\STM32x_io_putchar_thumb.a(STM32F10X_IO_putchar.o)
 .text.__io_getchar
                0x00000000        0x0 C:\Program Files (x86)\Raisonance\Ride\Lib\ARM\STM32x_io_putchar_thumb.a(STM32F10X_IO_putchar.o)
 .text.getchar  0x00000000        0x0 C:\Program Files (x86)\Raisonance\Ride\Lib\ARM\STM32x_io_putchar_thumb.a(STM32F10X_IO_putchar.o)
 .text.putchar  0x00000000        0x0 C:\Program Files (x86)\Raisonance\Ride\Lib\ARM\STM32x_io_putchar_thumb.a(STM32F10X_IO_putchar.o)
 .text          0x00000000        0x0 C:\Program Files (x86)\Raisonance\Ride\Lib\ARM\STM32F10x_thumb.lib(stm32f10x_dma.o)
 .data          0x00000000        0x0 C:\Program Files (x86)\Raisonance\Ride\Lib\ARM\STM32F10x_thumb.lib(stm32f10x_dma.o)
 .bss           0x00000000        0x0 C:\Program Files (x86)\Raisonance\Ride\Lib\ARM\STM32F10x_thumb.lib(stm32f10x_dma.o)
 .text.DMA_StructInit
                0x00000000        0x0 C:\Program Files (x86)\Raisonance\Ride\Lib\ARM\STM32F10x_thumb.lib(stm32f10x_dma.o)
 .text.DMA_GetCurrDataCounter
                0x00000000        0x0 C:\Program Files (x86)\Raisonance\Ride\Lib\ARM\STM32F10x_thumb.lib(stm32f10x_dma.o)
 .text.DMA_GetFlagStatus
                0x00000000        0x0 C:\Program Files (x86)\Raisonance\Ride\Lib\ARM\STM32F10x_thumb.lib(stm32f10x_dma.o)
 .text.DMA_ClearFlag
                0x00000000        0x0 C:\Program Files (x86)\Raisonance\Ride\Lib\ARM\STM32F10x_thumb.lib(stm32f10x_dma.o)
 .text          0x00000000        0x0 C:\Program Files (x86)\Raisonance\Ride\Lib\ARM\STM32F10x_thumb.lib(stm32f10x_exti.o)
 .data          0x00000000        0x0 C:\Program Files (x86)\Raisonance\Ride\Lib\ARM\STM32F10x_thumb.lib(stm32f10x_exti.o)
 .bss           0x00000000        0x0 C:\Program Files (x86)\Raisonance\Ride\Lib\ARM\STM32F10x_thumb.lib(stm32f10x_exti.o)
 .text.EXTI_DeInit
                0x00000000        0x0 C:\Program Files (x86)\Raisonance\Ride\Lib\ARM\STM32F10x_thumb.lib(stm32f10x_exti.o)
 .text.EXTI_StructInit
                0x00000000        0x0 C:\Program Files (x86)\Raisonance\Ride\Lib\ARM\STM32F10x_thumb.lib(stm32f10x_exti.o)
 .text.EXTI_GetFlagStatus
                0x00000000        0x0 C:\Program Files (x86)\Raisonance\Ride\Lib\ARM\STM32F10x_thumb.lib(stm32f10x_exti.o)
 .text.EXTI_ClearFlag
                0x00000000        0x0 C:\Program Files (x86)\Raisonance\Ride\Lib\ARM\STM32F10x_thumb.lib(stm32f10x_exti.o)
 .text          0x00000000        0x0 C:\Program Files (x86)\Raisonance\Ride\Lib\ARM\STM32F10x_thumb.lib(stm32f10x_gpio.o)
 .data          0x00000000        0x0 C:\Program Files (x86)\Raisonance\Ride\Lib\ARM\STM32F10x_thumb.lib(stm32f10x_gpio.o)
 .bss           0x00000000        0x0 C:\Program Files (x86)\Raisonance\Ride\Lib\ARM\STM32F10x_thumb.lib(stm32f10x_gpio.o)
 .text.GPIO_StructInit
                0x00000000        0x0 C:\Program Files (x86)\Raisonance\Ride\Lib\ARM\STM32F10x_thumb.lib(stm32f10x_gpio.o)
 .text.GPIO_ReadInputData
                0x00000000        0x0 C:\Program Files (x86)\Raisonance\Ride\Lib\ARM\STM32F10x_thumb.lib(stm32f10x_gpio.o)
 .text.GPIO_ReadOutputDataBit
                0x00000000        0x0 C:\Program Files (x86)\Raisonance\Ride\Lib\ARM\STM32F10x_thumb.lib(stm32f10x_gpio.o)
 .text.GPIO_ReadOutputData
                0x00000000        0x0 C:\Program Files (x86)\Raisonance\Ride\Lib\ARM\STM32F10x_thumb.lib(stm32f10x_gpio.o)
 .text.GPIO_WriteBit
                0x00000000        0x0 C:\Program Files (x86)\Raisonance\Ride\Lib\ARM\STM32F10x_thumb.lib(stm32f10x_gpio.o)
 .text.GPIO_Write
                0x00000000        0x0 C:\Program Files (x86)\Raisonance\Ride\Lib\ARM\STM32F10x_thumb.lib(stm32f10x_gpio.o)
 .text.GPIO_PinLockConfig
                0x00000000        0x0 C:\Program Files (x86)\Raisonance\Ride\Lib\ARM\STM32F10x_thumb.lib(stm32f10x_gpio.o)
 .text.GPIO_EventOutputConfig
                0x00000000        0x0 C:\Program Files (x86)\Raisonance\Ride\Lib\ARM\STM32F10x_thumb.lib(stm32f10x_gpio.o)
 .text.GPIO_EventOutputCmd
                0x00000000        0x0 C:\Program Files (x86)\Raisonance\Ride\Lib\ARM\STM32F10x_thumb.lib(stm32f10x_gpio.o)
 .text.GPIO_AFIODeInit
                0x00000000        0x0 C:\Program Files (x86)\Raisonance\Ride\Lib\ARM\STM32F10x_thumb.lib(stm32f10x_gpio.o)
 .text.GPIO_DeInit
                0x00000000        0x0 C:\Program Files (x86)\Raisonance\Ride\Lib\ARM\STM32F10x_thumb.lib(stm32f10x_gpio.o)
 .text          0x00000000        0x0 C:\Program Files (x86)\Raisonance\Ride\Lib\ARM\STM32F10x_thumb.lib(stm32f10x_iwdg.o)
 .data          0x00000000        0x0 C:\Program Files (x86)\Raisonance\Ride\Lib\ARM\STM32F10x_thumb.lib(stm32f10x_iwdg.o)
 .bss           0x00000000        0x0 C:\Program Files (x86)\Raisonance\Ride\Lib\ARM\STM32F10x_thumb.lib(stm32f10x_iwdg.o)
 .text.IWDG_GetFlagStatus
                0x00000000        0x0 C:\Program Files (x86)\Raisonance\Ride\Lib\ARM\STM32F10x_thumb.lib(stm32f10x_iwdg.o)
 .text          0x00000000        0x0 C:\Program Files (x86)\Raisonance\Ride\Lib\ARM\STM32F10x_thumb.lib(stm32f10x_nvic.o)
 .data          0x00000000        0x0 C:\Program Files (x86)\Raisonance\Ride\Lib\ARM\STM32F10x_thumb.lib(stm32f10x_nvic.o)
 .bss           0x00000000        0x0 C:\Program Files (x86)\Raisonance\Ride\Lib\ARM\STM32F10x_thumb.lib(stm32f10x_nvic.o)
 .text.NVIC_DeInit
                0x00000000        0x0 C:\Program Files (x86)\Raisonance\Ride\Lib\ARM\STM32F10x_thumb.lib(stm32f10x_nvic.o)
 .text.NVIC_SCBDeInit
                0x00000000        0x0 C:\Program Files (x86)\Raisonance\Ride\Lib\ARM\STM32F10x_thumb.lib(stm32f10x_nvic.o)
 .text.NVIC_PriorityGroupConfig
                0x00000000        0x0 C:\Program Files (x86)\Raisonance\Ride\Lib\ARM\STM32F10x_thumb.lib(stm32f10x_nvic.o)
 .text.NVIC_StructInit
                0x00000000        0x0 C:\Program Files (x86)\Raisonance\Ride\Lib\ARM\STM32F10x_thumb.lib(stm32f10x_nvic.o)
 .text.NVIC_GetCurrentPendingIRQChannel
                0x00000000        0x0 C:\Program Files (x86)\Raisonance\Ride\Lib\ARM\STM32F10x_thumb.lib(stm32f10x_nvic.o)
 .text.NVIC_GetIRQChannelPendingBitStatus
                0x00000000        0x0 C:\Program Files (x86)\Raisonance\Ride\Lib\ARM\STM32F10x_thumb.lib(stm32f10x_nvic.o)
 .text.NVIC_SetIRQChannelPendingBit
                0x00000000        0x0 C:\Program Files (x86)\Raisonance\Ride\Lib\ARM\STM32F10x_thumb.lib(stm32f10x_nvic.o)
 .text.NVIC_ClearIRQChannelPendingBit
                0x00000000        0x0 C:\Program Files (x86)\Raisonance\Ride\Lib\ARM\STM32F10x_thumb.lib(stm32f10x_nvic.o)
 .text.NVIC_GetCurrentActiveHandler
                0x00000000        0x0 C:\Program Files (x86)\Raisonance\Ride\Lib\ARM\STM32F10x_thumb.lib(stm32f10x_nvic.o)
 .text.NVIC_GetIRQChannelActiveBitStatus
                0x00000000        0x0 C:\Program Files (x86)\Raisonance\Ride\Lib\ARM\STM32F10x_thumb.lib(stm32f10x_nvic.o)
 .text.NVIC_GetCPUID
                0x00000000        0x0 C:\Program Files (x86)\Raisonance\Ride\Lib\ARM\STM32F10x_thumb.lib(stm32f10x_nvic.o)
 .text.NVIC_GenerateSystemReset
                0x00000000        0x0 C:\Program Files (x86)\Raisonance\Ride\Lib\ARM\STM32F10x_thumb.lib(stm32f10x_nvic.o)
 .text.NVIC_GenerateCoreReset
                0x00000000        0x0 C:\Program Files (x86)\Raisonance\Ride\Lib\ARM\STM32F10x_thumb.lib(stm32f10x_nvic.o)
 .text.NVIC_SystemLPConfig
                0x00000000        0x0 C:\Program Files (x86)\Raisonance\Ride\Lib\ARM\STM32F10x_thumb.lib(stm32f10x_nvic.o)
 .text.NVIC_SystemHandlerConfig
                0x00000000        0x0 C:\Program Files (x86)\Raisonance\Ride\Lib\ARM\STM32F10x_thumb.lib(stm32f10x_nvic.o)
 .text.NVIC_SystemHandlerPriorityConfig
                0x00000000        0x0 C:\Program Files (x86)\Raisonance\Ride\Lib\ARM\STM32F10x_thumb.lib(stm32f10x_nvic.o)
 .text.NVIC_GetSystemHandlerPendingBitStatus
                0x00000000        0x0 C:\Program Files (x86)\Raisonance\Ride\Lib\ARM\STM32F10x_thumb.lib(stm32f10x_nvic.o)
 .text.NVIC_SetSystemHandlerPendingBit
                0x00000000        0x0 C:\Program Files (x86)\Raisonance\Ride\Lib\ARM\STM32F10x_thumb.lib(stm32f10x_nvic.o)
 .text.NVIC_ClearSystemHandlerPendingBit
                0x00000000        0x0 C:\Program Files (x86)\Raisonance\Ride\Lib\ARM\STM32F10x_thumb.lib(stm32f10x_nvic.o)
 .text.NVIC_GetSystemHandlerActiveBitStatus
                0x00000000        0x0 C:\Program Files (x86)\Raisonance\Ride\Lib\ARM\STM32F10x_thumb.lib(stm32f10x_nvic.o)
 .text.NVIC_GetFaultHandlerSources
                0x00000000        0x0 C:\Program Files (x86)\Raisonance\Ride\Lib\ARM\STM32F10x_thumb.lib(stm32f10x_nvic.o)
 .text.NVIC_GetFaultAddress
                0x00000000        0x0 C:\Program Files (x86)\Raisonance\Ride\Lib\ARM\STM32F10x_thumb.lib(stm32f10x_nvic.o)
 .text.NVIC_GetBASEPRI
                0x00000000        0x0 C:\Program Files (x86)\Raisonance\Ride\Lib\ARM\STM32F10x_thumb.lib(stm32f10x_nvic.o)
 .text.NVIC_BASEPRICONFIG
                0x00000000        0x0 C:\Program Files (x86)\Raisonance\Ride\Lib\ARM\STM32F10x_thumb.lib(stm32f10x_nvic.o)
 .text.NVIC_RESETFAULTMASK
                0x00000000        0x0 C:\Program Files (x86)\Raisonance\Ride\Lib\ARM\STM32F10x_thumb.lib(stm32f10x_nvic.o)
 .text.NVIC_SETFAULTMASK
                0x00000000        0x0 C:\Program Files (x86)\Raisonance\Ride\Lib\ARM\STM32F10x_thumb.lib(stm32f10x_nvic.o)
 .text.NVIC_RESETPRIMASK
                0x00000000        0x0 C:\Program Files (x86)\Raisonance\Ride\Lib\ARM\STM32F10x_thumb.lib(stm32f10x_nvic.o)
 .text.NVIC_SETPRIMASK
                0x00000000        0x0 C:\Program Files (x86)\Raisonance\Ride\Lib\ARM\STM32F10x_thumb.lib(stm32f10x_nvic.o)
 .text          0x00000000        0x0 C:\Program Files (x86)\Raisonance\Ride\Lib\ARM\STM32F10x_thumb.lib(stm32f10x_pwr.o)
 .data          0x00000000        0x0 C:\Program Files (x86)\Raisonance\Ride\Lib\ARM\STM32F10x_thumb.lib(stm32f10x_pwr.o)
 .bss           0x00000000        0x0 C:\Program Files (x86)\Raisonance\Ride\Lib\ARM\STM32F10x_thumb.lib(stm32f10x_pwr.o)
 .text.PWR_PVDCmd
                0x00000000        0x0 C:\Program Files (x86)\Raisonance\Ride\Lib\ARM\STM32F10x_thumb.lib(stm32f10x_pwr.o)
 .text.PWR_PVDLevelConfig
                0x00000000        0x0 C:\Program Files (x86)\Raisonance\Ride\Lib\ARM\STM32F10x_thumb.lib(stm32f10x_pwr.o)
 .text.PWR_WakeUpPinCmd
                0x00000000        0x0 C:\Program Files (x86)\Raisonance\Ride\Lib\ARM\STM32F10x_thumb.lib(stm32f10x_pwr.o)
 .text.PWR_GetFlagStatus
                0x00000000        0x0 C:\Program Files (x86)\Raisonance\Ride\Lib\ARM\STM32F10x_thumb.lib(stm32f10x_pwr.o)
 .text.PWR_ClearFlag
                0x00000000        0x0 C:\Program Files (x86)\Raisonance\Ride\Lib\ARM\STM32F10x_thumb.lib(stm32f10x_pwr.o)
 .text.PWR_EnterSTANDBYMode
                0x00000000        0x0 C:\Program Files (x86)\Raisonance\Ride\Lib\ARM\STM32F10x_thumb.lib(stm32f10x_pwr.o)
 .text.PWR_EnterSTOPMode
                0x00000000        0x0 C:\Program Files (x86)\Raisonance\Ride\Lib\ARM\STM32F10x_thumb.lib(stm32f10x_pwr.o)
 .text.PWR_DeInit
                0x00000000        0x0 C:\Program Files (x86)\Raisonance\Ride\Lib\ARM\STM32F10x_thumb.lib(stm32f10x_pwr.o)
 .text          0x00000000        0x0 C:\Program Files (x86)\Raisonance\Ride\Lib\ARM\STM32F10x_thumb.lib(stm32f10x_rcc.o)
 .data          0x00000000        0x0 C:\Program Files (x86)\Raisonance\Ride\Lib\ARM\STM32F10x_thumb.lib(stm32f10x_rcc.o)
 .bss           0x00000000        0x0 C:\Program Files (x86)\Raisonance\Ride\Lib\ARM\STM32F10x_thumb.lib(stm32f10x_rcc.o)
 .text.RCC_AdjustHSICalibrationValue
                0x00000000        0x0 C:\Program Files (x86)\Raisonance\Ride\Lib\ARM\STM32F10x_thumb.lib(stm32f10x_rcc.o)
 .text.RCC_HSICmd
                0x00000000        0x0 C:\Program Files (x86)\Raisonance\Ride\Lib\ARM\STM32F10x_thumb.lib(stm32f10x_rcc.o)
 .text.RCC_ITConfig
                0x00000000        0x0 C:\Program Files (x86)\Raisonance\Ride\Lib\ARM\STM32F10x_thumb.lib(stm32f10x_rcc.o)
 .text.RCC_LSICmd
                0x00000000        0x0 C:\Program Files (x86)\Raisonance\Ride\Lib\ARM\STM32F10x_thumb.lib(stm32f10x_rcc.o)
 .text.RCC_APB2PeriphResetCmd
                0x00000000        0x0 C:\Program Files (x86)\Raisonance\Ride\Lib\ARM\STM32F10x_thumb.lib(stm32f10x_rcc.o)
 .text.RCC_APB1PeriphResetCmd
                0x00000000        0x0 C:\Program Files (x86)\Raisonance\Ride\Lib\ARM\STM32F10x_thumb.lib(stm32f10x_rcc.o)
 .text.RCC_BackupResetCmd
                0x00000000        0x0 C:\Program Files (x86)\Raisonance\Ride\Lib\ARM\STM32F10x_thumb.lib(stm32f10x_rcc.o)
 .text.RCC_ClockSecuritySystemCmd
                0x00000000        0x0 C:\Program Files (x86)\Raisonance\Ride\Lib\ARM\STM32F10x_thumb.lib(stm32f10x_rcc.o)
 .text.RCC_MCOConfig
                0x00000000        0x0 C:\Program Files (x86)\Raisonance\Ride\Lib\ARM\STM32F10x_thumb.lib(stm32f10x_rcc.o)
 .text.RCC_ClearFlag
                0x00000000        0x0 C:\Program Files (x86)\Raisonance\Ride\Lib\ARM\STM32F10x_thumb.lib(stm32f10x_rcc.o)
 .text.RCC_GetITStatus
                0x00000000        0x0 C:\Program Files (x86)\Raisonance\Ride\Lib\ARM\STM32F10x_thumb.lib(stm32f10x_rcc.o)
 .text.RCC_ClearITPendingBit
                0x00000000        0x0 C:\Program Files (x86)\Raisonance\Ride\Lib\ARM\STM32F10x_thumb.lib(stm32f10x_rcc.o)
 .text          0x00000000        0x0 C:\Program Files (x86)\Raisonance\Ride\Lib\ARM\STM32F10x_thumb.lib(stm32f10x_rtc.o)
 .data          0x00000000        0x0 C:\Program Files (x86)\Raisonance\Ride\Lib\ARM\STM32F10x_thumb.lib(stm32f10x_rtc.o)
 .bss           0x00000000        0x0 C:\Program Files (x86)\Raisonance\Ride\Lib\ARM\STM32F10x_thumb.lib(stm32f10x_rtc.o)
 .text.RTC_ITConfig
                0x00000000        0x0 C:\Program Files (x86)\Raisonance\Ride\Lib\ARM\STM32F10x_thumb.lib(stm32f10x_rtc.o)
 .text.RTC_EnterConfigMode
                0x00000000        0x0 C:\Program Files (x86)\Raisonance\Ride\Lib\ARM\STM32F10x_thumb.lib(stm32f10x_rtc.o)
 .text.RTC_ExitConfigMode
                0x00000000        0x0 C:\Program Files (x86)\Raisonance\Ride\Lib\ARM\STM32F10x_thumb.lib(stm32f10x_rtc.o)
 .text.RTC_SetAlarm
                0x00000000        0x0 C:\Program Files (x86)\Raisonance\Ride\Lib\ARM\STM32F10x_thumb.lib(stm32f10x_rtc.o)
 .text.RTC_GetDivider
                0x00000000        0x0 C:\Program Files (x86)\Raisonance\Ride\Lib\ARM\STM32F10x_thumb.lib(stm32f10x_rtc.o)
 .text.RTC_WaitForSynchro
                0x00000000        0x0 C:\Program Files (x86)\Raisonance\Ride\Lib\ARM\STM32F10x_thumb.lib(stm32f10x_rtc.o)
 .text.RTC_GetFlagStatus
                0x00000000        0x0 C:\Program Files (x86)\Raisonance\Ride\Lib\ARM\STM32F10x_thumb.lib(stm32f10x_rtc.o)
 .text.RTC_ClearFlag
                0x00000000        0x0 C:\Program Files (x86)\Raisonance\Ride\Lib\ARM\STM32F10x_thumb.lib(stm32f10x_rtc.o)
 .text.RTC_GetITStatus
                0x00000000        0x0 C:\Program Files (x86)\Raisonance\Ride\Lib\ARM\STM32F10x_thumb.lib(stm32f10x_rtc.o)
 .text          0x00000000        0x0 C:\Program Files (x86)\Raisonance\Ride\Lib\ARM\STM32F10x_thumb.lib(stm32f10x_spi.o)
 .data          0x00000000        0x0 C:\Program Files (x86)\Raisonance\Ride\Lib\ARM\STM32F10x_thumb.lib(stm32f10x_spi.o)
 .bss           0x00000000        0x0 C:\Program Files (x86)\Raisonance\Ride\Lib\ARM\STM32F10x_thumb.lib(stm32f10x_spi.o)
 .text.SPI_StructInit
                0x00000000        0x0 C:\Program Files (x86)\Raisonance\Ride\Lib\ARM\STM32F10x_thumb.lib(stm32f10x_spi.o)
 .text.I2S_StructInit
                0x00000000        0x0 C:\Program Files (x86)\Raisonance\Ride\Lib\ARM\STM32F10x_thumb.lib(stm32f10x_spi.o)
 .text.I2S_Cmd  0x00000000        0x0 C:\Program Files (x86)\Raisonance\Ride\Lib\ARM\STM32F10x_thumb.lib(stm32f10x_spi.o)
 .text.SPI_I2S_ITConfig
                0x00000000        0x0 C:\Program Files (x86)\Raisonance\Ride\Lib\ARM\STM32F10x_thumb.lib(stm32f10x_spi.o)
 .text.SPI_I2S_DMACmd
                0x00000000        0x0 C:\Program Files (x86)\Raisonance\Ride\Lib\ARM\STM32F10x_thumb.lib(stm32f10x_spi.o)
 .text.SPI_I2S_SendData
                0x00000000        0x0 C:\Program Files (x86)\Raisonance\Ride\Lib\ARM\STM32F10x_thumb.lib(stm32f10x_spi.o)
 .text.SPI_I2S_ReceiveData
                0x00000000        0x0 C:\Program Files (x86)\Raisonance\Ride\Lib\ARM\STM32F10x_thumb.lib(stm32f10x_spi.o)
 .text.SPI_NSSInternalSoftwareConfig
                0x00000000        0x0 C:\Program Files (x86)\Raisonance\Ride\Lib\ARM\STM32F10x_thumb.lib(stm32f10x_spi.o)
 .text.SPI_SSOutputCmd
                0x00000000        0x0 C:\Program Files (x86)\Raisonance\Ride\Lib\ARM\STM32F10x_thumb.lib(stm32f10x_spi.o)
 .text.SPI_DataSizeConfig
                0x00000000        0x0 C:\Program Files (x86)\Raisonance\Ride\Lib\ARM\STM32F10x_thumb.lib(stm32f10x_spi.o)
 .text.SPI_TransmitCRC
                0x00000000        0x0 C:\Program Files (x86)\Raisonance\Ride\Lib\ARM\STM32F10x_thumb.lib(stm32f10x_spi.o)
 .text.SPI_CalculateCRC
                0x00000000        0x0 C:\Program Files (x86)\Raisonance\Ride\Lib\ARM\STM32F10x_thumb.lib(stm32f10x_spi.o)
 .text.SPI_GetCRC
                0x00000000        0x0 C:\Program Files (x86)\Raisonance\Ride\Lib\ARM\STM32F10x_thumb.lib(stm32f10x_spi.o)
 .text.SPI_GetCRCPolynomial
                0x00000000        0x0 C:\Program Files (x86)\Raisonance\Ride\Lib\ARM\STM32F10x_thumb.lib(stm32f10x_spi.o)
 .text.SPI_BiDirectionalLineConfig
                0x00000000        0x0 C:\Program Files (x86)\Raisonance\Ride\Lib\ARM\STM32F10x_thumb.lib(stm32f10x_spi.o)
 .text.SPI_I2S_GetFlagStatus
                0x00000000        0x0 C:\Program Files (x86)\Raisonance\Ride\Lib\ARM\STM32F10x_thumb.lib(stm32f10x_spi.o)
 .text.SPI_I2S_ClearFlag
                0x00000000        0x0 C:\Program Files (x86)\Raisonance\Ride\Lib\ARM\STM32F10x_thumb.lib(stm32f10x_spi.o)
 .text.SPI_I2S_GetITStatus
                0x00000000        0x0 C:\Program Files (x86)\Raisonance\Ride\Lib\ARM\STM32F10x_thumb.lib(stm32f10x_spi.o)
 .text.SPI_I2S_ClearITPendingBit
                0x00000000        0x0 C:\Program Files (x86)\Raisonance\Ride\Lib\ARM\STM32F10x_thumb.lib(stm32f10x_spi.o)
 .text.I2S_Init
                0x00000000        0x0 C:\Program Files (x86)\Raisonance\Ride\Lib\ARM\STM32F10x_thumb.lib(stm32f10x_spi.o)
 .text.SPI_I2S_DeInit
                0x00000000        0x0 C:\Program Files (x86)\Raisonance\Ride\Lib\ARM\STM32F10x_thumb.lib(stm32f10x_spi.o)
 .text          0x00000000        0x0 C:\Program Files (x86)\Raisonance\Ride\Lib\ARM\STM32F10x_thumb.lib(stm32f10x_systick.o)
 .data          0x00000000        0x0 C:\Program Files (x86)\Raisonance\Ride\Lib\ARM\STM32F10x_thumb.lib(stm32f10x_systick.o)
 .bss           0x00000000        0x0 C:\Program Files (x86)\Raisonance\Ride\Lib\ARM\STM32F10x_thumb.lib(stm32f10x_systick.o)
 .text.SysTick_GetCounter
                0x00000000        0x0 C:\Program Files (x86)\Raisonance\Ride\Lib\ARM\STM32F10x_thumb.lib(stm32f10x_systick.o)
 .text.SysTick_GetFlagStatus
                0x00000000        0x0 C:\Program Files (x86)\Raisonance\Ride\Lib\ARM\STM32F10x_thumb.lib(stm32f10x_systick.o)
 .text          0x00000000        0x0 C:\Program Files (x86)\Raisonance\Ride\Lib\ARM\STM32F10x_thumb.lib(stm32f10x_tim.o)
 .data          0x00000000        0x0 C:\Program Files (x86)\Raisonance\Ride\Lib\ARM\STM32F10x_thumb.lib(stm32f10x_tim.o)
 .bss           0x00000000        0x0 C:\Program Files (x86)\Raisonance\Ride\Lib\ARM\STM32F10x_thumb.lib(stm32f10x_tim.o)
 .text.TIM_OC2Init
                0x00000000        0x0 C:\Program Files (x86)\Raisonance\Ride\Lib\ARM\STM32F10x_thumb.lib(stm32f10x_tim.o)
 .text.TIM_OC3Init
                0x00000000        0x0 C:\Program Files (x86)\Raisonance\Ride\Lib\ARM\STM32F10x_thumb.lib(stm32f10x_tim.o)
 .text.TIM_OC4Init
                0x00000000        0x0 C:\Program Files (x86)\Raisonance\Ride\Lib\ARM\STM32F10x_thumb.lib(stm32f10x_tim.o)
 .text.TIM_PWMIConfig
                0x00000000        0x0 C:\Program Files (x86)\Raisonance\Ride\Lib\ARM\STM32F10x_thumb.lib(stm32f10x_tim.o)
 .text.TIM_BDTRConfig
                0x00000000        0x0 C:\Program Files (x86)\Raisonance\Ride\Lib\ARM\STM32F10x_thumb.lib(stm32f10x_tim.o)
 .text.TIM_TimeBaseStructInit
                0x00000000        0x0 C:\Program Files (x86)\Raisonance\Ride\Lib\ARM\STM32F10x_thumb.lib(stm32f10x_tim.o)
 .text.TIM_OCStructInit
                0x00000000        0x0 C:\Program Files (x86)\Raisonance\Ride\Lib\ARM\STM32F10x_thumb.lib(stm32f10x_tim.o)
 .text.TIM_ICStructInit
                0x00000000        0x0 C:\Program Files (x86)\Raisonance\Ride\Lib\ARM\STM32F10x_thumb.lib(stm32f10x_tim.o)
 .text.TIM_BDTRStructInit
                0x00000000        0x0 C:\Program Files (x86)\Raisonance\Ride\Lib\ARM\STM32F10x_thumb.lib(stm32f10x_tim.o)
 .text.TIM_GenerateEvent
                0x00000000        0x0 C:\Program Files (x86)\Raisonance\Ride\Lib\ARM\STM32F10x_thumb.lib(stm32f10x_tim.o)
 .text.TIM_DMAConfig
                0x00000000        0x0 C:\Program Files (x86)\Raisonance\Ride\Lib\ARM\STM32F10x_thumb.lib(stm32f10x_tim.o)
 .text.TIM_DMACmd
                0x00000000        0x0 C:\Program Files (x86)\Raisonance\Ride\Lib\ARM\STM32F10x_thumb.lib(stm32f10x_tim.o)
 .text.TIM_InternalClockConfig
                0x00000000        0x0 C:\Program Files (x86)\Raisonance\Ride\Lib\ARM\STM32F10x_thumb.lib(stm32f10x_tim.o)
 .text.TIM_ITRxExternalClockConfig
                0x00000000        0x0 C:\Program Files (x86)\Raisonance\Ride\Lib\ARM\STM32F10x_thumb.lib(stm32f10x_tim.o)
 .text.TIM_TIxExternalClockConfig
                0x00000000        0x0 C:\Program Files (x86)\Raisonance\Ride\Lib\ARM\STM32F10x_thumb.lib(stm32f10x_tim.o)
 .text.TIM_ETRClockMode1Config
                0x00000000        0x0 C:\Program Files (x86)\Raisonance\Ride\Lib\ARM\STM32F10x_thumb.lib(stm32f10x_tim.o)
 .text.TIM_ETRClockMode2Config
                0x00000000        0x0 C:\Program Files (x86)\Raisonance\Ride\Lib\ARM\STM32F10x_thumb.lib(stm32f10x_tim.o)
 .text.TIM_ETRConfig
                0x00000000        0x0 C:\Program Files (x86)\Raisonance\Ride\Lib\ARM\STM32F10x_thumb.lib(stm32f10x_tim.o)
 .text.TIM_PrescalerConfig
                0x00000000        0x0 C:\Program Files (x86)\Raisonance\Ride\Lib\ARM\STM32F10x_thumb.lib(stm32f10x_tim.o)
 .text.TIM_CounterModeConfig
                0x00000000        0x0 C:\Program Files (x86)\Raisonance\Ride\Lib\ARM\STM32F10x_thumb.lib(stm32f10x_tim.o)
 .text.TIM_SelectInputTrigger
                0x00000000        0x0 C:\Program Files (x86)\Raisonance\Ride\Lib\ARM\STM32F10x_thumb.lib(stm32f10x_tim.o)
 .text.TIM_EncoderInterfaceConfig
                0x00000000        0x0 C:\Program Files (x86)\Raisonance\Ride\Lib\ARM\STM32F10x_thumb.lib(stm32f10x_tim.o)
 .text.TIM_ForcedOC1Config
                0x00000000        0x0 C:\Program Files (x86)\Raisonance\Ride\Lib\ARM\STM32F10x_thumb.lib(stm32f10x_tim.o)
 .text.TIM_ForcedOC2Config
                0x00000000        0x0 C:\Program Files (x86)\Raisonance\Ride\Lib\ARM\STM32F10x_thumb.lib(stm32f10x_tim.o)
 .text.TIM_ForcedOC3Config
                0x00000000        0x0 C:\Program Files (x86)\Raisonance\Ride\Lib\ARM\STM32F10x_thumb.lib(stm32f10x_tim.o)
 .text.TIM_ForcedOC4Config
                0x00000000        0x0 C:\Program Files (x86)\Raisonance\Ride\Lib\ARM\STM32F10x_thumb.lib(stm32f10x_tim.o)
 .text.TIM_SelectCOM
                0x00000000        0x0 C:\Program Files (x86)\Raisonance\Ride\Lib\ARM\STM32F10x_thumb.lib(stm32f10x_tim.o)
 .text.TIM_SelectCCDMA
                0x00000000        0x0 C:\Program Files (x86)\Raisonance\Ride\Lib\ARM\STM32F10x_thumb.lib(stm32f10x_tim.o)
 .text.TIM_CCPreloadControl
                0x00000000        0x0 C:\Program Files (x86)\Raisonance\Ride\Lib\ARM\STM32F10x_thumb.lib(stm32f10x_tim.o)
 .text.TIM_OC2PreloadConfig
                0x00000000        0x0 C:\Program Files (x86)\Raisonance\Ride\Lib\ARM\STM32F10x_thumb.lib(stm32f10x_tim.o)
 .text.TIM_OC3PreloadConfig
                0x00000000        0x0 C:\Program Files (x86)\Raisonance\Ride\Lib\ARM\STM32F10x_thumb.lib(stm32f10x_tim.o)
 .text.TIM_OC4PreloadConfig
                0x00000000        0x0 C:\Program Files (x86)\Raisonance\Ride\Lib\ARM\STM32F10x_thumb.lib(stm32f10x_tim.o)
 .text.TIM_OC1FastConfig
                0x00000000        0x0 C:\Program Files (x86)\Raisonance\Ride\Lib\ARM\STM32F10x_thumb.lib(stm32f10x_tim.o)
 .text.TIM_OC2FastConfig
                0x00000000        0x0 C:\Program Files (x86)\Raisonance\Ride\Lib\ARM\STM32F10x_thumb.lib(stm32f10x_tim.o)
 .text.TIM_OC3FastConfig
                0x00000000        0x0 C:\Program Files (x86)\Raisonance\Ride\Lib\ARM\STM32F10x_thumb.lib(stm32f10x_tim.o)
 .text.TIM_OC4FastConfig
                0x00000000        0x0 C:\Program Files (x86)\Raisonance\Ride\Lib\ARM\STM32F10x_thumb.lib(stm32f10x_tim.o)
 .text.TIM_ClearOC1Ref
                0x00000000        0x0 C:\Program Files (x86)\Raisonance\Ride\Lib\ARM\STM32F10x_thumb.lib(stm32f10x_tim.o)
 .text.TIM_ClearOC2Ref
                0x00000000        0x0 C:\Program Files (x86)\Raisonance\Ride\Lib\ARM\STM32F10x_thumb.lib(stm32f10x_tim.o)
 .text.TIM_ClearOC3Ref
                0x00000000        0x0 C:\Program Files (x86)\Raisonance\Ride\Lib\ARM\STM32F10x_thumb.lib(stm32f10x_tim.o)
 .text.TIM_ClearOC4Ref
                0x00000000        0x0 C:\Program Files (x86)\Raisonance\Ride\Lib\ARM\STM32F10x_thumb.lib(stm32f10x_tim.o)
 .text.TIM_OC1NPolarityConfig
                0x00000000        0x0 C:\Program Files (x86)\Raisonance\Ride\Lib\ARM\STM32F10x_thumb.lib(stm32f10x_tim.o)
 .text.TIM_OC2PolarityConfig
                0x00000000        0x0 C:\Program Files (x86)\Raisonance\Ride\Lib\ARM\STM32F10x_thumb.lib(stm32f10x_tim.o)
 .text.TIM_OC2NPolarityConfig
                0x00000000        0x0 C:\Program Files (x86)\Raisonance\Ride\Lib\ARM\STM32F10x_thumb.lib(stm32f10x_tim.o)
 .text.TIM_OC3PolarityConfig
                0x00000000        0x0 C:\Program Files (x86)\Raisonance\Ride\Lib\ARM\STM32F10x_thumb.lib(stm32f10x_tim.o)
 .text.TIM_OC3NPolarityConfig
                0x00000000        0x0 C:\Program Files (x86)\Raisonance\Ride\Lib\ARM\STM32F10x_thumb.lib(stm32f10x_tim.o)
 .text.TIM_OC4PolarityConfig
                0x00000000        0x0 C:\Program Files (x86)\Raisonance\Ride\Lib\ARM\STM32F10x_thumb.lib(stm32f10x_tim.o)
 .text.TIM_CCxCmd
                0x00000000        0x0 C:\Program Files (x86)\Raisonance\Ride\Lib\ARM\STM32F10x_thumb.lib(stm32f10x_tim.o)
 .text.TIM_CCxNCmd
                0x00000000        0x0 C:\Program Files (x86)\Raisonance\Ride\Lib\ARM\STM32F10x_thumb.lib(stm32f10x_tim.o)
 .text.TIM_SelectOCxM
                0x00000000        0x0 C:\Program Files (x86)\Raisonance\Ride\Lib\ARM\STM32F10x_thumb.lib(stm32f10x_tim.o)
 .text.TIM_UpdateDisableConfig
                0x00000000        0x0 C:\Program Files (x86)\Raisonance\Ride\Lib\ARM\STM32F10x_thumb.lib(stm32f10x_tim.o)
 .text.TIM_UpdateRequestConfig
                0x00000000        0x0 C:\Program Files (x86)\Raisonance\Ride\Lib\ARM\STM32F10x_thumb.lib(stm32f10x_tim.o)
 .text.TIM_SelectHallSensor
                0x00000000        0x0 C:\Program Files (x86)\Raisonance\Ride\Lib\ARM\STM32F10x_thumb.lib(stm32f10x_tim.o)
 .text.TIM_SelectOnePulseMode
                0x00000000        0x0 C:\Program Files (x86)\Raisonance\Ride\Lib\ARM\STM32F10x_thumb.lib(stm32f10x_tim.o)
 .text.TIM_SelectOutputTrigger
                0x00000000        0x0 C:\Program Files (x86)\Raisonance\Ride\Lib\ARM\STM32F10x_thumb.lib(stm32f10x_tim.o)
 .text.TIM_SelectSlaveMode
                0x00000000        0x0 C:\Program Files (x86)\Raisonance\Ride\Lib\ARM\STM32F10x_thumb.lib(stm32f10x_tim.o)
 .text.TIM_SelectMasterSlaveMode
                0x00000000        0x0 C:\Program Files (x86)\Raisonance\Ride\Lib\ARM\STM32F10x_thumb.lib(stm32f10x_tim.o)
 .text.TIM_SetAutoreload
                0x00000000        0x0 C:\Program Files (x86)\Raisonance\Ride\Lib\ARM\STM32F10x_thumb.lib(stm32f10x_tim.o)
 .text.TIM_SetCompare2
                0x00000000        0x0 C:\Program Files (x86)\Raisonance\Ride\Lib\ARM\STM32F10x_thumb.lib(stm32f10x_tim.o)
 .text.TIM_SetCompare3
                0x00000000        0x0 C:\Program Files (x86)\Raisonance\Ride\Lib\ARM\STM32F10x_thumb.lib(stm32f10x_tim.o)
 .text.TIM_SetIC1Prescaler
                0x00000000        0x0 C:\Program Files (x86)\Raisonance\Ride\Lib\ARM\STM32F10x_thumb.lib(stm32f10x_tim.o)
 .text.TIM_SetIC2Prescaler
                0x00000000        0x0 C:\Program Files (x86)\Raisonance\Ride\Lib\ARM\STM32F10x_thumb.lib(stm32f10x_tim.o)
 .text.TIM_SetIC3Prescaler
                0x00000000        0x0 C:\Program Files (x86)\Raisonance\Ride\Lib\ARM\STM32F10x_thumb.lib(stm32f10x_tim.o)
 .text.TIM_SetIC4Prescaler
                0x00000000        0x0 C:\Program Files (x86)\Raisonance\Ride\Lib\ARM\STM32F10x_thumb.lib(stm32f10x_tim.o)
 .text.TIM_SetClockDivision
                0x00000000        0x0 C:\Program Files (x86)\Raisonance\Ride\Lib\ARM\STM32F10x_thumb.lib(stm32f10x_tim.o)
 .text.TIM_GetCapture2
                0x00000000        0x0 C:\Program Files (x86)\Raisonance\Ride\Lib\ARM\STM32F10x_thumb.lib(stm32f10x_tim.o)
 .text.TIM_GetCapture3
                0x00000000        0x0 C:\Program Files (x86)\Raisonance\Ride\Lib\ARM\STM32F10x_thumb.lib(stm32f10x_tim.o)
 .text.TIM_GetCapture4
                0x00000000        0x0 C:\Program Files (x86)\Raisonance\Ride\Lib\ARM\STM32F10x_thumb.lib(stm32f10x_tim.o)
 .text.TIM_GetPrescaler
                0x00000000        0x0 C:\Program Files (x86)\Raisonance\Ride\Lib\ARM\STM32F10x_thumb.lib(stm32f10x_tim.o)
 .text.TIM_GetFlagStatus
                0x00000000        0x0 C:\Program Files (x86)\Raisonance\Ride\Lib\ARM\STM32F10x_thumb.lib(stm32f10x_tim.o)
 .text.TIM_ClearFlag
                0x00000000        0x0 C:\Program Files (x86)\Raisonance\Ride\Lib\ARM\STM32F10x_thumb.lib(stm32f10x_tim.o)
 .text.TIM_GetITStatus
                0x00000000        0x0 C:\Program Files (x86)\Raisonance\Ride\Lib\ARM\STM32F10x_thumb.lib(stm32f10x_tim.o)
 .text.TIM_DeInit
                0x00000000        0x0 C:\Program Files (x86)\Raisonance\Ride\Lib\ARM\STM32F10x_thumb.lib(stm32f10x_tim.o)
 .text          0x00000000        0x0 C:\Program Files (x86)\Raisonance\Ride\Lib\ARM\STM32F10x_thumb.lib(stm32f10x_usart.o)
 .data          0x00000000        0x0 C:\Program Files (x86)\Raisonance\Ride\Lib\ARM\STM32F10x_thumb.lib(stm32f10x_usart.o)
 .bss           0x00000000        0x0 C:\Program Files (x86)\Raisonance\Ride\Lib\ARM\STM32F10x_thumb.lib(stm32f10x_usart.o)
 .text.USART_StructInit
                0x00000000        0x0 C:\Program Files (x86)\Raisonance\Ride\Lib\ARM\STM32F10x_thumb.lib(stm32f10x_usart.o)
 .text.USART_ClockInit
                0x00000000        0x0 C:\Program Files (x86)\Raisonance\Ride\Lib\ARM\STM32F10x_thumb.lib(stm32f10x_usart.o)
 .text.USART_ClockStructInit
                0x00000000        0x0 C:\Program Files (x86)\Raisonance\Ride\Lib\ARM\STM32F10x_thumb.lib(stm32f10x_usart.o)
 .text.USART_SetAddress
                0x00000000        0x0 C:\Program Files (x86)\Raisonance\Ride\Lib\ARM\STM32F10x_thumb.lib(stm32f10x_usart.o)
 .text.USART_WakeUpConfig
                0x00000000        0x0 C:\Program Files (x86)\Raisonance\Ride\Lib\ARM\STM32F10x_thumb.lib(stm32f10x_usart.o)
 .text.USART_ReceiverWakeUpCmd
                0x00000000        0x0 C:\Program Files (x86)\Raisonance\Ride\Lib\ARM\STM32F10x_thumb.lib(stm32f10x_usart.o)
 .text.USART_LINBreakDetectLengthConfig
                0x00000000        0x0 C:\Program Files (x86)\Raisonance\Ride\Lib\ARM\STM32F10x_thumb.lib(stm32f10x_usart.o)
 .text.USART_LINCmd
                0x00000000        0x0 C:\Program Files (x86)\Raisonance\Ride\Lib\ARM\STM32F10x_thumb.lib(stm32f10x_usart.o)
 .text.USART_SendBreak
                0x00000000        0x0 C:\Program Files (x86)\Raisonance\Ride\Lib\ARM\STM32F10x_thumb.lib(stm32f10x_usart.o)
 .text.USART_SetGuardTime
                0x00000000        0x0 C:\Program Files (x86)\Raisonance\Ride\Lib\ARM\STM32F10x_thumb.lib(stm32f10x_usart.o)
 .text.USART_SetPrescaler
                0x00000000        0x0 C:\Program Files (x86)\Raisonance\Ride\Lib\ARM\STM32F10x_thumb.lib(stm32f10x_usart.o)
 .text.USART_SmartCardCmd
                0x00000000        0x0 C:\Program Files (x86)\Raisonance\Ride\Lib\ARM\STM32F10x_thumb.lib(stm32f10x_usart.o)
 .text.USART_SmartCardNACKCmd
                0x00000000        0x0 C:\Program Files (x86)\Raisonance\Ride\Lib\ARM\STM32F10x_thumb.lib(stm32f10x_usart.o)
 .text.USART_HalfDuplexCmd
                0x00000000        0x0 C:\Program Files (x86)\Raisonance\Ride\Lib\ARM\STM32F10x_thumb.lib(stm32f10x_usart.o)
 .text.USART_IrDAConfig
                0x00000000        0x0 C:\Program Files (x86)\Raisonance\Ride\Lib\ARM\STM32F10x_thumb.lib(stm32f10x_usart.o)
 .text.USART_IrDACmd
                0x00000000        0x0 C:\Program Files (x86)\Raisonance\Ride\Lib\ARM\STM32F10x_thumb.lib(stm32f10x_usart.o)
 .text.USART_ClearFlag
                0x00000000        0x0 C:\Program Files (x86)\Raisonance\Ride\Lib\ARM\STM32F10x_thumb.lib(stm32f10x_usart.o)
 .text.USART_ClearITPendingBit
                0x00000000        0x0 C:\Program Files (x86)\Raisonance\Ride\Lib\ARM\STM32F10x_thumb.lib(stm32f10x_usart.o)
 .text.USART_DeInit
                0x00000000        0x0 C:\Program Files (x86)\Raisonance\Ride\Lib\ARM\STM32F10x_thumb.lib(stm32f10x_usart.o)
 .text          0x00000000        0x0 C:\Program Files (x86)\Raisonance\Ride\Lib\ARM\STM32F10x_thumb.lib(stm32f10x_wwdg.o)
 .data          0x00000000        0x0 C:\Program Files (x86)\Raisonance\Ride\Lib\ARM\STM32F10x_thumb.lib(stm32f10x_wwdg.o)
 .bss           0x00000000        0x0 C:\Program Files (x86)\Raisonance\Ride\Lib\ARM\STM32F10x_thumb.lib(stm32f10x_wwdg.o)
 .text.WWDG_EnableIT
                0x00000000        0x0 C:\Program Files (x86)\Raisonance\Ride\Lib\ARM\STM32F10x_thumb.lib(stm32f10x_wwdg.o)
 .text.WWDG_GetFlagStatus
                0x00000000        0x0 C:\Program Files (x86)\Raisonance\Ride\Lib\ARM\STM32F10x_thumb.lib(stm32f10x_wwdg.o)
 .text.WWDG_ClearFlag
                0x00000000        0x0 C:\Program Files (x86)\Raisonance\Ride\Lib\ARM\STM32F10x_thumb.lib(stm32f10x_wwdg.o)
 .text.WWDG_DeInit
                0x00000000        0x0 C:\Program Files (x86)\Raisonance\Ride\Lib\ARM\STM32F10x_thumb.lib(stm32f10x_wwdg.o)
 .text          0x00000000        0x0 C:\Program Files (x86)\Raisonance\Ride\Lib\ARM\STM32F10x_thumb.lib(stm32f10x_adc.o)
 .data          0x00000000        0x0 C:\Program Files (x86)\Raisonance\Ride\Lib\ARM\STM32F10x_thumb.lib(stm32f10x_adc.o)
 .bss           0x00000000        0x0 C:\Program Files (x86)\Raisonance\Ride\Lib\ARM\STM32F10x_thumb.lib(stm32f10x_adc.o)
 .text.ADC_StructInit
                0x00000000        0x0 C:\Program Files (x86)\Raisonance\Ride\Lib\ARM\STM32F10x_thumb.lib(stm32f10x_adc.o)
 .text.ADC_ITConfig
                0x00000000        0x0 C:\Program Files (x86)\Raisonance\Ride\Lib\ARM\STM32F10x_thumb.lib(stm32f10x_adc.o)
 .text.ADC_GetSoftwareStartConvStatus
                0x00000000        0x0 C:\Program Files (x86)\Raisonance\Ride\Lib\ARM\STM32F10x_thumb.lib(stm32f10x_adc.o)
 .text.ADC_DiscModeChannelCountConfig
                0x00000000        0x0 C:\Program Files (x86)\Raisonance\Ride\Lib\ARM\STM32F10x_thumb.lib(stm32f10x_adc.o)
 .text.ADC_DiscModeCmd
                0x00000000        0x0 C:\Program Files (x86)\Raisonance\Ride\Lib\ARM\STM32F10x_thumb.lib(stm32f10x_adc.o)
 .text.ADC_ExternalTrigConvCmd
                0x00000000        0x0 C:\Program Files (x86)\Raisonance\Ride\Lib\ARM\STM32F10x_thumb.lib(stm32f10x_adc.o)
 .text.ADC_GetConversionValue
                0x00000000        0x0 C:\Program Files (x86)\Raisonance\Ride\Lib\ARM\STM32F10x_thumb.lib(stm32f10x_adc.o)
 .text.ADC_GetDualModeConversionValue
                0x00000000        0x0 C:\Program Files (x86)\Raisonance\Ride\Lib\ARM\STM32F10x_thumb.lib(stm32f10x_adc.o)
 .text.ADC_AutoInjectedConvCmd
                0x00000000        0x0 C:\Program Files (x86)\Raisonance\Ride\Lib\ARM\STM32F10x_thumb.lib(stm32f10x_adc.o)
 .text.ADC_InjectedDiscModeCmd
                0x00000000        0x0 C:\Program Files (x86)\Raisonance\Ride\Lib\ARM\STM32F10x_thumb.lib(stm32f10x_adc.o)
 .text.ADC_ExternalTrigInjectedConvConfig
                0x00000000        0x0 C:\Program Files (x86)\Raisonance\Ride\Lib\ARM\STM32F10x_thumb.lib(stm32f10x_adc.o)
 .text.ADC_ExternalTrigInjectedConvCmd
                0x00000000        0x0 C:\Program Files (x86)\Raisonance\Ride\Lib\ARM\STM32F10x_thumb.lib(stm32f10x_adc.o)
 .text.ADC_SoftwareStartInjectedConvCmd
                0x00000000        0x0 C:\Program Files (x86)\Raisonance\Ride\Lib\ARM\STM32F10x_thumb.lib(stm32f10x_adc.o)
 .text.ADC_GetSoftwareStartInjectedConvCmdStatus
                0x00000000        0x0 C:\Program Files (x86)\Raisonance\Ride\Lib\ARM\STM32F10x_thumb.lib(stm32f10x_adc.o)
 .text.ADC_InjectedChannelConfig
                0x00000000        0x0 C:\Program Files (x86)\Raisonance\Ride\Lib\ARM\STM32F10x_thumb.lib(stm32f10x_adc.o)
 .text.ADC_InjectedSequencerLengthConfig
                0x00000000        0x0 C:\Program Files (x86)\Raisonance\Ride\Lib\ARM\STM32F10x_thumb.lib(stm32f10x_adc.o)
 .text.ADC_SetInjectedOffset
                0x00000000        0x0 C:\Program Files (x86)\Raisonance\Ride\Lib\ARM\STM32F10x_thumb.lib(stm32f10x_adc.o)
 .text.ADC_GetInjectedConversionValue
                0x00000000        0x0 C:\Program Files (x86)\Raisonance\Ride\Lib\ARM\STM32F10x_thumb.lib(stm32f10x_adc.o)
 .text.ADC_AnalogWatchdogCmd
                0x00000000        0x0 C:\Program Files (x86)\Raisonance\Ride\Lib\ARM\STM32F10x_thumb.lib(stm32f10x_adc.o)
 .text.ADC_AnalogWatchdogThresholdsConfig
                0x00000000        0x0 C:\Program Files (x86)\Raisonance\Ride\Lib\ARM\STM32F10x_thumb.lib(stm32f10x_adc.o)
 .text.ADC_AnalogWatchdogSingleChannelConfig
                0x00000000        0x0 C:\Program Files (x86)\Raisonance\Ride\Lib\ARM\STM32F10x_thumb.lib(stm32f10x_adc.o)
 .text.ADC_GetFlagStatus
                0x00000000        0x0 C:\Program Files (x86)\Raisonance\Ride\Lib\ARM\STM32F10x_thumb.lib(stm32f10x_adc.o)
 .text.ADC_ClearFlag
                0x00000000        0x0 C:\Program Files (x86)\Raisonance\Ride\Lib\ARM\STM32F10x_thumb.lib(stm32f10x_adc.o)
 .text.ADC_GetITStatus
                0x00000000        0x0 C:\Program Files (x86)\Raisonance\Ride\Lib\ARM\STM32F10x_thumb.lib(stm32f10x_adc.o)
 .text.ADC_ClearITPendingBit
                0x00000000        0x0 C:\Program Files (x86)\Raisonance\Ride\Lib\ARM\STM32F10x_thumb.lib(stm32f10x_adc.o)
 .text.ADC_DeInit
                0x00000000        0x0 C:\Program Files (x86)\Raisonance\Ride\Lib\ARM\STM32F10x_thumb.lib(stm32f10x_adc.o)
 .text          0x00000000        0x0 C:\Program Files (x86)\Raisonance\Ride\Lib\ARM\STM32F10x_thumb.lib(stm32f10x_bkp.o)
 .data          0x00000000        0x0 C:\Program Files (x86)\Raisonance\Ride\Lib\ARM\STM32F10x_thumb.lib(stm32f10x_bkp.o)
 .bss           0x00000000        0x0 C:\Program Files (x86)\Raisonance\Ride\Lib\ARM\STM32F10x_thumb.lib(stm32f10x_bkp.o)
 .text.BKP_TamperPinLevelConfig
                0x00000000        0x0 C:\Program Files (x86)\Raisonance\Ride\Lib\ARM\STM32F10x_thumb.lib(stm32f10x_bkp.o)
 .text.BKP_TamperPinCmd
                0x00000000        0x0 C:\Program Files (x86)\Raisonance\Ride\Lib\ARM\STM32F10x_thumb.lib(stm32f10x_bkp.o)
 .text.BKP_ITConfig
                0x00000000        0x0 C:\Program Files (x86)\Raisonance\Ride\Lib\ARM\STM32F10x_thumb.lib(stm32f10x_bkp.o)
 .text.BKP_RTCOutputConfig
                0x00000000        0x0 C:\Program Files (x86)\Raisonance\Ride\Lib\ARM\STM32F10x_thumb.lib(stm32f10x_bkp.o)
 .text.BKP_SetRTCCalibrationValue
                0x00000000        0x0 C:\Program Files (x86)\Raisonance\Ride\Lib\ARM\STM32F10x_thumb.lib(stm32f10x_bkp.o)
 .text.BKP_GetFlagStatus
                0x00000000        0x0 C:\Program Files (x86)\Raisonance\Ride\Lib\ARM\STM32F10x_thumb.lib(stm32f10x_bkp.o)
 .text.BKP_ClearFlag
                0x00000000        0x0 C:\Program Files (x86)\Raisonance\Ride\Lib\ARM\STM32F10x_thumb.lib(stm32f10x_bkp.o)
 .text.BKP_GetITStatus
                0x00000000        0x0 C:\Program Files (x86)\Raisonance\Ride\Lib\ARM\STM32F10x_thumb.lib(stm32f10x_bkp.o)
 .text.BKP_ClearITPendingBit
                0x00000000        0x0 C:\Program Files (x86)\Raisonance\Ride\Lib\ARM\STM32F10x_thumb.lib(stm32f10x_bkp.o)
 .text.BKP_DeInit
                0x00000000        0x0 C:\Program Files (x86)\Raisonance\Ride\Lib\ARM\STM32F10x_thumb.lib(stm32f10x_bkp.o)
 .text          0x00000000        0x0 C:\Program Files (x86)\Raisonance\Ride\Lib\ARM\STM32F10x_thumb.lib(cortexm3_macro.o)
 .data          0x00000000        0x0 C:\Program Files (x86)\Raisonance\Ride\Lib\ARM\STM32F10x_thumb.lib(cortexm3_macro.o)
 .bss           0x00000000        0x0 C:\Program Files (x86)\Raisonance\Ride\Lib\ARM\STM32F10x_thumb.lib(cortexm3_macro.o)
 .text          0x00000000        0x0 c:/program files (x86)/raisonance/ride/arm-gcc/bin/../lib/gcc/arm-none-eabi/4.3.2/../../../../arm-none-eabi/lib/thumb2\libc.a(lib_a-abort.o)
 .data          0x00000000        0x0 c:/program files (x86)/raisonance/ride/arm-gcc/bin/../lib/gcc/arm-none-eabi/4.3.2/../../../../arm-none-eabi/lib/thumb2\libc.a(lib_a-abort.o)
 .bss           0x00000000        0x0 c:/program files (x86)/raisonance/ride/arm-gcc/bin/../lib/gcc/arm-none-eabi/4.3.2/../../../../arm-none-eabi/lib/thumb2\libc.a(lib_a-abort.o)
 .text          0x00000000        0x0 c:/program files (x86)/raisonance/ride/arm-gcc/bin/../lib/gcc/arm-none-eabi/4.3.2/../../../../arm-none-eabi/lib/thumb2\libc.a(lib_a-errno.o)
 .data          0x00000000        0x0 c:/program files (x86)/raisonance/ride/arm-gcc/bin/../lib/gcc/arm-none-eabi/4.3.2/../../../../arm-none-eabi/lib/thumb2\libc.a(lib_a-errno.o)
 .bss           0x00000000        0x0 c:/program files (x86)/raisonance/ride/arm-gcc/bin/../lib/gcc/arm-none-eabi/4.3.2/../../../../arm-none-eabi/lib/thumb2\libc.a(lib_a-errno.o)
 .text          0x00000000        0x0 c:/program files (x86)/raisonance/ride/arm-gcc/bin/../lib/gcc/arm-none-eabi/4.3.2/../../../../arm-none-eabi/lib/thumb2\libc.a(lib_a-impure.o)
 .data          0x00000000        0x0 c:/program files (x86)/raisonance/ride/arm-gcc/bin/../lib/gcc/arm-none-eabi/4.3.2/../../../../arm-none-eabi/lib/thumb2\libc.a(lib_a-impure.o)
 .bss           0x00000000        0x0 c:/program files (x86)/raisonance/ride/arm-gcc/bin/../lib/gcc/arm-none-eabi/4.3.2/../../../../arm-none-eabi/lib/thumb2\libc.a(lib_a-impure.o)
 .rodata        0x00000000        0x0 c:/program files (x86)/raisonance/ride/arm-gcc/bin/../lib/gcc/arm-none-eabi/4.3.2/../../../../arm-none-eabi/lib/thumb2\libc.a(lib_a-impure.o)
 .rodata.str1.4
                0x00000000        0x0 c:/program files (x86)/raisonance/ride/arm-gcc/bin/../lib/gcc/arm-none-eabi/4.3.2/../../../../arm-none-eabi/lib/thumb2\libc.a(lib_a-impure.o)
 .text          0x00000000        0x0 c:/program files (x86)/raisonance/ride/arm-gcc/bin/../lib/gcc/arm-none-eabi/4.3.2/../../../../arm-none-eabi/lib/thumb2\libc.a(lib_a-signal.o)
 .data          0x00000000        0x0 c:/program files (x86)/raisonance/ride/arm-gcc/bin/../lib/gcc/arm-none-eabi/4.3.2/../../../../arm-none-eabi/lib/thumb2\libc.a(lib_a-signal.o)
 .bss           0x00000000        0x0 c:/program files (x86)/raisonance/ride/arm-gcc/bin/../lib/gcc/arm-none-eabi/4.3.2/../../../../arm-none-eabi/lib/thumb2\libc.a(lib_a-signal.o)
 .text          0x00000000        0x0 c:/program files (x86)/raisonance/ride/arm-gcc/bin/../lib/gcc/arm-none-eabi/4.3.2/../../../../arm-none-eabi/lib/thumb2\libc.a(lib_a-signalr.o)
 .data          0x00000000        0x0 c:/program files (x86)/raisonance/ride/arm-gcc/bin/../lib/gcc/arm-none-eabi/4.3.2/../../../../arm-none-eabi/lib/thumb2\libc.a(lib_a-signalr.o)
 .bss           0x00000000        0x0 c:/program files (x86)/raisonance/ride/arm-gcc/bin/../lib/gcc/arm-none-eabi/4.3.2/../../../../arm-none-eabi/lib/thumb2\libc.a(lib_a-signalr.o)
 .text          0x00000000        0x0 c:/program files (x86)/raisonance/ride/arm-gcc/bin/../lib/gcc/arm-none-eabi/4.3.2/../../../../arm-none-eabi/lib/thumb2\libc.a(lib_a-mallocr.o)
 .data          0x00000000        0x0 c:/program files (x86)/raisonance/ride/arm-gcc/bin/../lib/gcc/arm-none-eabi/4.3.2/../../../../arm-none-eabi/lib/thumb2\libc.a(lib_a-mallocr.o)
 .bss           0x00000000        0x0 c:/program files (x86)/raisonance/ride/arm-gcc/bin/../lib/gcc/arm-none-eabi/4.3.2/../../../../arm-none-eabi/lib/thumb2\libc.a(lib_a-mallocr.o)
 .text          0x00000000        0x0 c:/program files (x86)/raisonance/ride/arm-gcc/bin/../lib/gcc/arm-none-eabi/4.3.2/../../../../arm-none-eabi/lib/thumb2\libc.a(lib_a-mlock.o)
 .data          0x00000000        0x0 c:/program files (x86)/raisonance/ride/arm-gcc/bin/../lib/gcc/arm-none-eabi/4.3.2/../../../../arm-none-eabi/lib/thumb2\libc.a(lib_a-mlock.o)
 .bss           0x00000000        0x0 c:/program files (x86)/raisonance/ride/arm-gcc/bin/../lib/gcc/arm-none-eabi/4.3.2/../../../../arm-none-eabi/lib/thumb2\libc.a(lib_a-mlock.o)
 .text          0x00000000        0x0 c:/program files (x86)/raisonance/ride/arm-gcc/bin/../lib/gcc/arm-none-eabi/4.3.2/../../../../arm-none-eabi/lib/thumb2\libc.a(lib_a-reent.o)
 .data          0x00000000        0x0 c:/program files (x86)/raisonance/ride/arm-gcc/bin/../lib/gcc/arm-none-eabi/4.3.2/../../../../arm-none-eabi/lib/thumb2\libc.a(lib_a-reent.o)
 .bss           0x00000000        0x0 c:/program files (x86)/raisonance/ride/arm-gcc/bin/../lib/gcc/arm-none-eabi/4.3.2/../../../../arm-none-eabi/lib/thumb2\libc.a(lib_a-reent.o)
 COMMON         0x00000000        0x0 c:/program files (x86)/raisonance/ride/arm-gcc/bin/../lib/gcc/arm-none-eabi/4.3.2/../../../../arm-none-eabi/lib/thumb2\libc.a(lib_a-reent.o)
 .text          0x00000000        0x0 c:/program files (x86)/raisonance/ride/arm-gcc/bin/../lib/gcc/arm-none-eabi/4.3.2/../../../../arm-none-eabi/lib/thumb2\libc.a(lib_a-sbrkr.o)
 .data          0x00000000        0x0 c:/program files (x86)/raisonance/ride/arm-gcc/bin/../lib/gcc/arm-none-eabi/4.3.2/../../../../arm-none-eabi/lib/thumb2\libc.a(lib_a-sbrkr.o)
 .bss           0x00000000        0x0 c:/program files (x86)/raisonance/ride/arm-gcc/bin/../lib/gcc/arm-none-eabi/4.3.2/../../../../arm-none-eabi/lib/thumb2\libc.a(lib_a-sbrkr.o)
 .text          0x00000000        0x0 c:/program files (x86)/raisonance/ride/arm-gcc/bin/../lib/gcc/arm-none-eabi/4.3.2/../../../../arm-none-eabi/lib/thumb2\libc.a(lib_a-freer.o)
 .data          0x00000000        0x0 c:/program files (x86)/raisonance/ride/arm-gcc/bin/../lib/gcc/arm-none-eabi/4.3.2/../../../../arm-none-eabi/lib/thumb2\libc.a(lib_a-freer.o)
 .bss           0x00000000        0x0 c:/program files (x86)/raisonance/ride/arm-gcc/bin/../lib/gcc/arm-none-eabi/4.3.2/../../../../arm-none-eabi/lib/thumb2\libc.a(lib_a-freer.o)

Memory Configuration

Name             Origin             Length             Attributes
RAM              0x20000000         0x0000c000         xrw
FLASH            0x08000000         0x00040000         xr
FLASHPATCH       0x00000000         0x00000000         r
ENDFLASH         0x00000000         0x00000000         xr
FLASHB1          0x00000000         0x00000000         xr
EXTMEMB0         0x00000000         0x00000000         xr
EXTMEMB1         0x00000000         0x00000000         xr
EXTMEMB2         0x00000000         0x00000000         xr
EXTMEMB3         0x00000000         0x00000000         xr
*default*        0x00000000         0xffffffff

Linker script and memory map

LOAD C:\Program Files (x86)\Raisonance\Ride\lib\ARM\crt0_STM32x_HD.o
LOAD C:\tien\PROJEKTY\procesory\STM\T108_V100a\stm32f10x_flash.o
LOAD C:\tien\PROJEKTY\procesory\STM\T108_V100a\control.o
LOAD C:\tien\PROJEKTY\procesory\STM\T108_V100a\sys.o
LOAD C:\tien\PROJEKTY\procesory\STM\T108_V100a\stm32f10x_it.o
LOAD C:\tien\PROJEKTY\procesory\STM\T108_V100a\RTC.o
LOAD C:\tien\PROJEKTY\procesory\STM\T108_V100a\main.o
LOAD C:\tien\PROJEKTY\procesory\STM\T108_V100a\lcd.o
LOAD C:\tien\PROJEKTY\procesory\STM\T108_V100a\hardware.o
LOAD C:\tien\PROJEKTY\procesory\STM\T108_V100a\gui.o
LOAD C:\tien\PROJEKTY\procesory\STM\T108_V100a\usb_core.o
LOAD C:\tien\PROJEKTY\procesory\STM\T108_V100a\usb_init.o
LOAD C:\tien\PROJEKTY\procesory\STM\T108_V100a\usb_int.o
LOAD C:\tien\PROJEKTY\procesory\STM\T108_V100a\usb_mem.o
LOAD C:\tien\PROJEKTY\procesory\STM\T108_V100a\usb_regs.o
LOAD C:\tien\PROJEKTY\procesory\STM\T108_V100a\usb_desc.o
LOAD C:\tien\PROJEKTY\procesory\STM\T108_V100a\usb_istr.o
LOAD C:\tien\PROJEKTY\procesory\STM\T108_V100a\usb_prop.o
LOAD C:\tien\PROJEKTY\procesory\STM\T108_V100a\usb_pwr.o
LOAD C:\tien\PROJEKTY\procesory\STM\T108_V100a\usb_endp.o
                0x00000400                __Stack_Size = 0x400
                0x00000400                PROVIDE (_Stack_Size, __Stack_Size)
                0x2000bc00                __Stack_Init = (_estack - __Stack_Size)
                0x2000bc00                PROVIDE (_Stack_Init, __Stack_Init)
                0x00000100                _Minimum_Stack_Size = 0x100
                0x00000000                PROVIDE (Undefined_Handler, 0x0)
                0x00000000                PROVIDE (SWI_Handler, 0x0)
                0x00000000                PROVIDE (IRQ_Handler, 0x0)
                0x00000000                PROVIDE (Prefetch_Handler, 0x0)
                0x00000000                PROVIDE (Abort_Handler, 0x0)
                0x00000000                PROVIDE (FIQ_Handler, 0x0)
                0x00000000                PROVIDE (NMIException, 0x0)
                0x00000000                PROVIDE (NMI_Handler, 0x0)
                0x00000000                PROVIDE (HardFaultException, 0x0)
                0x00000000                PROVIDE (HardFault_Handler, 0x0)
                0x00000000                PROVIDE (MemManageException, 0x0)
                0x00000000                PROVIDE (MemManage_Handler, 0x0)
                0x00000000                PROVIDE (BusFaultException, 0x0)
                0x00000000                PROVIDE (BusFault_Handler, 0x0)
                0x00000000                PROVIDE (UsageFaultException, 0x0)
                0x00000000                PROVIDE (UsageFault_Handler, 0x0)
                0x00000000                PROVIDE (SVCHandler, 0x0)
                0x00000000                PROVIDE (SVC_Handler, 0x0)
                0x00000000                PROVIDE (DebugMonitor, 0x0)
                0x00000000                PROVIDE (DebugMon_Handler, 0x0)
                0x00000000                PROVIDE (PendSVC, 0x0)
                0x00000000                PROVIDE (PendSV_Handler, 0x0)
                0x00000000                PROVIDE (SysTickHandler, 0x0)
                0x00000000                PROVIDE (SysTick_Handler, 0x0)
                0x00000000                PROVIDE (WWDG_IRQHandler, 0x0)
                0x00000000                PROVIDE (PVD_IRQHandler, 0x0)
                0x00000000                PROVIDE (TAMPER_IRQHandler, 0x0)
                0x00000000                PROVIDE (RTC_IRQHandler, 0x0)
                0x00000000                PROVIDE (FLASH_IRQHandler, 0x0)
                0x00000000                PROVIDE (RCC_IRQHandler, 0x0)
                0x00000000                PROVIDE (EXTI0_IRQHandler, 0x0)
                0x00000000                PROVIDE (EXTI1_IRQHandler, 0x0)
                0x00000000                PROVIDE (EXTI2_IRQHandler, 0x0)
                0x00000000                PROVIDE (EXTI3_IRQHandler, 0x0)
                0x00000000                PROVIDE (EXTI4_IRQHandler, 0x0)
                0x00000000                PROVIDE (DMAChannel1_IRQHandler, 0x0)
                0x00000000                PROVIDE (DMAChannel2_IRQHandler, 0x0)
                0x00000000                PROVIDE (DMAChannel3_IRQHandler, 0x0)
                0x00000000                PROVIDE (DMAChannel4_IRQHandler, 0x0)
                0x00000000                PROVIDE (DMAChannel5_IRQHandler, 0x0)
                0x00000000                PROVIDE (DMAChannel6_IRQHandler, 0x0)
                0x00000000                PROVIDE (DMAChannel7_IRQHandler, 0x0)
                0x00000000                PROVIDE (DMA1_Channel1_IRQHandler, 0x0)
                0x00000000                PROVIDE (DMA1_Channel2_IRQHandler, 0x0)
                0x00000000                PROVIDE (DMA1_Channel3_IRQHandler, 0x0)
                0x00000000                PROVIDE (DMA1_Channel4_IRQHandler, 0x0)
                0x00000000                PROVIDE (DMA1_Channel5_IRQHandler, 0x0)
                0x00000000                PROVIDE (DMA1_Channel6_IRQHandler, 0x0)
                0x00000000                PROVIDE (DMA1_Channel7_IRQHandler, 0x0)
                0x00000000                PROVIDE (ADC_IRQHandler, 0x0)
                0x00000000                PROVIDE (ADC1_2_IRQHandler, 0x0)
                0x00000000                PROVIDE (USB_HP_CAN_TX_IRQHandler, 0x0)
                0x00000000                PROVIDE (USB_HP_CAN1_TX_IRQHandler, 0x0)
                0x00000000                PROVIDE (USB_LP_CAN_RX0_IRQHandler, 0x0)
                0x00000000                PROVIDE (USB_LP_CAN1_RX0_IRQHandler, 0x0)
                0x00000000                PROVIDE (CAN_RX1_IRQHandler, 0x0)
                0x00000000                PROVIDE (CAN1_RX1_IRQHandler, 0x0)
                0x00000000                PROVIDE (CAN_SCE_IRQHandler, 0x0)
                0x00000000                PROVIDE (CAN1_SCE_IRQHandler, 0x0)
                0x00000000                PROVIDE (EXTI9_5_IRQHandler, 0x0)
                0x00000000                PROVIDE (TIM1_BRK_IRQHandler, 0x0)
                0x00000000                PROVIDE (TIM1_UP_IRQHandler, 0x0)
                0x00000000                PROVIDE (TIM1_TRG_COM_IRQHandler, 0x0)
                0x00000000                PROVIDE (TIM1_CC_IRQHandler, 0x0)
                0x00000000                PROVIDE (TIM2_IRQHandler, 0x0)
                0x00000000                PROVIDE (TIM3_IRQHandler, 0x0)
                0x00000000                PROVIDE (TIM4_IRQHandler, 0x0)
                0x00000000                PROVIDE (I2C1_EV_IRQHandler, 0x0)
                0x00000000                PROVIDE (I2C1_ER_IRQHandler, 0x0)
                0x00000000                PROVIDE (I2C2_EV_IRQHandler, 0x0)
                0x00000000                PROVIDE (I2C2_ER_IRQHandler, 0x0)
                0x00000000                PROVIDE (SPI1_IRQHandler, 0x0)
                0x00000000                PROVIDE (SPI2_IRQHandler, 0x0)
                0x00000000                PROVIDE (USART1_IRQHandler, 0x0)
                0x00000000                PROVIDE (USART2_IRQHandler, 0x0)
                0x00000000                PROVIDE (USART3_IRQHandler, 0x0)
                0x00000000                PROVIDE (EXTI15_10_IRQHandler, 0x0)
                0x00000000                PROVIDE (RTCAlarm_IRQHandler, 0x0)
                0x00000000                PROVIDE (USBWakeUp_IRQHandler, 0x0)
                0x00000000                PROVIDE (TIM8_BRK_IRQHandler, 0x0)
                0x00000000                PROVIDE (TIM8_UP_IRQHandler, 0x0)
                0x00000000                PROVIDE (TIM8_TRG_COM_IRQHandler, 0x0)
                0x00000000                PROVIDE (TIM8_CC_IRQHandler, 0x0)
                0x00000000                PROVIDE (ADC3_IRQHandler, 0x0)
                0x00000000                PROVIDE (FSMC_IRQHandler, 0x0)
                0x00000000                PROVIDE (SDIO_IRQHandler, 0x0)
                0x00000000                PROVIDE (TIM5_IRQHandler, 0x0)
                0x00000000                PROVIDE (SPI3_IRQHandler, 0x0)
                0x00000000                PROVIDE (UART4_IRQHandler, 0x0)
                0x00000000                PROVIDE (UART5_IRQHandler, 0x0)
                0x00000000                PROVIDE (TIM6_IRQHandler, 0x0)
                0x00000000                PROVIDE (TIM7_IRQHandler, 0x0)
                0x00000000                PROVIDE (DMA2_Channel1_IRQHandler, 0x0)
                0x00000000                PROVIDE (DMA2_Channel2_IRQHandler, 0x0)
                0x00000000                PROVIDE (DMA2_Channel3_IRQHandler, 0x0)
                0x00000000                PROVIDE (DMA2_Channel4_5_IRQHandler, 0x0)
                0x42000000                PERIPH_BB_BASE = 0x42000000
                0x22000000                SRAM_BB_BASE = 0x22000000
                0x20000000                SRAM_BASE = 0x20000000
                0x40000000                PERIPH_BASE = 0x40000000
                0x40022000                PROVIDE (FLASH_BASE, 0x40022000)
                0x1ffff800                PROVIDE (OB_BASE, 0x1ffff800)
                0x40000000                APB1PERIPH_BASE = PERIPH_BASE
                0x40010000                APB2PERIPH_BASE = (PERIPH_BASE + 0x10000)
                0x40020000                AHBPERIPH_BASE = (PERIPH_BASE + 0x20000)
                0x40000000                PROVIDE (TIM2, (APB1PERIPH_BASE + 0x0))
                0x40000400                PROVIDE (TIM3, (APB1PERIPH_BASE + 0x400))
                0x40000800                PROVIDE (TIM4, (APB1PERIPH_BASE + 0x800))
                0x40002800                PROVIDE (RTC, (APB1PERIPH_BASE + 0x2800))
                0x40002c00                PROVIDE (WWDG, (APB1PERIPH_BASE + 0x2c00))
                0x40003000                PROVIDE (IWDG, (APB1PERIPH_BASE + 0x3000))
                0x40003800                PROVIDE (SPI2, (APB1PERIPH_BASE + 0x3800))
                0x40004400                PROVIDE (USART2, (APB1PERIPH_BASE + 0x4400))
                0x40004800                PROVIDE (USART3, (APB1PERIPH_BASE + 0x4800))
                0x40005400                PROVIDE (I2C1, (APB1PERIPH_BASE + 0x5400))
                0x40005800                PROVIDE (I2C2, (APB1PERIPH_BASE + 0x5800))
                0x40006400                PROVIDE (CAN, (APB1PERIPH_BASE + 0x6400))
                0x40006c00                PROVIDE (BKP, (APB1PERIPH_BASE + 0x6c00))
                0x40007000                PROVIDE (PWR, (APB1PERIPH_BASE + 0x7000))
                0x40010000                PROVIDE (AFIO, (APB2PERIPH_BASE + 0x0))
                0x40010400                PROVIDE (EXTI, (APB2PERIPH_BASE + 0x400))
                0x40010800                PROVIDE (GPIOA, (APB2PERIPH_BASE + 0x800))
                0x40010c00                PROVIDE (GPIOB, (APB2PERIPH_BASE + 0xc00))
                0x40011000                PROVIDE (GPIOC, (APB2PERIPH_BASE + 0x1000))
                0x40011400                PROVIDE (GPIOD, (APB2PERIPH_BASE + 0x1400))
                0x40011800                PROVIDE (GPIOE, (APB2PERIPH_BASE + 0x1800))
                0x40012400                PROVIDE (ADC1, (APB2PERIPH_BASE + 0x2400))
                0x40012800                PROVIDE (ADC2, (APB2PERIPH_BASE + 0x2800))
                0x40012c00                PROVIDE (TIM1, (APB2PERIPH_BASE + 0x2c00))
                0x40013000                PROVIDE (SPI1, (APB2PERIPH_BASE + 0x3000))
                0x40013800                PROVIDE (USART1, (APB2PERIPH_BASE + 0x3800))
                0x40020000                PROVIDE (DMA, (AHBPERIPH_BASE + 0x0))
                0x40020008                PROVIDE (DMA_Channel1, (AHBPERIPH_BASE + 0x8))
                0x4002001c                PROVIDE (DMA_Channel2, (AHBPERIPH_BASE + 0x1c))
                0x40020030                PROVIDE (DMA_Channel3, (AHBPERIPH_BASE + 0x30))
                0x40020044                PROVIDE (DMA_Channel4, (AHBPERIPH_BASE + 0x44))
                0x40020058                PROVIDE (DMA_Channel5, (AHBPERIPH_BASE + 0x58))
                0x4002006c                PROVIDE (DMA_Channel6, (AHBPERIPH_BASE + 0x6c))
                0x40020080                PROVIDE (DMA_Channel7, (AHBPERIPH_BASE + 0x80))
                0x40021000                PROVIDE (RCC, (AHBPERIPH_BASE + 0x1000))
                0xe000e000                SCS_BASE = 0xe000e000
                0xe000e010                PROVIDE (SysTick, (SCS_BASE + 0x10))
                0xe000e100                PROVIDE (NVIC, (SCS_BASE + 0x100))
                0xe000ed00                PROVIDE (SCB, (SCS_BASE + 0xd00))
                0x2000c000                _estack = 0x2000c000

.isr_vector     0x08000000      0x1e4
                0x08000000                . = ALIGN (0x4)
 *(.isr_vector)
 .isr_vector    0x08000000      0x1e4 C:\Program Files (x86)\Raisonance\Ride\lib\ARM\crt0_STM32x_HD.o
                0x08000000                g_pfnVectors
                0x080001e4                . = ALIGN (0x4)

.flashtext      0x080001e4        0x0
                0x080001e4                . = ALIGN (0x4)
 *(.flashtext)
                0x080001e4                . = ALIGN (0x4)

.text           0x080001e4     0xef00
                0x080001e4                . = ALIGN (0x4)
 *(.text)
 .text          0x080001e4       0x98 c:/program files (x86)/raisonance/ride/arm-gcc/bin/../lib/gcc/arm-none-eabi/4.3.2/../../../../arm-none-eabi/lib/thumb2\libc.a(lib_a-memcpy.o)
                0x080001e4                memcpy
 *(.text.*)
 .text.Reset_Handler
                0x0800027c       0x88 C:\Program Files (x86)\Raisonance\Ride\lib\ARM\crt0_STM32x_HD.o
                0x0800027c                Reset_Handler
 .text.FLASH_SetLatency
                0x08000304       0x18 C:\tien\PROJEKTY\procesory\STM\T108_V100a\stm32f10x_flash.o
                0x08000304                FLASH_SetLatency
 .text.FLASH_PrefetchBufferCmd
                0x0800031c       0x18 C:\tien\PROJEKTY\procesory\STM\T108_V100a\stm32f10x_flash.o
                0x0800031c                FLASH_PrefetchBufferCmd
 .text.FLASH_Unlock
                0x08000334       0x18 C:\tien\PROJEKTY\procesory\STM\T108_V100a\stm32f10x_flash.o
                0x08000334                FLASH_Unlock
 .text.FLASH_ClearFlag
                0x0800034c        0xc C:\tien\PROJEKTY\procesory\STM\T108_V100a\stm32f10x_flash.o
                0x0800034c                FLASH_ClearFlag
 .text.FLASH_GetStatus
                0x08000358       0x2c C:\tien\PROJEKTY\procesory\STM\T108_V100a\stm32f10x_flash.o
                0x08000358                FLASH_GetStatus
 .text.FLASH_WaitForLastOperation
                0x08000384       0x34 C:\tien\PROJEKTY\procesory\STM\T108_V100a\stm32f10x_flash.o
                0x08000384                FLASH_WaitForLastOperation
 .text.FLASH_ProgramWord
                0x080003b8       0x48 C:\tien\PROJEKTY\procesory\STM\T108_V100a\stm32f10x_flash.o
                0x080003b8                FLASH_ProgramWord
 .text.FLASH_ErasePage
                0x08000400       0x44 C:\tien\PROJEKTY\procesory\STM\T108_V100a\stm32f10x_flash.o
                0x08000400                FLASH_ErasePage
 .text.Pwm_Output_Handling
                0x08000444       0x28 C:\tien\PROJEKTY\procesory\STM\T108_V100a\control.o
                0x08000444                Pwm_Output_Handling
 .text.Inputs_Stop
                0x0800046c       0x38 C:\tien\PROJEKTY\procesory\STM\T108_V100a\control.o
                0x0800046c                Inputs_Stop
 .text.WG_Inputs_Closed_Handling_Function
                0x080004a4       0x10 C:\tien\PROJEKTY\procesory\STM\T108_V100a\control.o
 .text.WG_Inputs_Closed
                0x080004b4      0x188 C:\tien\PROJEKTY\procesory\STM\T108_V100a\control.o
 .text.WG_Inputs_Opened_Handling_Function
                0x0800063c       0x10 C:\tien\PROJEKTY\procesory\STM\T108_V100a\control.o
 .text.WG_Inputs_Opened
                0x0800064c      0x128 C:\tien\PROJEKTY\procesory\STM\T108_V100a\control.o
 .text.Wg_Power_On_Alerts_Release
                0x08000774       0x3c C:\tien\PROJEKTY\procesory\STM\T108_V100a\control.o
 .text.Wg_Alerts_Closing_Handling
                0x080007b0       0xe4 C:\tien\PROJEKTY\procesory\STM\T108_V100a\control.o
 .text.WG_Inputs_Closing
                0x08000894      0x1bc C:\tien\PROJEKTY\procesory\STM\T108_V100a\control.o
 .text.Wg_Alerts_Opening_Handling
                0x08000a50       0xc0 C:\tien\PROJEKTY\procesory\STM\T108_V100a\control.o
 .text.WG_Inputs_Opening
                0x08000b10       0x54 C:\tien\PROJEKTY\procesory\STM\T108_V100a\control.o
 .text.Reset_Inputs
                0x08000b64       0x3c C:\tien\PROJEKTY\procesory\STM\T108_V100a\control.o
 .text.Wg_Power_On_Alerts
                0x08000ba0       0x24 C:\tien\PROJEKTY\procesory\STM\T108_V100a\control.o
 .text.Learm_Closing_Fun
                0x08000bc4       0x2c C:\tien\PROJEKTY\procesory\STM\T108_V100a\control.o
 .text.Learm_Opening_Fun
                0x08000bf0       0x2c C:\tien\PROJEKTY\procesory\STM\T108_V100a\control.o
 .text.Inverters_Setting_Fun
                0x08000c1c       0x50 C:\tien\PROJEKTY\procesory\STM\T108_V100a\control.o
 .text.WG_Stop_Closed
                0x08000c6c      0x140 C:\tien\PROJEKTY\procesory\STM\T108_V100a\control.o
 .text.WG_Stop_Opened
                0x08000dac      0x128 C:\tien\PROJEKTY\procesory\STM\T108_V100a\control.o
 .text.Inputs_Back_Handling
                0x08000ed4       0x2c C:\tien\PROJEKTY\procesory\STM\T108_V100a\control.o
 .text.Position_Closed_1
                0x08000f00       0x6c C:\tien\PROJEKTY\procesory\STM\T108_V100a\control.o
                0x08000f00                Position_Closed_1
 .text.Position_Closed_2
                0x08000f6c       0x70 C:\tien\PROJEKTY\procesory\STM\T108_V100a\control.o
                0x08000f6c                Position_Closed_2
 .text.WG_Closing_Fun
                0x08000fdc      0x1bc C:\tien\PROJEKTY\procesory\STM\T108_V100a\control.o
 .text.Position_Opened_1
                0x08001198       0x70 C:\tien\PROJEKTY\procesory\STM\T108_V100a\control.o
                0x08001198                Position_Opened_1
 .text.Position_Opened_2
                0x08001208       0x6c C:\tien\PROJEKTY\procesory\STM\T108_V100a\control.o
                0x08001208                Position_Opened_2
 .text.WG_Opening_Fun
                0x08001274      0x1b8 C:\tien\PROJEKTY\procesory\STM\T108_V100a\control.o
 .text.Cl_Start_MS_Fun
                0x0800142c        0x4 C:\tien\PROJEKTY\procesory\STM\T108_V100a\control.o
 .text.Op_Start_MS_Fun
                0x08001430        0x4 C:\tien\PROJEKTY\procesory\STM\T108_V100a\control.o
 .text.DC_Motor_Invert_Direction
                0x08001434       0x18 C:\tien\PROJEKTY\procesory\STM\T108_V100a\control.o
 .text.Inputs_Pre_Opening
                0x0800144c      0x128 C:\tien\PROJEKTY\procesory\STM\T108_V100a\control.o
 .text.Inputs_Pre_Closing
                0x08001574      0x198 C:\tien\PROJEKTY\procesory\STM\T108_V100a\control.o
 .text.WG_Inputs_Opened_Half_Handling
                0x0800170c      0x1b4 C:\tien\PROJEKTY\procesory\STM\T108_V100a\control.o
 .text.WG_Inputs_Closed_Half_Handling
                0x080018c0      0x1b8 C:\tien\PROJEKTY\procesory\STM\T108_V100a\control.o
 .text.Release_Photo_Closing
                0x08001a78       0x30 C:\tien\PROJEKTY\procesory\STM\T108_V100a\control.o
 .text.Release_Photo_Opening
                0x08001aa8       0x30 C:\tien\PROJEKTY\procesory\STM\T108_V100a\control.o
 .text.WG_Inputs_Opened_Half
                0x08001ad8      0x2b4 C:\tien\PROJEKTY\procesory\STM\T108_V100a\control.o
 .text.WG_Inputs_Closed_Half
                0x08001d8c      0x268 C:\tien\PROJEKTY\procesory\STM\T108_V100a\control.o
 .text.WG_Stop_Opened_Half
                0x08001ff4      0x218 C:\tien\PROJEKTY\procesory\STM\T108_V100a\control.o
 .text.WG_Stop_Release_Fun
                0x0800220c      0x178 C:\tien\PROJEKTY\procesory\STM\T108_V100a\control.o
 .text.Learm_Opened_Fun
                0x08002384       0x9c C:\tien\PROJEKTY\procesory\STM\T108_V100a\control.o
 .text.Learm_Standby_Fun
                0x08002420       0x58 C:\tien\PROJEKTY\procesory\STM\T108_V100a\control.o
 .text.Wait_4_Learn_Fun
                0x08002478       0x58 C:\tien\PROJEKTY\procesory\STM\T108_V100a\control.o
 .text.Cl_Al_Stop_Fun
                0x080024d0       0x44 C:\tien\PROJEKTY\procesory\STM\T108_V100a\control.o
                0x080024d0                Cl_Al_Stop_Fun
 .text.Op_Al_Stop_Fun
                0x08002514       0x44 C:\tien\PROJEKTY\procesory\STM\T108_V100a\control.o
                0x08002514                Op_Al_Stop_Fun
 .text.Wg_Alerts_Opening_Release
                0x08002558      0x1f8 C:\tien\PROJEKTY\procesory\STM\T108_V100a\control.o
 .text.Wg_Alerts_Release
                0x08002750      0x1e4 C:\tien\PROJEKTY\procesory\STM\T108_V100a\control.o
 .text.Inverters_Speed_Control
                0x08002934      0x3cc C:\tien\PROJEKTY\procesory\STM\T108_V100a\control.o
 .text.Closing_Pre_Worning_Fun
                0x08002d00       0xe4 C:\tien\PROJEKTY\procesory\STM\T108_V100a\control.o
 .text.Opening_Pre_Worning_Fun
                0x08002de4       0xf0 C:\tien\PROJEKTY\procesory\STM\T108_V100a\control.o
 .text.Gate_Opened_Fun
                0x08002ed4      0x2c8 C:\tien\PROJEKTY\procesory\STM\T108_V100a\control.o
 .text.WG_Power_On_Fun
                0x0800319c      0x274 C:\tien\PROJEKTY\procesory\STM\T108_V100a\control.o
 .text.Inputs_Alert
                0x08003410      0x130 C:\tien\PROJEKTY\procesory\STM\T108_V100a\control.o
                0x08003410                Inputs_Alert
 .text.Learm_Closed_Fun
                0x08003540       0x48 C:\tien\PROJEKTY\procesory\STM\T108_V100a\control.o
 .text.On_Off_Output_Handling
                0x08003588       0x3c C:\tien\PROJEKTY\procesory\STM\T108_V100a\control.o
                0x08003588                On_Off_Output_Handling
 .text.Control  0x080035c4      0x4bc C:\tien\PROJEKTY\procesory\STM\T108_V100a\control.o
                0x080035c4                Control
 .text.System_Timer_Setting
                0x08003a80       0x10 C:\tien\PROJEKTY\procesory\STM\T108_V100a\sys.o
                0x08003a80                System_Timer_Setting
 .text.System_Timer_Check
                0x08003a90       0x18 C:\tien\PROJEKTY\procesory\STM\T108_V100a\sys.o
                0x08003a90                System_Timer_Check
 .text.Sys_Init
                0x08003aa8      0x140 C:\tien\PROJEKTY\procesory\STM\T108_V100a\sys.o
                0x08003aa8                Sys_Init
 .text.Square_Generator
                0x08003be8       0x40 C:\tien\PROJEKTY\procesory\STM\T108_V100a\sys.o
                0x08003be8                Square_Generator
 .text.Enable_Manual_Control
                0x08003c28       0x14 C:\tien\PROJEKTY\procesory\STM\T108_V100a\sys.o
                0x08003c28                Enable_Manual_Control
 .text.Disable_Manual_Control
                0x08003c3c       0x24 C:\tien\PROJEKTY\procesory\STM\T108_V100a\sys.o
                0x08003c3c                Disable_Manual_Control
 .text.Disable_Manual_Values
                0x08003c60       0x14 C:\tien\PROJEKTY\procesory\STM\T108_V100a\sys.o
                0x08003c60                Disable_Manual_Values
 .text.CRC16_CCITT
                0x08003c74       0x58 C:\tien\PROJEKTY\procesory\STM\T108_V100a\sys.o
                0x08003c74                CRC16_CCITT
 .text.Analog_Inputs_Fun
                0x08003ccc       0x60 C:\tien\PROJEKTY\procesory\STM\T108_V100a\sys.o
                0x08003ccc                Analog_Inputs_Fun
 .text.Motors_Enable_Fun
                0x08003d2c      0x174 C:\tien\PROJEKTY\procesory\STM\T108_V100a\sys.o
                0x08003d2c                Motors_Enable_Fun
 .text.Status_Handling
                0x08003ea0       0x98 C:\tien\PROJEKTY\procesory\STM\T108_V100a\sys.o
                0x08003ea0                Status_Handling
 .text.Relays_Handling
                0x08003f38      0x2d0 C:\tien\PROJEKTY\procesory\STM\T108_V100a\sys.o
                0x08003f38                Relays_Handling
 .text.AS5040_Angle_Handling
                0x08004208       0xd4 C:\tien\PROJEKTY\procesory\STM\T108_V100a\sys.o
                0x08004208                AS5040_Angle_Handling
 .text.Motor_24VDC_handling
                0x080042dc       0x38 C:\tien\PROJEKTY\procesory\STM\T108_V100a\sys.o
                0x080042dc                Motor_24VDC_handling
 .text.Inputs_On_Off
                0x08004314       0x2c C:\tien\PROJEKTY\procesory\STM\T108_V100a\sys.o
                0x08004314                Inputs_On_Off
 .text.Inputs_Handling
                0x08004340      0x4bc C:\tien\PROJEKTY\procesory\STM\T108_V100a\sys.o
                0x08004340                Inputs_Handling
 .text.RS485_Send
                0x080047fc      0x608 C:\tien\PROJEKTY\procesory\STM\T108_V100a\sys.o
                0x080047fc                RS485_Send
 .text.Input_Output_Test
                0x08004e04      0x104 C:\tien\PROJEKTY\procesory\STM\T108_V100a\sys.o
                0x08004e04                Input_Output_Test
 .text.Keyboard_Handling
                0x08004f08      0x410 C:\tien\PROJEKTY\procesory\STM\T108_V100a\sys.o
                0x08004f08                Keyboard_Handling
 .text.Analog_Measure
                0x08005318       0x80 C:\tien\PROJEKTY\procesory\STM\T108_V100a\sys.o
                0x08005318                Analog_Measure
 .text.Sys_sys  0x08005398       0xa4 C:\tien\PROJEKTY\procesory\STM\T108_V100a\sys.o
                0x08005398                Sys_sys
 .text.NMIException
                0x0800543c        0x4 C:\tien\PROJEKTY\procesory\STM\T108_V100a\stm32f10x_it.o
                0x0800543c                NMIException
 .text.HardFaultException
                0x08005440        0x4 C:\tien\PROJEKTY\procesory\STM\T108_V100a\stm32f10x_it.o
                0x08005440                HardFaultException
 .text.MemManageException
                0x08005444        0x4 C:\tien\PROJEKTY\procesory\STM\T108_V100a\stm32f10x_it.o
                0x08005444                MemManageException
 .text.BusFaultException
                0x08005448        0x4 C:\tien\PROJEKTY\procesory\STM\T108_V100a\stm32f10x_it.o
                0x08005448                BusFaultException
 .text.UsageFaultException
                0x0800544c        0x4 C:\tien\PROJEKTY\procesory\STM\T108_V100a\stm32f10x_it.o
                0x0800544c                UsageFaultException
 .text.DebugMonitor
                0x08005450        0x4 C:\tien\PROJEKTY\procesory\STM\T108_V100a\stm32f10x_it.o
                0x08005450                DebugMonitor
 .text.SVCHandler
                0x08005454        0x4 C:\tien\PROJEKTY\procesory\STM\T108_V100a\stm32f10x_it.o
                0x08005454                SVCHandler
 .text.PendSVC  0x08005458        0x4 C:\tien\PROJEKTY\procesory\STM\T108_V100a\stm32f10x_it.o
                0x08005458                PendSVC
 .text.SysTickHandler
                0x0800545c       0x8c C:\tien\PROJEKTY\procesory\STM\T108_V100a\stm32f10x_it.o
                0x0800545c                SysTickHandler
 .text.WWDG_IRQHandler
                0x080054e8        0x4 C:\tien\PROJEKTY\procesory\STM\T108_V100a\stm32f10x_it.o
                0x080054e8                WWDG_IRQHandler
 .text.PVD_IRQHandler
                0x080054ec        0x4 C:\tien\PROJEKTY\procesory\STM\T108_V100a\stm32f10x_it.o
                0x080054ec                PVD_IRQHandler
 .text.TAMPER_IRQHandler
                0x080054f0        0x4 C:\tien\PROJEKTY\procesory\STM\T108_V100a\stm32f10x_it.o
                0x080054f0                TAMPER_IRQHandler
 .text.FLASH_IRQHandler
                0x080054f4        0x4 C:\tien\PROJEKTY\procesory\STM\T108_V100a\stm32f10x_it.o
                0x080054f4                FLASH_IRQHandler
 .text.RCC_IRQHandler
                0x080054f8        0x4 C:\tien\PROJEKTY\procesory\STM\T108_V100a\stm32f10x_it.o
                0x080054f8                RCC_IRQHandler
 .text.EXTI0_IRQHandler
                0x080054fc        0x4 C:\tien\PROJEKTY\procesory\STM\T108_V100a\stm32f10x_it.o
                0x080054fc                EXTI0_IRQHandler
 .text.EXTI1_IRQHandler
                0x08005500        0x4 C:\tien\PROJEKTY\procesory\STM\T108_V100a\stm32f10x_it.o
                0x08005500                EXTI1_IRQHandler
 .text.EXTI2_IRQHandler
                0x08005504        0x4 C:\tien\PROJEKTY\procesory\STM\T108_V100a\stm32f10x_it.o
                0x08005504                EXTI2_IRQHandler
 .text.EXTI3_IRQHandler
                0x08005508        0x4 C:\tien\PROJEKTY\procesory\STM\T108_V100a\stm32f10x_it.o
                0x08005508                EXTI3_IRQHandler
 .text.EXTI4_IRQHandler
                0x0800550c        0x4 C:\tien\PROJEKTY\procesory\STM\T108_V100a\stm32f10x_it.o
                0x0800550c                EXTI4_IRQHandler
 .text.DMA1_Channel2_IRQHandler
                0x08005510        0x4 C:\tien\PROJEKTY\procesory\STM\T108_V100a\stm32f10x_it.o
                0x08005510                DMA1_Channel2_IRQHandler
 .text.DMA1_Channel3_IRQHandler
                0x08005514        0x4 C:\tien\PROJEKTY\procesory\STM\T108_V100a\stm32f10x_it.o
                0x08005514                DMA1_Channel3_IRQHandler
 .text.DMA1_Channel5_IRQHandler
                0x08005518        0x4 C:\tien\PROJEKTY\procesory\STM\T108_V100a\stm32f10x_it.o
                0x08005518                DMA1_Channel5_IRQHandler
 .text.DMA1_Channel6_IRQHandler
                0x0800551c        0x4 C:\tien\PROJEKTY\procesory\STM\T108_V100a\stm32f10x_it.o
                0x0800551c                DMA1_Channel6_IRQHandler
 .text.DMA1_Channel7_IRQHandler
                0x08005520        0x4 C:\tien\PROJEKTY\procesory\STM\T108_V100a\stm32f10x_it.o
                0x08005520                DMA1_Channel7_IRQHandler
 .text.ADC1_2_IRQHandler
                0x08005524        0x4 C:\tien\PROJEKTY\procesory\STM\T108_V100a\stm32f10x_it.o
                0x08005524                ADC1_2_IRQHandler
 .text.USB_HP_CAN_TX_IRQHandler
                0x08005528        0x4 C:\tien\PROJEKTY\procesory\STM\T108_V100a\stm32f10x_it.o
                0x08005528                USB_HP_CAN_TX_IRQHandler
 .text.CAN_RX1_IRQHandler
                0x0800552c        0x4 C:\tien\PROJEKTY\procesory\STM\T108_V100a\stm32f10x_it.o
                0x0800552c                CAN_RX1_IRQHandler
 .text.CAN_SCE_IRQHandler
                0x08005530        0x4 C:\tien\PROJEKTY\procesory\STM\T108_V100a\stm32f10x_it.o
                0x08005530                CAN_SCE_IRQHandler
 .text.EXTI9_5_IRQHandler
                0x08005534        0x4 C:\tien\PROJEKTY\procesory\STM\T108_V100a\stm32f10x_it.o
                0x08005534                EXTI9_5_IRQHandler
 .text.TIM1_BRK_IRQHandler
                0x08005538        0x4 C:\tien\PROJEKTY\procesory\STM\T108_V100a\stm32f10x_it.o
                0x08005538                TIM1_BRK_IRQHandler
 .text.TIM1_UP_IRQHandler
                0x0800553c        0x4 C:\tien\PROJEKTY\procesory\STM\T108_V100a\stm32f10x_it.o
                0x0800553c                TIM1_UP_IRQHandler
 .text.TIM1_TRG_COM_IRQHandler
                0x08005540        0x4 C:\tien\PROJEKTY\procesory\STM\T108_V100a\stm32f10x_it.o
                0x08005540                TIM1_TRG_COM_IRQHandler
 .text.TIM1_CC_IRQHandler
                0x08005544        0x4 C:\tien\PROJEKTY\procesory\STM\T108_V100a\stm32f10x_it.o
                0x08005544                TIM1_CC_IRQHandler
 .text.TIM2_IRQHandler
                0x08005548        0x4 C:\tien\PROJEKTY\procesory\STM\T108_V100a\stm32f10x_it.o
                0x08005548                TIM2_IRQHandler
 .text.TIM4_IRQHandler
                0x0800554c        0x4 C:\tien\PROJEKTY\procesory\STM\T108_V100a\stm32f10x_it.o
                0x0800554c                TIM4_IRQHandler
 .text.I2C1_EV_IRQHandler
                0x08005550        0x4 C:\tien\PROJEKTY\procesory\STM\T108_V100a\stm32f10x_it.o
                0x08005550                I2C1_EV_IRQHandler
 .text.I2C1_ER_IRQHandler
                0x08005554        0x4 C:\tien\PROJEKTY\procesory\STM\T108_V100a\stm32f10x_it.o
                0x08005554                I2C1_ER_IRQHandler
 .text.I2C2_EV_IRQHandler
                0x08005558        0x4 C:\tien\PROJEKTY\procesory\STM\T108_V100a\stm32f10x_it.o
                0x08005558                I2C2_EV_IRQHandler
 .text.I2C2_ER_IRQHandler
                0x0800555c        0x4 C:\tien\PROJEKTY\procesory\STM\T108_V100a\stm32f10x_it.o
                0x0800555c                I2C2_ER_IRQHandler
 .text.SPI1_IRQHandler
                0x08005560        0x4 C:\tien\PROJEKTY\procesory\STM\T108_V100a\stm32f10x_it.o
                0x08005560                SPI1_IRQHandler
 .text.SPI2_IRQHandler
                0x08005564        0x4 C:\tien\PROJEKTY\procesory\STM\T108_V100a\stm32f10x_it.o
                0x08005564                SPI2_IRQHandler
 .text.USART2_IRQHandler
                0x08005568        0x4 C:\tien\PROJEKTY\procesory\STM\T108_V100a\stm32f10x_it.o
                0x08005568                USART2_IRQHandler
 .text.USART3_IRQHandler
                0x0800556c        0x4 C:\tien\PROJEKTY\procesory\STM\T108_V100a\stm32f10x_it.o
                0x0800556c                USART3_IRQHandler
 .text.RTCAlarm_IRQHandler
                0x08005570        0x4 C:\tien\PROJEKTY\procesory\STM\T108_V100a\stm32f10x_it.o
                0x08005570                RTCAlarm_IRQHandler
 .text.USBWakeUp_IRQHandler
                0x08005574        0x4 C:\tien\PROJEKTY\procesory\STM\T108_V100a\stm32f10x_it.o
                0x08005574                USBWakeUp_IRQHandler
 .text.TIM8_BRK_IRQHandler
                0x08005578        0x4 C:\tien\PROJEKTY\procesory\STM\T108_V100a\stm32f10x_it.o
                0x08005578                TIM8_BRK_IRQHandler
 .text.TIM8_UP_IRQHandler
                0x0800557c        0x4 C:\tien\PROJEKTY\procesory\STM\T108_V100a\stm32f10x_it.o
                0x0800557c                TIM8_UP_IRQHandler
 .text.TIM8_TRG_COM_IRQHandler
                0x08005580        0x4 C:\tien\PROJEKTY\procesory\STM\T108_V100a\stm32f10x_it.o
                0x08005580                TIM8_TRG_COM_IRQHandler
 .text.TIM8_CC_IRQHandler
                0x08005584        0x4 C:\tien\PROJEKTY\procesory\STM\T108_V100a\stm32f10x_it.o
                0x08005584                TIM8_CC_IRQHandler
 .text.ADC3_IRQHandler
                0x08005588        0x4 C:\tien\PROJEKTY\procesory\STM\T108_V100a\stm32f10x_it.o
                0x08005588                ADC3_IRQHandler
 .text.FSMC_IRQHandler
                0x0800558c        0x4 C:\tien\PROJEKTY\procesory\STM\T108_V100a\stm32f10x_it.o
                0x0800558c                FSMC_IRQHandler
 .text.SDIO_IRQHandler
                0x08005590        0x4 C:\tien\PROJEKTY\procesory\STM\T108_V100a\stm32f10x_it.o
                0x08005590                SDIO_IRQHandler
 .text.TIM5_IRQHandler
                0x08005594        0x4 C:\tien\PROJEKTY\procesory\STM\T108_V100a\stm32f10x_it.o
                0x08005594                TIM5_IRQHandler
 .text.SPI3_IRQHandler
                0x08005598        0x4 C:\tien\PROJEKTY\procesory\STM\T108_V100a\stm32f10x_it.o
                0x08005598                SPI3_IRQHandler
 .text.UART4_IRQHandler
                0x0800559c        0x4 C:\tien\PROJEKTY\procesory\STM\T108_V100a\stm32f10x_it.o
                0x0800559c                UART4_IRQHandler
 .text.UART5_IRQHandler
                0x080055a0        0x4 C:\tien\PROJEKTY\procesory\STM\T108_V100a\stm32f10x_it.o
                0x080055a0                UART5_IRQHandler
 .text.TIM6_IRQHandler
                0x080055a4        0x4 C:\tien\PROJEKTY\procesory\STM\T108_V100a\stm32f10x_it.o
                0x080055a4                TIM6_IRQHandler
 .text.TIM7_IRQHandler
                0x080055a8        0x4 C:\tien\PROJEKTY\procesory\STM\T108_V100a\stm32f10x_it.o
                0x080055a8                TIM7_IRQHandler
 .text.DMA2_Channel1_IRQHandler
                0x080055ac        0x4 C:\tien\PROJEKTY\procesory\STM\T108_V100a\stm32f10x_it.o
                0x080055ac                DMA2_Channel1_IRQHandler
 .text.DMA2_Channel2_IRQHandler
                0x080055b0        0x4 C:\tien\PROJEKTY\procesory\STM\T108_V100a\stm32f10x_it.o
                0x080055b0                DMA2_Channel2_IRQHandler
 .text.DMA2_Channel3_IRQHandler
                0x080055b4        0x4 C:\tien\PROJEKTY\procesory\STM\T108_V100a\stm32f10x_it.o
                0x080055b4                DMA2_Channel3_IRQHandler
 .text.DMA2_Channel4_5_IRQHandler
                0x080055b8        0x4 C:\tien\PROJEKTY\procesory\STM\T108_V100a\stm32f10x_it.o
                0x080055b8                DMA2_Channel4_5_IRQHandler
 .text.EXTI15_10_IRQHandler
                0x080055bc       0x7c C:\tien\PROJEKTY\procesory\STM\T108_V100a\stm32f10x_it.o
                0x080055bc                EXTI15_10_IRQHandler
 .text.USART1_IRQHandler
                0x08005638       0x60 C:\tien\PROJEKTY\procesory\STM\T108_V100a\stm32f10x_it.o
                0x08005638                USART1_IRQHandler
 .text.TIM3_IRQHandler
                0x08005698       0x74 C:\tien\PROJEKTY\procesory\STM\T108_V100a\stm32f10x_it.o
                0x08005698                TIM3_IRQHandler
 .text.USB_LP_CAN_RX0_IRQHandler
                0x0800570c        0x8 C:\tien\PROJEKTY\procesory\STM\T108_V100a\stm32f10x_it.o
                0x0800570c                USB_LP_CAN_RX0_IRQHandler
 .text.DMA1_Channel4_IRQHandler
                0x08005714       0x48 C:\tien\PROJEKTY\procesory\STM\T108_V100a\stm32f10x_it.o
                0x08005714                DMA1_Channel4_IRQHandler
 .text.DMA1_Channel1_IRQHandler
                0x0800575c       0x1c C:\tien\PROJEKTY\procesory\STM\T108_V100a\stm32f10x_it.o
                0x0800575c                DMA1_Channel1_IRQHandler
 .text.RTC_IRQHandler
                0x08005778       0x2c C:\tien\PROJEKTY\procesory\STM\T108_V100a\stm32f10x_it.o
                0x08005778                RTC_IRQHandler
 .text.IsLeapYear
                0x080057a4       0x34 C:\tien\PROJEKTY\procesory\STM\T108_V100a\RTC.o
                0x080057a4                IsLeapYear
 .text.Update_Date
                0x080057d8       0x94 C:\tien\PROJEKTY\procesory\STM\T108_V100a\RTC.o
                0x080057d8                Update_Date
 .text.Date_2_Days
                0x0800586c       0x78 C:\tien\PROJEKTY\procesory\STM\T108_V100a\RTC.o
                0x0800586c                Date_2_Days
 .text.RTC_WaitForLastTaskTimeout
                0x080058e4       0x3c C:\tien\PROJEKTY\procesory\STM\T108_V100a\RTC.o
                0x080058e4                RTC_WaitForLastTaskTimeout
 .text.RTC_WaitForSynchroTimeout
                0x08005920       0x4c C:\tien\PROJEKTY\procesory\STM\T108_V100a\RTC.o
                0x08005920                RTC_WaitForSynchroTimeout
 .text.Write_Date
                0x0800596c       0x28 C:\tien\PROJEKTY\procesory\STM\T108_V100a\RTC.o
                0x0800596c                Write_Date
 .text.Update_Time
                0x08005994       0x24 C:\tien\PROJEKTY\procesory\STM\T108_V100a\RTC.o
                0x08005994                Update_Time
 .text.Read_Time
                0x080059b8       0x40 C:\tien\PROJEKTY\procesory\STM\T108_V100a\RTC.o
                0x080059b8                Read_Time
 .text.Read_Date
                0x080059f8       0x2c C:\tien\PROJEKTY\procesory\STM\T108_V100a\RTC.o
                0x080059f8                Read_Date
 .text.RTC_Handler
                0x08005a24       0x68 C:\tien\PROJEKTY\procesory\STM\T108_V100a\RTC.o
                0x08005a24                RTC_Handler
 .text.RTC_Init
                0x08005a8c       0xf8 C:\tien\PROJEKTY\procesory\STM\T108_V100a\RTC.o
                0x08005a8c                RTC_Init
 .text.main     0x08005b84       0x34 C:\tien\PROJEKTY\procesory\STM\T108_V100a\main.o
                0x08005b84                main
 .text.Lcd_Delay
                0x08005bb8       0x28 C:\tien\PROJEKTY\procesory\STM\T108_V100a\lcd.o
                0x08005bb8                Lcd_Delay
 .text.Lcd_Set_Address
                0x08005be0       0x18 C:\tien\PROJEKTY\procesory\STM\T108_V100a\lcd.o
                0x08005be0                Lcd_Set_Address
 .text.Lcd_Write_Buffer
                0x08005bf8       0x44 C:\tien\PROJEKTY\procesory\STM\T108_V100a\lcd.o
                0x08005bf8                Lcd_Write_Buffer
 .text.Lcd_Clear_Buffer
                0x08005c3c       0x24 C:\tien\PROJEKTY\procesory\STM\T108_V100a\lcd.o
                0x08005c3c                Lcd_Clear_Buffer
 .text.Lcd_Cmd  0x08005c60      0x104 C:\tien\PROJEKTY\procesory\STM\T108_V100a\lcd.o
                0x08005c60                Lcd_Cmd
 .text.Lcd_Data
                0x08005d64      0x100 C:\tien\PROJEKTY\procesory\STM\T108_V100a\lcd.o
                0x08005d64                Lcd_Data
 .text.Lcd_Load_Buffer
                0x08005e64       0x70 C:\tien\PROJEKTY\procesory\STM\T108_V100a\lcd.o
                0x08005e64                Lcd_Load_Buffer
 .text.Lcd_Write_Text
                0x08005ed4       0x18 C:\tien\PROJEKTY\procesory\STM\T108_V100a\lcd.o
                0x08005ed4                Lcd_Write_Text
 .text.Lcd_Init
                0x08005eec       0x38 C:\tien\PROJEKTY\procesory\STM\T108_V100a\lcd.o
                0x08005eec                Lcd_Init
 .text.Registers_Init
                0x08005f24       0x2c C:\tien\PROJEKTY\procesory\STM\T108_V100a\hardware.o
                0x08005f24                Registers_Init
 .text.Enter_LowPowerMode
                0x08005f50        0xc C:\tien\PROJEKTY\procesory\STM\T108_V100a\hardware.o
                0x08005f50                Enter_LowPowerMode
 .text.Leave_LowPowerMode
                0x08005f5c       0x1c C:\tien\PROJEKTY\procesory\STM\T108_V100a\hardware.o
                0x08005f5c                Leave_LowPowerMode
 .text.Get_SerialNum
                0x08005f78       0x54 C:\tien\PROJEKTY\procesory\STM\T108_V100a\hardware.o
                0x08005f78                Get_SerialNum
 .text.UART_Send
                0x08005fcc       0x84 C:\tien\PROJEKTY\procesory\STM\T108_V100a\hardware.o
                0x08005fcc                UART_Send
 .text.DMA_Configuration
                0x08006050       0x5c C:\tien\PROJEKTY\procesory\STM\T108_V100a\hardware.o
                0x08006050                DMA_Configuration
 .text.Set_USBClock
                0x080060ac       0x14 C:\tien\PROJEKTY\procesory\STM\T108_V100a\hardware.o
                0x080060ac                Set_USBClock
 .text.EXTI_Configuration
                0x080060c0       0x30 C:\tien\PROJEKTY\procesory\STM\T108_V100a\hardware.o
                0x080060c0                EXTI_Configuration
 .text.FLASH_Init
                0x080060f0       0x10 C:\tien\PROJEKTY\procesory\STM\T108_V100a\hardware.o
                0x080060f0                FLASH_Init
 .text.WWDT_Handler
                0x08006100       0x10 C:\tien\PROJEKTY\procesory\STM\T108_V100a\hardware.o
                0x08006100                WWDT_Handler
 .text.WWDT_Init
                0x08006110       0x38 C:\tien\PROJEKTY\procesory\STM\T108_V100a\hardware.o
                0x08006110                WWDT_Init
 .text.USART_Configuration
                0x08006148       0x44 C:\tien\PROJEKTY\procesory\STM\T108_V100a\hardware.o
                0x08006148                USART_Configuration
 .text.Adc_Configuration
                0x0800618c       0xc4 C:\tien\PROJEKTY\procesory\STM\T108_V100a\hardware.o
                0x0800618c                Adc_Configuration
 .text.SPI_Configuration
                0x08006250       0x44 C:\tien\PROJEKTY\procesory\STM\T108_V100a\hardware.o
                0x08006250                SPI_Configuration
 .text.Tim_Coufiguration
                0x08006294       0xd8 C:\tien\PROJEKTY\procesory\STM\T108_V100a\hardware.o
                0x08006294                Tim_Coufiguration
 .text.NVIC_Configuration
                0x0800636c       0x88 C:\tien\PROJEKTY\procesory\STM\T108_V100a\hardware.o
                0x0800636c                NVIC_Configuration
 .text.GPIO_Configuration
                0x080063f4      0x1b0 C:\tien\PROJEKTY\procesory\STM\T108_V100a\hardware.o
                0x080063f4                GPIO_Configuration
 .text.RCC_Configuration
                0x080065a4       0xac C:\tien\PROJEKTY\procesory\STM\T108_V100a\hardware.o
                0x080065a4                RCC_Configuration
 .text.Hardware_Init
                0x08006650       0x48 C:\tien\PROJEKTY\procesory\STM\T108_V100a\hardware.o
                0x08006650                Hardware_Init
 .text.Bin2String
                0x08006698      0x104 C:\tien\PROJEKTY\procesory\STM\T108_V100a\gui.o
                0x08006698                Bin2String
 .text.Menu_Keyboard
                0x0800679c       0xa8 C:\tien\PROJEKTY\procesory\STM\T108_V100a\gui.o
                0x0800679c                Menu_Keyboard
 .text.Keyboard_Edit_Variable
                0x08006844       0xe8 C:\tien\PROJEKTY\procesory\STM\T108_V100a\gui.o
 .text.First_Editable_Variable
                0x0800692c       0x34 C:\tien\PROJEKTY\procesory\STM\T108_V100a\gui.o
 .text.Next_Editable_Variable
                0x08006960       0x28 C:\tien\PROJEKTY\procesory\STM\T108_V100a\gui.o
 .text.Keyboard_Standby
                0x08006988       0x34 C:\tien\PROJEKTY\procesory\STM\T108_V100a\gui.o
 .text.Keyboard_Enable
                0x080069bc       0x74 C:\tien\PROJEKTY\procesory\STM\T108_V100a\gui.o
 .text.Keyboard_Menu
                0x08006a30      0x150 C:\tien\PROJEKTY\procesory\STM\T108_V100a\gui.o
 .text.Keyboard_Submenu1
                0x08006b80      0x104 C:\tien\PROJEKTY\procesory\STM\T108_V100a\gui.o
 .text.Keyboard_Submenu3
                0x08006c84       0xfc C:\tien\PROJEKTY\procesory\STM\T108_V100a\gui.o
 .text.Keyboard_Licencja
                0x08006d80       0xa8 C:\tien\PROJEKTY\procesory\STM\T108_V100a\gui.o
 .text.Keyboard_Czujniki_Menu
                0x08006e28       0xf8 C:\tien\PROJEKTY\procesory\STM\T108_V100a\gui.o
 .text.Keyboard_Prog_Testowy
                0x08006f20       0xc4 C:\tien\PROJEKTY\procesory\STM\T108_V100a\gui.o
 .text.Keyboard_Ster_Blokowany
                0x08006fe4       0x48 C:\tien\PROJEKTY\procesory\STM\T108_V100a\gui.o
 .text.Keyboard_Odczyt_Serwisowy
                0x0800702c       0x74 C:\tien\PROJEKTY\procesory\STM\T108_V100a\gui.o
 .text.Keyboard_Kontakt
                0x080070a0       0x54 C:\tien\PROJEKTY\procesory\STM\T108_V100a\gui.o
 .text.Keyboard_Info
                0x080070f4       0x54 C:\tien\PROJEKTY\procesory\STM\T108_V100a\gui.o
 .text.Keyboard_Alert_Error
                0x08007148       0x40 C:\tien\PROJEKTY\procesory\STM\T108_V100a\gui.o
 .text.Lock_Init
                0x08007188       0x2c C:\tien\PROJEKTY\procesory\STM\T108_V100a\gui.o
                0x08007188                Lock_Init
 .text.Keyboard_Test_WeWy
                0x080071b4       0x68 C:\tien\PROJEKTY\procesory\STM\T108_V100a\gui.o
 .text.Keyboard_Submenu4
                0x0800721c      0x12c C:\tien\PROJEKTY\procesory\STM\T108_V100a\gui.o
 .text.Keyboard_Data
                0x08007348       0xb8 C:\tien\PROJEKTY\procesory\STM\T108_V100a\gui.o
 .text.Update_Counters
                0x08007400       0x1c C:\tien\PROJEKTY\procesory\STM\T108_V100a\gui.o
                0x08007400                Update_Counters
 .text.Write_Settings
                0x0800741c       0xa0 C:\tien\PROJEKTY\procesory\STM\T108_V100a\gui.o
                0x0800741c                Write_Settings
 .text.Keyboard_Odblokuj
                0x080074bc      0x12c C:\tien\PROJEKTY\procesory\STM\T108_V100a\gui.o
 .text.Keyboard_Ust_Serwisowe
                0x080075e8       0xe8 C:\tien\PROJEKTY\procesory\STM\T108_V100a\gui.o
 .text.Keyboard_Licznik_Pracy
                0x080076d0       0xa8 C:\tien\PROJEKTY\procesory\STM\T108_V100a\gui.o
 .text.Keyboard_RTC
                0x08007778       0xa0 C:\tien\PROJEKTY\procesory\STM\T108_V100a\gui.o
 .text.Keyboard_Zer_Licznikow
                0x08007818       0x74 C:\tien\PROJEKTY\procesory\STM\T108_V100a\gui.o
 .text.Keyboard_Ust_Blokady
                0x0800788c       0xe4 C:\tien\PROJEKTY\procesory\STM\T108_V100a\gui.o
 .text.Keyboard_Zmiana_Hasel
                0x08007970       0xb0 C:\tien\PROJEKTY\procesory\STM\T108_V100a\gui.o
 .text.Keyboard_Jezyk
                0x08007a20       0xa0 C:\tien\PROJEKTY\procesory\STM\T108_V100a\gui.o
 .text.Keyboard_Czujniki2
                0x08007ac0       0xe8 C:\tien\PROJEKTY\procesory\STM\T108_V100a\gui.o
 .text.Keyboard_Czujniki1
                0x08007ba8      0x120 C:\tien\PROJEKTY\procesory\STM\T108_V100a\gui.o
 .text.Keyboard_Ustaw_Wyjsc_Przek
                0x08007cc8       0xc4 C:\tien\PROJEKTY\procesory\STM\T108_V100a\gui.o
 .text.Keyboard_Ustaw_Wejsc_Ster
                0x08007d8c       0xc4 C:\tien\PROJEKTY\procesory\STM\T108_V100a\gui.o
 .text.Keyboard_Ustaw_Wejsc
                0x08007e50       0xc4 C:\tien\PROJEKTY\procesory\STM\T108_V100a\gui.o
 .text.Keyboard_Listwy
                0x08007f14       0xc4 C:\tien\PROJEKTY\procesory\STM\T108_V100a\gui.o
 .text.Keyboard_Prad
                0x08007fd8       0xc4 C:\tien\PROJEKTY\procesory\STM\T108_V100a\gui.o
 .text.Keyboard_Brama_Motor
                0x0800809c       0xe8 C:\tien\PROJEKTY\procesory\STM\T108_V100a\gui.o
 .text.Keyboard_Haslo
                0x08008184      0x110 C:\tien\PROJEKTY\procesory\STM\T108_V100a\gui.o
 .text.Keyboard_Fabryczne
                0x08008294      0x108 C:\tien\PROJEKTY\procesory\STM\T108_V100a\gui.o
 .text.Keyboard_Funkcje1
                0x0800839c       0x68 C:\tien\PROJEKTY\procesory\STM\T108_V100a\gui.o
 .text.Keyboard_Submenu2
                0x08008404       0xe0 C:\tien\PROJEKTY\procesory\STM\T108_V100a\gui.o
 .text.Lock_Handling
                0x080084e4       0x40 C:\tien\PROJEKTY\procesory\STM\T108_V100a\gui.o
                0x080084e4                Lock_Handling
 .text.Update_Lock_Counter
                0x08008524       0x20 C:\tien\PROJEKTY\procesory\STM\T108_V100a\gui.o
                0x08008524                Update_Lock_Counter
 .text.Read_Settings
                0x08008544      0x134 C:\tien\PROJEKTY\procesory\STM\T108_V100a\gui.o
                0x08008544                Read_Settings
 .text.Gui_Init
                0x08008678       0x24 C:\tien\PROJEKTY\procesory\STM\T108_V100a\gui.o
                0x08008678                Gui_Init
 .text.Display_On_Screen
                0x0800869c      0x324 C:\tien\PROJEKTY\procesory\STM\T108_V100a\gui.o
                0x0800869c                Display_On_Screen
 .text.Gui      0x080089c0      0x28c C:\tien\PROJEKTY\procesory\STM\T108_V100a\gui.o
                0x080089c0                Gui
 .text.Standard_GetConfiguration
                0x08008c4c       0x28 C:\tien\PROJEKTY\procesory\STM\T108_V100a\usb_core.o
                0x08008c4c                Standard_GetConfiguration
 .text.Standard_SetConfiguration
                0x08008c74       0x38 C:\tien\PROJEKTY\procesory\STM\T108_V100a\usb_core.o
                0x08008c74                Standard_SetConfiguration
 .text.Standard_GetInterface
                0x08008cac       0x28 C:\tien\PROJEKTY\procesory\STM\T108_V100a\usb_core.o
                0x08008cac                Standard_GetInterface
 .text.Standard_SetInterface
                0x08008cd4       0x48 C:\tien\PROJEKTY\procesory\STM\T108_V100a\usb_core.o
                0x08008cd4                Standard_SetInterface
 .text.Standard_GetStatus
                0x08008d1c       0xac C:\tien\PROJEKTY\procesory\STM\T108_V100a\usb_core.o
                0x08008d1c                Standard_GetStatus
 .text.Standard_SetEndPointFeature
                0x08008dc8       0x9c C:\tien\PROJEKTY\procesory\STM\T108_V100a\usb_core.o
                0x08008dc8                Standard_SetEndPointFeature
 .text.Standard_SetDeviceFeature
                0x08008e64       0x24 C:\tien\PROJEKTY\procesory\STM\T108_V100a\usb_core.o
                0x08008e64                Standard_SetDeviceFeature
 .text.Standard_GetDescriptorData
                0x08008e88       0x20 C:\tien\PROJEKTY\procesory\STM\T108_V100a\usb_core.o
                0x08008e88                Standard_GetDescriptorData
 .text.SetDeviceAddress
                0x08008ea8       0x44 C:\tien\PROJEKTY\procesory\STM\T108_V100a\usb_core.o
                0x08008ea8                SetDeviceAddress
 .text.NOP_Process
                0x08008eec        0x4 C:\tien\PROJEKTY\procesory\STM\T108_V100a\usb_core.o
                0x08008eec                NOP_Process
 .text.Post0_Process
                0x08008ef0       0x44 C:\tien\PROJEKTY\procesory\STM\T108_V100a\usb_core.o
                0x08008ef0                Post0_Process
 .text.Out0_Process
                0x08008f34       0xd0 C:\tien\PROJEKTY\procesory\STM\T108_V100a\usb_core.o
                0x08008f34                Out0_Process
 .text.DataStageIn
                0x08009004       0xb0 C:\tien\PROJEKTY\procesory\STM\T108_V100a\usb_core.o
 .text.In0_Process
                0x080090b4       0x60 C:\tien\PROJEKTY\procesory\STM\T108_V100a\usb_core.o
                0x080090b4                In0_Process
 .text.Standard_ClearFeature
                0x08009114       0xec C:\tien\PROJEKTY\procesory\STM\T108_V100a\usb_core.o
                0x08009114                Standard_ClearFeature
 .text.Setup0_Process
                0x08009200      0x304 C:\tien\PROJEKTY\procesory\STM\T108_V100a\usb_core.o
                0x08009200                Setup0_Process
 .text.USB_Init
                0x08009504       0x38 C:\tien\PROJEKTY\procesory\STM\T108_V100a\usb_init.o
                0x08009504                USB_Init
 .text.CTR_LP   0x0800953c      0x17c C:\tien\PROJEKTY\procesory\STM\T108_V100a\usb_int.o
                0x0800953c                CTR_LP
 .text.UserToPMABufferCopy
                0x080096b8       0x34 C:\tien\PROJEKTY\procesory\STM\T108_V100a\usb_mem.o
                0x080096b8                UserToPMABufferCopy
 .text.PMAToUserBufferCopy
                0x080096ec       0x24 C:\tien\PROJEKTY\procesory\STM\T108_V100a\usb_mem.o
                0x080096ec                PMAToUserBufferCopy
 .text.SetBTABLE
                0x08009710       0x14 C:\tien\PROJEKTY\procesory\STM\T108_V100a\usb_regs.o
                0x08009710                SetBTABLE
 .text.SetEPType
                0x08009724       0x1c C:\tien\PROJEKTY\procesory\STM\T108_V100a\usb_regs.o
                0x08009724                SetEPType
 .text.SetEPTxStatus
                0x08009740       0x2c C:\tien\PROJEKTY\procesory\STM\T108_V100a\usb_regs.o
                0x08009740                SetEPTxStatus
 .text.SetEPRxStatus
                0x0800976c       0x2c C:\tien\PROJEKTY\procesory\STM\T108_V100a\usb_regs.o
                0x0800976c                SetEPRxStatus
 .text.SetEPTxValid
                0x08009798       0x1c C:\tien\PROJEKTY\procesory\STM\T108_V100a\usb_regs.o
                0x08009798                SetEPTxValid
 .text.SetEPRxValid
                0x080097b4       0x1c C:\tien\PROJEKTY\procesory\STM\T108_V100a\usb_regs.o
                0x080097b4                SetEPRxValid
 .text.Clear_Status_Out
                0x080097d0       0x18 C:\tien\PROJEKTY\procesory\STM\T108_V100a\usb_regs.o
                0x080097d0                Clear_Status_Out
 .text.ClearDTOG_RX
                0x080097e8       0x24 C:\tien\PROJEKTY\procesory\STM\T108_V100a\usb_regs.o
                0x080097e8                ClearDTOG_RX
 .text.ClearDTOG_TX
                0x0800980c       0x24 C:\tien\PROJEKTY\procesory\STM\T108_V100a\usb_regs.o
                0x0800980c                ClearDTOG_TX
 .text.SetEPTxAddr
                0x08009830       0x20 C:\tien\PROJEKTY\procesory\STM\T108_V100a\usb_regs.o
                0x08009830                SetEPTxAddr
 .text.SetEPRxAddr
                0x08009850       0x20 C:\tien\PROJEKTY\procesory\STM\T108_V100a\usb_regs.o
                0x08009850                SetEPRxAddr
 .text.GetEPTxAddr
                0x08009870       0x1c C:\tien\PROJEKTY\procesory\STM\T108_V100a\usb_regs.o
                0x08009870                GetEPTxAddr
 .text.GetEPRxAddr
                0x0800988c       0x1c C:\tien\PROJEKTY\procesory\STM\T108_V100a\usb_regs.o
                0x0800988c                GetEPRxAddr
 .text.SetEPTxCount
                0x080098a8       0x1c C:\tien\PROJEKTY\procesory\STM\T108_V100a\usb_regs.o
                0x080098a8                SetEPTxCount
 .text.SetEPRxCount
                0x080098c4       0x40 C:\tien\PROJEKTY\procesory\STM\T108_V100a\usb_regs.o
                0x080098c4                SetEPRxCount
 .text.ByteSwap
                0x08009904        0xc C:\tien\PROJEKTY\procesory\STM\T108_V100a\usb_regs.o
                0x08009904                ByteSwap
 .text.USB_Istr
                0x08009910       0xf4 C:\tien\PROJEKTY\procesory\STM\T108_V100a\usb_istr.o
                0x08009910                USB_Istr
 .text.CustomHID_SetDeviceAddress
                0x08009a04        0xc C:\tien\PROJEKTY\procesory\STM\T108_V100a\usb_prop.o
                0x08009a04                CustomHID_SetDeviceAddress
 .text.CustomHID_Status_In
                0x08009a10        0x4 C:\tien\PROJEKTY\procesory\STM\T108_V100a\usb_prop.o
                0x08009a10                CustomHID_Status_In
 .text.CustomHID_Status_Out
                0x08009a14        0x4 C:\tien\PROJEKTY\procesory\STM\T108_V100a\usb_prop.o
                0x08009a14                CustomHID_Status_Out
 .text.CustomHID_Data_Setup
                0x08009a18       0x68 C:\tien\PROJEKTY\procesory\STM\T108_V100a\usb_prop.o
                0x08009a18                CustomHID_Data_Setup
 .text.CustomHID_Get_Interface_Setting
                0x08009a80        0x8 C:\tien\PROJEKTY\procesory\STM\T108_V100a\usb_prop.o
                0x08009a80                CustomHID_Get_Interface_Setting
 .text.CustomHID_SetProtocol
                0x08009a88       0x18 C:\tien\PROJEKTY\procesory\STM\T108_V100a\usb_prop.o
                0x08009a88                CustomHID_SetProtocol
 .text.CustomHID_NoData_Setup
                0x08009aa0       0x24 C:\tien\PROJEKTY\procesory\STM\T108_V100a\usb_prop.o
                0x08009aa0                CustomHID_NoData_Setup
 .text.CustomHID_GetProtocolValue
                0x08009ac4       0x1c C:\tien\PROJEKTY\procesory\STM\T108_V100a\usb_prop.o
                0x08009ac4                CustomHID_GetProtocolValue
 .text.CustomHID_GetHIDDescriptor
                0x08009ae0       0x10 C:\tien\PROJEKTY\procesory\STM\T108_V100a\usb_prop.o
                0x08009ae0                CustomHID_GetHIDDescriptor
 .text.CustomHID_GetReportDescriptor
                0x08009af0       0x10 C:\tien\PROJEKTY\procesory\STM\T108_V100a\usb_prop.o
                0x08009af0                CustomHID_GetReportDescriptor
 .text.CustomHID_GetStringDescriptor
                0x08009b00       0x24 C:\tien\PROJEKTY\procesory\STM\T108_V100a\usb_prop.o
                0x08009b00                CustomHID_GetStringDescriptor
 .text.CustomHID_GetConfigDescriptor
                0x08009b24       0x10 C:\tien\PROJEKTY\procesory\STM\T108_V100a\usb_prop.o
                0x08009b24                CustomHID_GetConfigDescriptor
 .text.CustomHID_GetDeviceDescriptor
                0x08009b34       0x10 C:\tien\PROJEKTY\procesory\STM\T108_V100a\usb_prop.o
                0x08009b34                CustomHID_GetDeviceDescriptor
 .text.CustomHID_SetConfiguration
                0x08009b44       0x28 C:\tien\PROJEKTY\procesory\STM\T108_V100a\usb_prop.o
                0x08009b44                CustomHID_SetConfiguration
 .text.CustomHID_Reset
                0x08009b6c       0xb0 C:\tien\PROJEKTY\procesory\STM\T108_V100a\usb_prop.o
                0x08009b6c                CustomHID_Reset
 .text.CustomHID_init
                0x08009c1c       0x3c C:\tien\PROJEKTY\procesory\STM\T108_V100a\usb_prop.o
                0x08009c1c                CustomHID_init
 .text.PowerOn  0x08009c58       0x28 C:\tien\PROJEKTY\procesory\STM\T108_V100a\usb_pwr.o
                0x08009c58                PowerOn
 .text.Resume_Init
                0x08009c80       0x20 C:\tien\PROJEKTY\procesory\STM\T108_V100a\usb_pwr.o
                0x08009c80                Resume_Init
 .text.Resume   0x08009ca0       0x8c C:\tien\PROJEKTY\procesory\STM\T108_V100a\usb_pwr.o
                0x08009ca0                Resume
 .text.Suspend  0x08009d2c       0x24 C:\tien\PROJEKTY\procesory\STM\T108_V100a\usb_pwr.o
                0x08009d2c                Suspend
 .text.EP1_OUT_Callback
                0x08009d50      0x340 C:\tien\PROJEKTY\procesory\STM\T108_V100a\usb_endp.o
                0x08009d50                EP1_OUT_Callback
 .text._write   0x0800a090       0x20 C:\Program Files (x86)\Raisonance\Ride\Lib\ARM\STM32x_io_putchar_thumb.a(syscalls.o)
                0x0800a090                _write
 .text.__io_init
                0x0800a0b0       0xac C:\Program Files (x86)\Raisonance\Ride\Lib\ARM\STM32x_io_putchar_thumb.a(STM32F10X_IO_putchar.o)
                0x0800a0b0                __io_init
 .text.__io_putchar
                0x0800a15c       0x44 C:\Program Files (x86)\Raisonance\Ride\Lib\ARM\STM32x_io_putchar_thumb.a(STM32F10X_IO_putchar.o)
                0x0800a15c                __io_putchar
 .text.DMA_DeInit
                0x0800a1a0      0x18c C:\Program Files (x86)\Raisonance\Ride\Lib\ARM\STM32F10x_thumb.lib(stm32f10x_dma.o)
                0x0800a1a0                DMA_DeInit
 .text.DMA_Init
                0x0800a32c       0x40 C:\Program Files (x86)\Raisonance\Ride\Lib\ARM\STM32F10x_thumb.lib(stm32f10x_dma.o)
                0x0800a32c                DMA_Init
 .text.DMA_Cmd  0x0800a36c       0x18 C:\Program Files (x86)\Raisonance\Ride\Lib\ARM\STM32F10x_thumb.lib(stm32f10x_dma.o)
                0x0800a36c                DMA_Cmd
 .text.DMA_ITConfig
                0x0800a384       0x18 C:\Program Files (x86)\Raisonance\Ride\Lib\ARM\STM32F10x_thumb.lib(stm32f10x_dma.o)
                0x0800a384                DMA_ITConfig
 .text.DMA_GetITStatus
                0x0800a39c       0x28 C:\Program Files (x86)\Raisonance\Ride\Lib\ARM\STM32F10x_thumb.lib(stm32f10x_dma.o)
                0x0800a39c                DMA_GetITStatus
 .text.DMA_ClearITPendingBit
                0x0800a3c4       0x20 C:\Program Files (x86)\Raisonance\Ride\Lib\ARM\STM32F10x_thumb.lib(stm32f10x_dma.o)
                0x0800a3c4                DMA_ClearITPendingBit
 .text.EXTI_Init
                0x0800a3e4       0x80 C:\Program Files (x86)\Raisonance\Ride\Lib\ARM\STM32F10x_thumb.lib(stm32f10x_exti.o)
                0x0800a3e4                EXTI_Init
 .text.EXTI_GenerateSWInterrupt
                0x0800a464       0x10 C:\Program Files (x86)\Raisonance\Ride\Lib\ARM\STM32F10x_thumb.lib(stm32f10x_exti.o)
                0x0800a464                EXTI_GenerateSWInterrupt
 .text.EXTI_GetITStatus
                0x0800a474       0x20 C:\Program Files (x86)\Raisonance\Ride\Lib\ARM\STM32F10x_thumb.lib(stm32f10x_exti.o)
                0x0800a474                EXTI_GetITStatus
 .text.EXTI_ClearITPendingBit
                0x0800a494        0xc C:\Program Files (x86)\Raisonance\Ride\Lib\ARM\STM32F10x_thumb.lib(stm32f10x_exti.o)
                0x0800a494                EXTI_ClearITPendingBit
 .text.GPIO_Init
                0x0800a4a0       0xd8 C:\Program Files (x86)\Raisonance\Ride\Lib\ARM\STM32F10x_thumb.lib(stm32f10x_gpio.o)
                0x0800a4a0                GPIO_Init
 .text.GPIO_ReadInputDataBit
                0x0800a578        0xc C:\Program Files (x86)\Raisonance\Ride\Lib\ARM\STM32F10x_thumb.lib(stm32f10x_gpio.o)
                0x0800a578                GPIO_ReadInputDataBit
 .text.GPIO_SetBits
                0x0800a584        0x4 C:\Program Files (x86)\Raisonance\Ride\Lib\ARM\STM32F10x_thumb.lib(stm32f10x_gpio.o)
                0x0800a584                GPIO_SetBits
 .text.GPIO_ResetBits
                0x0800a588        0x4 C:\Program Files (x86)\Raisonance\Ride\Lib\ARM\STM32F10x_thumb.lib(stm32f10x_gpio.o)
                0x0800a588                GPIO_ResetBits
 .text.GPIO_PinRemapConfig
                0x0800a58c       0x74 C:\Program Files (x86)\Raisonance\Ride\Lib\ARM\STM32F10x_thumb.lib(stm32f10x_gpio.o)
                0x0800a58c                GPIO_PinRemapConfig
 .text.GPIO_EXTILineConfig
                0x0800a600       0x34 C:\Program Files (x86)\Raisonance\Ride\Lib\ARM\STM32F10x_thumb.lib(stm32f10x_gpio.o)
                0x0800a600                GPIO_EXTILineConfig
 .text.IWDG_WriteAccessCmd
                0x0800a634        0xc C:\Program Files (x86)\Raisonance\Ride\Lib\ARM\STM32F10x_thumb.lib(stm32f10x_iwdg.o)
                0x0800a634                IWDG_WriteAccessCmd
 .text.IWDG_SetPrescaler
                0x0800a640        0xc C:\Program Files (x86)\Raisonance\Ride\Lib\ARM\STM32F10x_thumb.lib(stm32f10x_iwdg.o)
                0x0800a640                IWDG_SetPrescaler
 .text.IWDG_SetReload
                0x0800a64c        0xc C:\Program Files (x86)\Raisonance\Ride\Lib\ARM\STM32F10x_thumb.lib(stm32f10x_iwdg.o)
                0x0800a64c                IWDG_SetReload
 .text.IWDG_ReloadCounter
                0x0800a658       0x10 C:\Program Files (x86)\Raisonance\Ride\Lib\ARM\STM32F10x_thumb.lib(stm32f10x_iwdg.o)
                0x0800a658                IWDG_ReloadCounter
 .text.IWDG_Enable
                0x0800a668       0x10 C:\Program Files (x86)\Raisonance\Ride\Lib\ARM\STM32F10x_thumb.lib(stm32f10x_iwdg.o)
                0x0800a668                IWDG_Enable
 .text.NVIC_Init
                0x0800a678       0x8c C:\Program Files (x86)\Raisonance\Ride\Lib\ARM\STM32F10x_thumb.lib(stm32f10x_nvic.o)
                0x0800a678                NVIC_Init
 .text.NVIC_SetVectorTable
                0x0800a704       0x18 C:\Program Files (x86)\Raisonance\Ride\Lib\ARM\STM32F10x_thumb.lib(stm32f10x_nvic.o)
                0x0800a704                NVIC_SetVectorTable
 .text.PWR_BackupAccessCmd
                0x0800a71c        0xc C:\Program Files (x86)\Raisonance\Ride\Lib\ARM\STM32F10x_thumb.lib(stm32f10x_pwr.o)
                0x0800a71c                PWR_BackupAccessCmd
 .text.RCC_DeInit
                0x0800a728       0x44 C:\Program Files (x86)\Raisonance\Ride\Lib\ARM\STM32F10x_thumb.lib(stm32f10x_rcc.o)
                0x0800a728                RCC_DeInit
 .text.RCC_HSEConfig
                0x0800a76c       0x38 C:\Program Files (x86)\Raisonance\Ride\Lib\ARM\STM32F10x_thumb.lib(stm32f10x_rcc.o)
                0x0800a76c                RCC_HSEConfig
 .text.RCC_WaitForHSEStartUp
                0x0800a7a4       0x40 C:\Program Files (x86)\Raisonance\Ride\Lib\ARM\STM32F10x_thumb.lib(stm32f10x_rcc.o)
                0x0800a7a4                RCC_WaitForHSEStartUp
 .text.RCC_PLLConfig
                0x0800a7e4       0x18 C:\Program Files (x86)\Raisonance\Ride\Lib\ARM\STM32F10x_thumb.lib(stm32f10x_rcc.o)
                0x0800a7e4                RCC_PLLConfig
 .text.RCC_PLLCmd
                0x0800a7fc        0xc C:\Program Files (x86)\Raisonance\Ride\Lib\ARM\STM32F10x_thumb.lib(stm32f10x_rcc.o)
                0x0800a7fc                RCC_PLLCmd
 .text.RCC_SYSCLKConfig
                0x0800a808       0x14 C:\Program Files (x86)\Raisonance\Ride\Lib\ARM\STM32F10x_thumb.lib(stm32f10x_rcc.o)
                0x0800a808                RCC_SYSCLKConfig
 .text.RCC_GetSYSCLKSource
                0x0800a81c       0x10 C:\Program Files (x86)\Raisonance\Ride\Lib\ARM\STM32F10x_thumb.lib(stm32f10x_rcc.o)
                0x0800a81c                RCC_GetSYSCLKSource
 .text.RCC_HCLKConfig
                0x0800a82c       0x14 C:\Program Files (x86)\Raisonance\Ride\Lib\ARM\STM32F10x_thumb.lib(stm32f10x_rcc.o)
                0x0800a82c                RCC_HCLKConfig
 .text.RCC_PCLK1Config
                0x0800a840       0x14 C:\Program Files (x86)\Raisonance\Ride\Lib\ARM\STM32F10x_thumb.lib(stm32f10x_rcc.o)
                0x0800a840                RCC_PCLK1Config
 .text.RCC_PCLK2Config
                0x0800a854       0x18 C:\Program Files (x86)\Raisonance\Ride\Lib\ARM\STM32F10x_thumb.lib(stm32f10x_rcc.o)
                0x0800a854                RCC_PCLK2Config
 .text.RCC_USBCLKConfig
                0x0800a86c        0xc C:\Program Files (x86)\Raisonance\Ride\Lib\ARM\STM32F10x_thumb.lib(stm32f10x_rcc.o)
                0x0800a86c                RCC_USBCLKConfig
 .text.RCC_ADCCLKConfig
                0x0800a878       0x14 C:\Program Files (x86)\Raisonance\Ride\Lib\ARM\STM32F10x_thumb.lib(stm32f10x_rcc.o)
                0x0800a878                RCC_ADCCLKConfig
 .text.RCC_LSEConfig
                0x0800a88c       0x20 C:\Program Files (x86)\Raisonance\Ride\Lib\ARM\STM32F10x_thumb.lib(stm32f10x_rcc.o)
                0x0800a88c                RCC_LSEConfig
 .text.RCC_RTCCLKConfig
                0x0800a8ac       0x10 C:\Program Files (x86)\Raisonance\Ride\Lib\ARM\STM32F10x_thumb.lib(stm32f10x_rcc.o)
                0x0800a8ac                RCC_RTCCLKConfig
 .text.RCC_RTCCLKCmd
                0x0800a8bc        0xc C:\Program Files (x86)\Raisonance\Ride\Lib\ARM\STM32F10x_thumb.lib(stm32f10x_rcc.o)
                0x0800a8bc                RCC_RTCCLKCmd
 .text.RCC_GetClocksFreq
                0x0800a8c8       0xb0 C:\Program Files (x86)\Raisonance\Ride\Lib\ARM\STM32F10x_thumb.lib(stm32f10x_rcc.o)
                0x0800a8c8                RCC_GetClocksFreq
 .text.RCC_AHBPeriphClockCmd
                0x0800a978       0x28 C:\Program Files (x86)\Raisonance\Ride\Lib\ARM\STM32F10x_thumb.lib(stm32f10x_rcc.o)
                0x0800a978                RCC_AHBPeriphClockCmd
 .text.RCC_APB2PeriphClockCmd
                0x0800a9a0       0x28 C:\Program Files (x86)\Raisonance\Ride\Lib\ARM\STM32F10x_thumb.lib(stm32f10x_rcc.o)
                0x0800a9a0                RCC_APB2PeriphClockCmd
 .text.RCC_APB1PeriphClockCmd
                0x0800a9c8       0x28 C:\Program Files (x86)\Raisonance\Ride\Lib\ARM\STM32F10x_thumb.lib(stm32f10x_rcc.o)
                0x0800a9c8                RCC_APB1PeriphClockCmd
 .text.RCC_GetFlagStatus
                0x0800a9f0       0x3c C:\Program Files (x86)\Raisonance\Ride\Lib\ARM\STM32F10x_thumb.lib(stm32f10x_rcc.o)
                0x0800a9f0                RCC_GetFlagStatus
 .text.RTC_GetCounter
                0x0800aa2c       0x14 C:\Program Files (x86)\Raisonance\Ride\Lib\ARM\STM32F10x_thumb.lib(stm32f10x_rtc.o)
                0x0800aa2c                RTC_GetCounter
 .text.RTC_SetCounter
                0x0800aa40       0x28 C:\Program Files (x86)\Raisonance\Ride\Lib\ARM\STM32F10x_thumb.lib(stm32f10x_rtc.o)
                0x0800aa40                RTC_SetCounter
 .text.RTC_SetPrescaler
                0x0800aa68       0x2c C:\Program Files (x86)\Raisonance\Ride\Lib\ARM\STM32F10x_thumb.lib(stm32f10x_rtc.o)
                0x0800aa68                RTC_SetPrescaler
 .text.RTC_WaitForLastTask
                0x0800aa94       0x14 C:\Program Files (x86)\Raisonance\Ride\Lib\ARM\STM32F10x_thumb.lib(stm32f10x_rtc.o)
                0x0800aa94                RTC_WaitForLastTask
 .text.RTC_ClearITPendingBit
                0x0800aaa8       0x14 C:\Program Files (x86)\Raisonance\Ride\Lib\ARM\STM32F10x_thumb.lib(stm32f10x_rtc.o)
                0x0800aaa8                RTC_ClearITPendingBit
 .text.SPI_Init
                0x0800aabc       0x40 C:\Program Files (x86)\Raisonance\Ride\Lib\ARM\STM32F10x_thumb.lib(stm32f10x_spi.o)
                0x0800aabc                SPI_Init
 .text.SPI_Cmd  0x0800aafc       0x1c C:\Program Files (x86)\Raisonance\Ride\Lib\ARM\STM32F10x_thumb.lib(stm32f10x_spi.o)
                0x0800aafc                SPI_Cmd
 .text.SysTick_CLKSourceConfig
                0x0800ab18       0x2c C:\Program Files (x86)\Raisonance\Ride\Lib\ARM\STM32F10x_thumb.lib(stm32f10x_systick.o)
                0x0800ab18                SysTick_CLKSourceConfig
 .text.SysTick_SetReload
                0x0800ab44        0xc C:\Program Files (x86)\Raisonance\Ride\Lib\ARM\STM32F10x_thumb.lib(stm32f10x_systick.o)
                0x0800ab44                SysTick_SetReload
 .text.SysTick_CounterCmd
                0x0800ab50       0x3c C:\Program Files (x86)\Raisonance\Ride\Lib\ARM\STM32F10x_thumb.lib(stm32f10x_systick.o)
                0x0800ab50                SysTick_CounterCmd
 .text.SysTick_ITConfig
                0x0800ab8c       0x28 C:\Program Files (x86)\Raisonance\Ride\Lib\ARM\STM32F10x_thumb.lib(stm32f10x_systick.o)
                0x0800ab8c                SysTick_ITConfig
 .text.TIM_TimeBaseInit
                0x0800abb4       0x5c C:\Program Files (x86)\Raisonance\Ride\Lib\ARM\STM32F10x_thumb.lib(stm32f10x_tim.o)
                0x0800abb4                TIM_TimeBaseInit
 .text.TIM_OC1Init
                0x0800ac10       0xbc C:\Program Files (x86)\Raisonance\Ride\Lib\ARM\STM32F10x_thumb.lib(stm32f10x_tim.o)
                0x0800ac10                TIM_OC1Init
 .text.TIM_ICInit
                0x0800accc      0x16c C:\Program Files (x86)\Raisonance\Ride\Lib\ARM\STM32F10x_thumb.lib(stm32f10x_tim.o)
                0x0800accc                TIM_ICInit
 .text.TIM_Cmd  0x0800ae38       0x1c C:\Program Files (x86)\Raisonance\Ride\Lib\ARM\STM32F10x_thumb.lib(stm32f10x_tim.o)
                0x0800ae38                TIM_Cmd
 .text.TIM_CtrlPWMOutputs
                0x0800ae54       0x20 C:\Program Files (x86)\Raisonance\Ride\Lib\ARM\STM32F10x_thumb.lib(stm32f10x_tim.o)
                0x0800ae54                TIM_CtrlPWMOutputs
 .text.TIM_ITConfig
                0x0800ae74       0x1c C:\Program Files (x86)\Raisonance\Ride\Lib\ARM\STM32F10x_thumb.lib(stm32f10x_tim.o)
                0x0800ae74                TIM_ITConfig
 .text.TIM_ARRPreloadConfig
                0x0800ae90       0x1c C:\Program Files (x86)\Raisonance\Ride\Lib\ARM\STM32F10x_thumb.lib(stm32f10x_tim.o)
                0x0800ae90                TIM_ARRPreloadConfig
 .text.TIM_OC1PreloadConfig
                0x0800aeac       0x10 C:\Program Files (x86)\Raisonance\Ride\Lib\ARM\STM32F10x_thumb.lib(stm32f10x_tim.o)
                0x0800aeac                TIM_OC1PreloadConfig
 .text.TIM_OC1PolarityConfig
                0x0800aebc       0x10 C:\Program Files (x86)\Raisonance\Ride\Lib\ARM\STM32F10x_thumb.lib(stm32f10x_tim.o)
                0x0800aebc                TIM_OC1PolarityConfig
 .text.TIM_SetCounter
                0x0800aecc        0x4 C:\Program Files (x86)\Raisonance\Ride\Lib\ARM\STM32F10x_thumb.lib(stm32f10x_tim.o)
                0x0800aecc                TIM_SetCounter
 .text.TIM_SetCompare1
                0x0800aed0        0x4 C:\Program Files (x86)\Raisonance\Ride\Lib\ARM\STM32F10x_thumb.lib(stm32f10x_tim.o)
                0x0800aed0                TIM_SetCompare1
 .text.TIM_SetCompare4
                0x0800aed4        0x8 C:\Program Files (x86)\Raisonance\Ride\Lib\ARM\STM32F10x_thumb.lib(stm32f10x_tim.o)
                0x0800aed4                TIM_SetCompare4
 .text.TIM_GetCapture1
                0x0800aedc        0x8 C:\Program Files (x86)\Raisonance\Ride\Lib\ARM\STM32F10x_thumb.lib(stm32f10x_tim.o)
                0x0800aedc                TIM_GetCapture1
 .text.TIM_GetCounter
                0x0800aee4        0x8 C:\Program Files (x86)\Raisonance\Ride\Lib\ARM\STM32F10x_thumb.lib(stm32f10x_tim.o)
                0x0800aee4                TIM_GetCounter
 .text.TIM_ClearITPendingBit
                0x0800aeec        0x8 C:\Program Files (x86)\Raisonance\Ride\Lib\ARM\STM32F10x_thumb.lib(stm32f10x_tim.o)
                0x0800aeec                TIM_ClearITPendingBit
 .text.USART_Cmd
                0x0800aef4       0x1c C:\Program Files (x86)\Raisonance\Ride\Lib\ARM\STM32F10x_thumb.lib(stm32f10x_usart.o)
                0x0800aef4                USART_Cmd
 .text.USART_ITConfig
                0x0800af10       0x48 C:\Program Files (x86)\Raisonance\Ride\Lib\ARM\STM32F10x_thumb.lib(stm32f10x_usart.o)
                0x0800af10                USART_ITConfig
 .text.USART_DMACmd
                0x0800af58       0x1c C:\Program Files (x86)\Raisonance\Ride\Lib\ARM\STM32F10x_thumb.lib(stm32f10x_usart.o)
                0x0800af58                USART_DMACmd
 .text.USART_SendData
                0x0800af74        0x8 C:\Program Files (x86)\Raisonance\Ride\Lib\ARM\STM32F10x_thumb.lib(stm32f10x_usart.o)
                0x0800af74                USART_SendData
 .text.USART_ReceiveData
                0x0800af7c        0x8 C:\Program Files (x86)\Raisonance\Ride\Lib\ARM\STM32F10x_thumb.lib(stm32f10x_usart.o)
                0x0800af7c                USART_ReceiveData
 .text.USART_GetFlagStatus
                0x0800af84        0xc C:\Program Files (x86)\Raisonance\Ride\Lib\ARM\STM32F10x_thumb.lib(stm32f10x_usart.o)
                0x0800af84                USART_GetFlagStatus
 .text.USART_GetITStatus
                0x0800af90       0x58 C:\Program Files (x86)\Raisonance\Ride\Lib\ARM\STM32F10x_thumb.lib(stm32f10x_usart.o)
                0x0800af90                USART_GetITStatus
 .text.USART_Init
                0x0800afe8       0xa4 C:\Program Files (x86)\Raisonance\Ride\Lib\ARM\STM32F10x_thumb.lib(stm32f10x_usart.o)
                0x0800afe8                USART_Init
 .text.WWDG_SetPrescaler
                0x0800b08c       0x14 C:\Program Files (x86)\Raisonance\Ride\Lib\ARM\STM32F10x_thumb.lib(stm32f10x_wwdg.o)
                0x0800b08c                WWDG_SetPrescaler
 .text.WWDG_SetWindowValue
                0x0800b0a0       0x18 C:\Program Files (x86)\Raisonance\Ride\Lib\ARM\STM32F10x_thumb.lib(stm32f10x_wwdg.o)
                0x0800b0a0                WWDG_SetWindowValue
 .text.WWDG_SetCounter
                0x0800b0b8       0x10 C:\Program Files (x86)\Raisonance\Ride\Lib\ARM\STM32F10x_thumb.lib(stm32f10x_wwdg.o)
                0x0800b0b8                WWDG_SetCounter
 .text.WWDG_Enable
                0x0800b0c8       0x10 C:\Program Files (x86)\Raisonance\Ride\Lib\ARM\STM32F10x_thumb.lib(stm32f10x_wwdg.o)
                0x0800b0c8                WWDG_Enable
 .text.ADC_Init
                0x0800b0d8       0x4c C:\Program Files (x86)\Raisonance\Ride\Lib\ARM\STM32F10x_thumb.lib(stm32f10x_adc.o)
                0x0800b0d8                ADC_Init
 .text.ADC_Cmd  0x0800b124       0x18 C:\Program Files (x86)\Raisonance\Ride\Lib\ARM\STM32F10x_thumb.lib(stm32f10x_adc.o)
                0x0800b124                ADC_Cmd
 .text.ADC_DMACmd
                0x0800b13c       0x18 C:\Program Files (x86)\Raisonance\Ride\Lib\ARM\STM32F10x_thumb.lib(stm32f10x_adc.o)
                0x0800b13c                ADC_DMACmd
 .text.ADC_ResetCalibration
                0x0800b154        0xc C:\Program Files (x86)\Raisonance\Ride\Lib\ARM\STM32F10x_thumb.lib(stm32f10x_adc.o)
                0x0800b154                ADC_ResetCalibration
 .text.ADC_GetResetCalibrationStatus
                0x0800b160        0xc C:\Program Files (x86)\Raisonance\Ride\Lib\ARM\STM32F10x_thumb.lib(stm32f10x_adc.o)
                0x0800b160                ADC_GetResetCalibrationStatus
 .text.ADC_StartCalibration
                0x0800b16c        0xc C:\Program Files (x86)\Raisonance\Ride\Lib\ARM\STM32F10x_thumb.lib(stm32f10x_adc.o)
                0x0800b16c                ADC_StartCalibration
 .text.ADC_GetCalibrationStatus
                0x0800b178        0xc C:\Program Files (x86)\Raisonance\Ride\Lib\ARM\STM32F10x_thumb.lib(stm32f10x_adc.o)
                0x0800b178                ADC_GetCalibrationStatus
 .text.ADC_SoftwareStartConvCmd
                0x0800b184       0x18 C:\Program Files (x86)\Raisonance\Ride\Lib\ARM\STM32F10x_thumb.lib(stm32f10x_adc.o)
                0x0800b184                ADC_SoftwareStartConvCmd
 .text.ADC_RegularChannelConfig
                0x0800b19c       0xa4 C:\Program Files (x86)\Raisonance\Ride\Lib\ARM\STM32F10x_thumb.lib(stm32f10x_adc.o)
                0x0800b19c                ADC_RegularChannelConfig
 .text.ADC_TempSensorVrefintCmd
                0x0800b240       0x28 C:\Program Files (x86)\Raisonance\Ride\Lib\ARM\STM32F10x_thumb.lib(stm32f10x_adc.o)
                0x0800b240                ADC_TempSensorVrefintCmd
 .text.BKP_WriteBackupRegister
                0x0800b268        0xc C:\Program Files (x86)\Raisonance\Ride\Lib\ARM\STM32F10x_thumb.lib(stm32f10x_bkp.o)
                0x0800b268                BKP_WriteBackupRegister
 .text.BKP_ReadBackupRegister
                0x0800b274       0x10 C:\Program Files (x86)\Raisonance\Ride\Lib\ARM\STM32F10x_thumb.lib(stm32f10x_bkp.o)
                0x0800b274                BKP_ReadBackupRegister
 *(.rodata)
 .rodata        0x0800b284       0x2c C:\tien\PROJEKTY\procesory\STM\T108_V100a\control.o
                0x0800b284                OC_Off
                0x0800b2a8                Mosfets_Off_R
                0x0800b290                Relays_Off
                0x0800b2a0                Mosfets_Off_N
 .rodata        0x0800b2b0        0xc C:\tien\PROJEKTY\procesory\STM\T108_V100a\RTC.o
 .rodata        0x0800b2bc        0x4 C:\tien\PROJEKTY\procesory\STM\T108_V100a\lcd.o
                0x0800b2bc                Lcd_Address_Base
 .rodata        0x0800b2c0     0x2d5c C:\tien\PROJEKTY\procesory\STM\T108_V100a\gui.o
                0x0800bd4c                Param_LP_Marker
                0x0800b684                Ranges_Minute
                0x0800da64                Var_Ust_Serwisowe19
                0x0800c408                String_Fun13
                0x0800d4f4                Screen_RTC
                0x0800d7e8                String_Ust_Serwisowe1
                0x0800bda0                Param_SoftStartStop
                0x0800caec                String_Listwy26
                0x0800df5c                String_Ster_Blok3
                0x0800d914                Var_Ust_Serwisowe17
                0x0800c360                String_Submenu2_1c
                0x0800c5f4                String_Submenu4
                0x0800d230                String_Czujniki1_2
                0x0800b7d4                Ranges_Opened_Time
                0x0800de0c                Var_Odczyt_Serwis3_10
                0x0800c7d4                Screen_Haslo
                0x0800b828                Clock_Minute
                0x0800d11c                String_Wyjscia22
                0x0800da04                Var_Ust_Serwisowe23
                0x0800ba3c                Param_6_Digits
                0x0800bf64                Var_Enable4
                0x0800cc24                Screen_Ustaw_Wejsc1
                0x0800c0e4                Var_Submenu2_3
                0x0800d404                Screen_Zmiana_Hasel
                0x0800db0c                Var_Odczyt_Serwis10
                0x0800cf60                String_Wejscia_Ster1
                0x0800d044                String_Wyjscia6
                0x0800d080                String_Wyjscia1
                0x0800b68c                Ranges_Hour
                0x0800df44                Screen_Blok_Calkowita
                0x0800db6c                Var_Odczyt_Serwis6
                0x0800df38                String_Blok_Calkowita1
                0x0800ddf4                Var_Odczyt_Serwis3_11
                0x0800c21c                Screen_Submenu2a
                0x0800dd88                Var_Odczyt_Serwis12
                0x0800da1c                Var_Ust_Serwisowe22
                0x0800c348                String_Submenu2_3c
                0x0800dd28                Var_Odczyt_Serwis16
                0x0800cd2c                Var_Wejscie36
                0x0800ca5c                Var_Listwy26
                0x0800d9a4                String_Ust_Serwisowe16
                0x0800c594                Var_Lic2
                0x0800d308                String_Podglad1
                0x0800c57c                Var_Lic3
                0x0800c624                String_Fabryczne2
                0x0800ba74                Param_2_Dot_Digits
                0x0800dcc8                Var_Odczyt_Serwis20
                0x0800c27c                String_Submenu2_6b
                0x0800bf7c                Var_Enable3
                0x0800c4ec                String_Data3
                0x0800c804                Var_BM2
                0x0800c1f8                String_Submenu2_3a
                0x0800d8cc                String_Ust_Serwisowe8
                0x0800d26c                Screen_Czujniki2
                0x0800bbfc                Param_In_4
                0x0800c984                Var_Listwy5
                0x0800d98c                String_Ust_Serwisowe18
                0x0800be44                Var_Standby6
                0x0800b9e8                Param_3_Digits
                0x0800b87c                Clock_Month
                0x0800c150                String_Submenu2_3
                0x0800c204                String_Submenu2_2a
                0x0800c714                Var_Info2
                0x0800d134                Screen_Ustaw_Wyjsc_Przek2
                0x0800c678                String_Kontakt1
                0x0800b8b4                Clock_DOW
                0x0800d14c                Menu_Czujniki1
                0x0800d4b8                Screen_Ust_Blokady
                0x0800ccb4                Var_Wejscie21
                0x0800c8c4                Var_Prad4
                0x0800cfc0                String_Wejscia_Ster25
                0x0800d614                String_LP2
                0x0800c840                String_BM5
                0x0800df80                Screen_Ster_Blokowany
                0x0800b78c                Ranges_0_2
                0x0800c0a8                Menu_Submenu1
                0x0800bcc0                Param_Serial
                0x0800d02c                Var_Wyjscia1
                0x0800ca44                Screen_Listwy1
                0x0800daa0                String_Ust_Serwisowe21
                0x0800d50c                String_Zerowanie3
                0x0800d734                Var_Ust_Serwisowe5
                0x0800decc                Var_Odczyt_Serwis3_2
                0x0800dc50                Var_Odczyt_Serwis25
                0x0800caf8                String_Listwy25
                0x0800d434                Var_Lock3
                0x0800c768                String_Info1
                0x0800c414                Screen_Funkcje3
                0x0800bebc                Var_Standby1
                0x0800b898                Clock_Year
                0x0800b7b4                Ranges_0_7
                0x0800d6c8                String_WeWy5
                0x0800df14                String_Odczyt_Serwis7
                0x0800c9b4                Var_Listwy3
                0x0800b6ac                Ranges_DOW
                0x0800d2fc                String_Podglad2
                0x0800c558                String_Lic3
                0x0800c63c                Screen_Fabryczne
                0x0800c39c                String_Submenu3
                0x0800c03c                String_Enable2
                0x0800b754                Ranges_5_Digits
                0x0800de24                Var_Odczyt_Serwis3_9
                0x0800cf24                String_Wejscia_Ster6
                0x0800c00c                String_Enable6
                0x0800d668                Screen_Prog_Testowy
                0x0800d23c                String_Czujniki1_1
                0x0800bd68                Param_Opened_Time
                0x0800cd44                Var_Wejscie35
                0x0800b7dc                Ranges_Freq
                0x0800ce64                String_Wejscia42
                0x0800bea4                Var_Standby2
                0x0800d3d4                String_Passwd4
                0x0800b978                Param_RTC
                0x0800cfe4                Screen_Ustaw_Wejsc_Ster2
                0x0800ce94                Var_Wejscie_Ster6
                0x0800dc68                Var_Odczyt_Serwis24
                0x0800d578                Var_LP4
                0x0800c9cc                Var_Listwy2
                0x0800b65c                Languages
                0x0800ddac                String_Odczyt_Serwis5
                0x0800b6bc                Ranges_Prob
                0x0800d1b8                Var_Czujniki1_4
                0x0800cd14                Screen_Ustaw_Wejsc2
                0x0800d3f8                String_Passwd1
                0x0800b704                Ranges_4_digits
                0x0800beec                String_Standby2
                0x0800cb64                Var_Wejscie5
                0x0800b9cc                Param_2_Digits
                0x0800b70c                Ranges_TestWeWy
                0x0800cd08                String_Wejscia21
                0x0800ccfc                String_Wejscia22
                0x0800dfc8                String_Odblokuj2
                0x0800cec4                Var_Wejscie_Ster4
                0x0800c528                String_Lic7
                0x0800c498                Var_Data3
                0x0800c54c                String_Lic4
                0x0800d9b0                String_Ust_Serwisowe15
                0x0800d05c                String_Wyjscia4
                0x0800d41c                Var_Lock4
                0x0800d0bc                Var_Wyjscia22
                0x0800c72c                Var_Info1
                0x0800c354                String_Submenu2_2c
                0x0800bf4c                Var_Enable5
                0x0800bdbc                Param_Photo_Opened
                0x0800bcf8                Param_0_50
                0x0800ba90                Param_4_Dot_Digits
                0x0800df68                String_Ster_Blok2
                0x0800d5e4                String_LP6
                0x0800de84                Var_Odczyt_Serwis3_5
                0x0800c1a4                Var_Submenu2_2a
                0x0800ca38                String_Listwy1
                0x0800ce1c                Var_Wejscie44
                0x0800b7f4                Ranges_Current_Counter
                0x0800b940                Counters
                0x0800b77c                Ranges_Delay
                0x0800d014                Var_Wyjscia2
                0x0800b734                Ranges_Status
                0x0800db3c                Var_Odczyt_Serwis8
                0x0800c93c                String_Prad2
                0x0800c930                String_Prad3
                0x0800d6b0                String_WeWy7
                0x0800c3e4                String_Fun7
                0x0800c8ac                Var_Prad5
                0x0800dbcc                Var_Odczyt_Serwis2
                0x0800d1a0                Var_Czujniki1_5
                0x0800c7a4                Var_Password1
                0x0800dbb4                Var_Odczyt_Serwis3
                0x0800dddc                Var_Odczyt_Serwis3_12
                0x0800dd40                Var_Odczyt_Serwis15
                0x0800d8d8                String_Ust_Serwisowe7
                0x0800da34                Var_Ust_Serwisowe21
                0x0800d944                Var_Ust_Serwisowe15
                0x0800d650                String_Test_Prog2
                0x0800cabc                Var_Listwy22
                0x0800cf48                String_Wejscia_Ster3
                0x0800cb04                String_Listwy24
                0x0800c330                String_Submenu2_5c
                0x0800b774                Ranges_LP_Counter
                0x0800d2cc                String_Podglad6
                0x0800bf94                Var_Enable2
                0x0800cdd4                String_Wejscia34
                0x0800ce7c                Screen_Ustaw_Wejsc4
                0x0800cdc8                String_Wejscia35
                0x0800b6d4                Ranges_Tak_Nie
                0x0800c9e4                Var_Listwy1
                0x0800c018                String_Enable5
                0x0800d5c0                Var_LP1
                0x0800c834                String_BM6
                0x0800c660                String_Kontakt3
                0x0800c9fc                String_Listwy6
                0x0800d4ac                String_Lock1
                0x0800cfb4                String_Wejscia_Ster26
                0x0800d344                String_Language1
                0x0800d7dc                String_Ust_Serwisowe2
                0x0800d6f8                String_WeWy1
                0x0800b72c                Ranges_Heat_Max
                0x0800b6a4                Ranges_Year
                0x0800bfc4                String_Enable12
                0x0800c264                Var_Submenu2_1b
                0x0800dc98                Var_Odczyt_Serwis22
                0x0800cef4                Var_Wejscie_Ster2
                0x0800cd5c                Var_Wejscie34
                0x0800d218                String_Czujniki1_4
                0x0800ba58                Param_10_Digits
                0x0800db24                Var_Odczyt_Serwis9
                0x0800b74c                Ranges_MS
                0x0800b6f4                Ranges_Temperature
                0x0800c7c8                String_Password1
                0x0800c81c                Var_BM1
                0x0800b7c4                Ranges_0_9
                0x0800d314                Screen_Podglad1
                0x0800df20                Screen_Odczyt_Serwisowy3
                0x0800d644                String_Test_Prog3
                0x0800d398                Var_Passwd2
                0x0800caa4                Var_Listwy23
                0x0800dce0                Var_Odczyt_Serwis19
                0x0800ba04                Param_4_Digits
                0x0800c858                String_BM3
                0x0800c324                String_Submenu2_6c
                0x0800d77c                Var_Ust_Serwisowe2
                0x0800c6e4                Var_Info4
                0x0800ce70                String_Wejscia41
                0x0800d128                String_Wyjscia21
                0x0800d104                String_Wyjscia24
                0x0800d6e0                String_WeWy3
                0x0800df08                String_Odczyt_Serwis8
                0x0800b6ec                Ranges_Serwis
                0x0800dc14                String_Odczyt_Serwis1
                0x0800d8a8                String_Ust_Serwisowe11
                0x0800cce4                String_Wejscia24
                0x0800c450                Var_Data6
                0x0800c2dc                Var_Submenu2_3c
                0x0800d4e8                String_RTC1
                0x0800cf54                String_Wejscia_Ster2
                0x0800d3b0                Var_Passwd1
                0x0800b784                Ranges_0_1
                0x0800c564                String_Lic2
                0x0800ca14                String_Listwy4
                0x0800c3a8                Screen_Submenu3
                0x0800c174                Screen_Submenu2
                0x0800d3ec                String_Passwd2
                0x0800bb00                Param_Heat_Max
                0x0800bc88                Param_Braking_Angle
                0x0800d86c                Var_Ust_Serwisowe8
                0x0800d164                String_Czujniki_Menu
                0x0800d998                String_Ust_Serwisowe17
                0x0800b6b4                Ranges_Pass
                0x0800dfb0                Var_Odblokuj1
                0x0800b724                Ranges_Heat_Min
                0x0800cb1c                String_Listwy22
                0x0800c90c                Var_Prad1
                0x0800d0d4                Var_Wyjscia21
                0x0800dff8                String_AE1
                0x0800b7ec                Ranges_Current
                0x0800d488                String_Lock4
                0x0800c2a0                String_Submenu2_3b
                0x0800dda0                String_Odczyt_Serwis6
                0x0800c24c                Var_Submenu2_2b
                0x0800d65c                String_Test_Prog1
                0x0800c510                Screen_Data
                0x0800bff4                String_Enable8
                0x0800dc08                String_Odczyt_Serwis2
                0x0800d764                Var_Ust_Serwisowe3
                0x0800b7a4                Ranges_0_5
                0x0800c2ac                String_Submenu2_2b
                0x0800cbe8                String_Wejscia5
                0x0800cbc4                Var_Wejscie1
                0x0800d44c                Var_Lock2
                0x0800bb70                Param_Inputs4
                0x0800d7f4                Screen_Ust_Serwisowe1
                0x0800d2b4                Var_Podglad1
                0x0800dc20                Screen_Odczyt_Serwisowy1
                0x0800cc9c                Var_Wejscie22
                0x0800c1e0                String_Submenu2_5a
                0x0800ca20                String_Listwy3
                0x0800bf04                Screen_Standby
                0x0800bae4                Param_Heat_Min
                0x0800d62c                Screen_Licznik_Pracy
                0x0800d620                String_LP1
                0x0800c84c                String_BM4
                0x0800d47c                String_Lock5
                0x0800c4e0                String_Data4
                0x0800bed4                String_Standby4
                0x0800b6fc                Ranges_2_digits
                0x0800b71c                Ranges_Vent_Max
                0x0800b714                Ranges_Vent_Min
                0x0800da7c                String_Ust_Serwisowe24
                0x0800bcdc                Param_Status
                0x0800dee4                Var_Odczyt_Serwis3_1
                0x0800dc80                Var_Odczyt_Serwis23
                0x0800b61c                Controlling_Default
                0x0800be5c                Var_Standby5
                0x0800de9c                Var_Odczyt_Serwis3_4
                0x0800d200                Var_Czujniki1_1
                0x0800bdd8                Param_Photo_Opening_Closing
                0x0800c75c                String_Info2
                0x0800cc18                String_Wejscia1
                0x0800d350                Screen_Jezyk
                0x0800cc54                Var_Wejscie25
                0x0800c084                String_Menu1
                0x0800b95c                Param_Prob
                0x0800d068                String_Wyjscia3
                0x0800c294                String_Submenu2_4b
                0x0800b8ec                Lang_Param
                0x0800d89c                String_Ust_Serwisowe12
                0x0800c36c                Screen_Submenu2c
                0x0800b794                Ranges_0_3
                0x0800b7cc                Ranges_0_10
                0x0800d074                String_Wyjscia2
                0x0800e004                Screen_Alert_Error
                0x0800c69c                Var_Info7
                0x0800dbfc                String_Odczyt_Serwis3
                0x0800c114                Var_Submenu2_1
                0x0800cfcc                String_Wejscia_Ster22
                0x0800d530                Screen_Zer_Licznikow
                0x0800cd8c                Var_Wejscie32
                0x0800c78c                Var_Password2
                0x0800d71c                Var_Ust_Serwisowe6
                0x0800dd10                Var_Odczyt_Serwis17
                0x0800da88                String_Ust_Serwisowe23
                0x0800c4b0                Var_Data2
                0x0800cedc                Var_Wejscie_Ster3
                0x0800c030                String_Enable3
                0x0800ba20                Param_5_Digits
                0x0800bd30                Param_LP_Counter
                0x0800d4d0                Var_RTC1
                0x0800cbac                Var_Wejscie2
                0x0800d0ec                String_Wyjscia26
                0x0800d9ec                Var_Ust_Serwisowe24
                0x0800c3f0                Screen_Funkcje2
                0x0800c2f4                Var_Submenu2_2c
                0x0800cf30                String_Wejscia_Ster5
                0x0800bd84                Param_Freq
                0x0800c4c8                Var_Data1
                0x0800c99c                Var_Listwy4
                0x0800c1bc                Var_Submenu2_1a
                0x0800cf0c                Var_Wejscie_Ster1
                0x0800c1ec                String_Submenu2_4a
                0x0800c054                Screen_Enable
                0x0800ccf0                String_Wejscia23
                0x0800d608                String_LP3
                0x0800d380                Var_Passwd3
                0x0800cb4c                Var_Wejscie6
                0x0800c144                String_Submenu2_4
                0x0800c8f4                Var_Prad2
                0x0800bf1c                Var_Enable7
                0x0800d7c4                String_Ust_Serwisowe4
                0x0800cc0c                String_Wejscia2
                0x0800cf6c                Screen_Ustaw_Wejsc_Ster1
                0x0800bbc4                Param_In_2
                0x0800b75c                Ranges_6_Digits
                0x0800d548                Var_LP6
                0x0800c5dc                Menu_Submenu4
                0x0800d5f0                String_LP5
                0x0800bb1c                Param_Inputs1
                0x0800db54                Var_Odczyt_Serwis7
                0x0800c7ec                Var_BM3
                0x0800c924                String_Prad4
                0x0800d698                String_WeWy9
                0x0800c480                Var_Data4
                0x0800d9bc                String_Ust_Serwisowe14
                0x0800dbe4                Var_Odczyt_Serwis1
                0x0800c744                String_Info4
                0x0800d7ac                String_Ust_Serwisowe6
                0x0800cbdc                String_Wejscia6
                0x0800bef8                String_Standby1
                0x0800cc3c                Var_Wejscie26
                0x0800b924                PWM_Param
                0x0800cf9c                Var_Wejscie_Ster21
                0x0800d80c                Var_Ust_Serwisowe12
                0x0800df98                Var_Odblokuj2
                0x0800cf3c                String_Wejscia_Ster4
                0x0800c42c                String_Fun19
                0x0800b7e4                Ranges_Soft
                0x0800b6c4                Ranges_Lang
                0x0800cdf8                String_Wejscia31
                0x0800cdbc                String_Wejscia36
                0x0800d92c                Var_Ust_Serwisowe16
                0x0800d824                Var_Ust_Serwisowe11
                0x0800dcb0                Var_Odczyt_Serwis21
                0x0800d560                Var_LP5
                0x0800c774                Screen_Info
                0x0800d494                String_Lock3
                0x0800d224                String_Czujniki1_3
                0x0800b764                Ranges_10_Digits
                0x0800b6e4                Ranges_RTC
                0x0800de3c                Var_Odczyt_Serwis3_8
                0x0800b7fc                Ranges_Braking_Angle
                0x0800dcf8                Var_Odczyt_Serwis18
                0x0800bc18                Param_Outputs1
                0x0800d518                String_Zerowanie2
                0x0800bfdc                String_Enable10
                0x0800d1e8                Var_Czujniki1_2
                0x0800c630                String_Fabryczne1
                0x0800bfac                Var_Enable1
                0x0800db84                Var_Odczyt_Serwis5
                0x0800ce34                Var_Wejscie41
                0x0800c384                Menu_Submenu3
                0x0800b7bc                Ranges_0_8
                0x0800bb8c                Param_Inputs5
                0x0800ca74                Var_Listwy25
                0x0800c96c                Var_Listwy6
                0x0800c2b8                String_Submenu2_1b
                0x0800c4f8                String_Data2
                0x0800d794                Var_Ust_Serwisowe1
                0x0800bca4                TestWeWy_Param
                0x0800b548                Add_Tab
                0x0800c6cc                Var_Info5
                0x0800d110                String_Wyjscia23
                0x0800b844                Clock_Hour
                0x0800c0fc                Var_Submenu2_2
                0x0800c540                String_Lic5
                0x0800d248                Screen_Czujniki1
                0x0800df74                String_Ster_Blok1
                0x0800ccd8                String_Wejscia25
                0x0800cccc                String_Wejscia26
                0x0800bbe0                Param_In_3
                0x0800be2c                Var_Standby7
                0x0800dab8                String_Ust_Serwisowe19
                0x0800b694                Ranges_Day
                0x0800ca08                String_Listwy5
                0x0800b8d0                Passwd
                0x0800ce4c                String_Wejscia46
                0x0800d884                Var_Ust_Serwisowe7
                0x0800c168                String_Submenu2_1
                0x0800c30c                Var_Submenu2_1c
                0x0800dd58                Var_Odczyt_Serwis14
                0x0800be10                Param_Current_Counter
                0x0800dac4                Screen_Ust_Serwisowe4
                0x0800ddc4                Screen_Odczyt_Serwisowy2
                0x0800b804                Ranges_Unlock_Brake
                0x0800d284                Var_Podglad3
                0x0800ca8c                Var_Listwy24
                0x0800c138                String_Submenu2_5
                0x0800c5ac                Var_Lic1
                0x0800b860                Clock_Day
                0x0800c0c0                String_Submenu1
                0x0800bc6c                Param_Sensor_Type
                0x0800dfe0                Screen_Odblokuj
                0x0800ddb8                String_Odczyt_Serwis4
                0x0800d8b4                String_Ust_Serwisowe10
                0x0800c870                String_BM1
                0x0800d3e0                String_Passwd3
                0x0800c6b4                Var_Info6
                0x0800b7ac                Ranges_0_6
                0x0800cc00                String_Wejscia3
                0x0800baac                Param_Vent_Min
                0x0800d9d4                Screen_Ust_Serwisowe3
                0x0800c66c                String_Kontakt2
                0x0800d6bc                String_WeWy6
                0x0800b76c                Ranges_LP_Marker
                0x0800cc6c                Var_Wejscie24
                0x0800b79c                Ranges_0_4
                0x0800c210                String_Submenu2_1a
                0x0800d854                Var_Ust_Serwisowe9
                0x0800dd70                Var_Odczyt_Serwis13
                0x0800da4c                Var_Ust_Serwisowe20
                0x0800d7b8                String_Ust_Serwisowe5
                0x0800b744                Ranges_Adres
                0x0800daac                String_Ust_Serwisowe20
                0x0800bfe8                String_Enable9
                0x0800bb38                Param_Inputs2
                0x0800d95c                Var_Ust_Serwisowe14
                0x0800b2c0                Screen_Lcd
                0x0800d74c                Var_Ust_Serwisowe4
                0x0800deb4                Var_Odczyt_Serwis3_3
                0x0800d8fc                Var_Ust_Serwisowe18
                0x0800ce04                Screen_Ustaw_Wejsc3
                0x0800c750                String_Info3
                0x0800d08c                Screen_Ustaw_Wyjsc_Przek1
                0x0800be8c                Var_Standby3
                0x0800bac8                Param_Vent_Max
                0x0800c438                Screen_Funkcje4
                0x0800c87c                Screen_Brama_Motor1
                0x0800c33c                String_Submenu2_4c
                0x0800d29c                Var_Podglad2
                0x0800d9c8                String_Ust_Serwisowe13
                0x0800ca2c                String_Listwy2
                0x0800c18c                Var_Submenu2_3a
                0x0800c2c4                Screen_Submenu2b
                0x0800d050                String_Wyjscia5
                0x0800c288                String_Submenu2_5b
                0x0800c600                Screen_Submenu4
                0x0800b6cc                Ranges_PWM
                0x0800c3c0                String_Fun1
                0x0800b69c                Ranges_Month
                0x0800b908                TN_Param
                0x0800d83c                Var_Ust_Serwisowe10
                0x0800c000                String_Enable7
                0x0800cd74                Var_Wejscie33
                0x0800d680                Var_WeWy1
                0x0800dfd4                String_Odblokuj1
                0x0800c048                String_Enable1
                0x0800c8dc                Var_Prad3
                0x0800d0a4                Var_Wyjscia23
                0x0800be74                Var_Standby4
                0x0800ce58                String_Wejscia45
                0x0800d2d8                String_Podglad5
                0x0800b67c                Ranges_Sec
                0x0800b80c                Clock_Sec
                0x0800d32c                Var_Language1
                0x0800d3c8                String_Passwd5
                0x0800dc38                Var_Odczyt_Serwis26
                0x0800d5a8                Var_LP2
                0x0800c894                Var_Prad6
                0x0800dadc                Var_Odczyt_Serwis11_1
                0x0800c12c                String_Submenu2_6
                0x0800d2f0                String_Podglad3
                0x0800c1d4                String_Submenu2_6a
                0x0800cbf4                String_Wejscia4
                0x0800cb94                Var_Wejscie3
                0x0800d0f8                String_Wyjscia25
                0x0800c684                Screen_Kontakt1
                0x0800d170                Screen_Czujniki_Menu
                0x0800cffc                Var_Wyjscia3
                0x0800d8e4                Screen_Ust_Serwisowe2
                0x0800d6a4                String_WeWy8
                0x0800cb7c                Var_Wejscie4
                0x0800b994                Param_Serwis
                0x0800bc50                Param_Motor_Type
                0x0800c3cc                Screen_Funkcje1
                0x0800bfd0                String_Enable11
                0x0800c468                Var_Data5
                0x0800d368                Var_Passwd4
                0x0800c570                String_Lic1
                0x0800c06c                Menu_Menu1
                0x0800bdf4                Param_Current
                0x0800d5d8                String_LP7
                0x0800cb10                String_Listwy23
                0x0800d188                Var_Czujniki1_6
                0x0800d704                Screen_Test_WeWy
                0x0800d7d0                String_Ust_Serwisowe3
                0x0800de6c                Var_Odczyt_Serwis3_6
                0x0800d524                String_Zerowanie1
                0x0800da94                String_Ust_Serwisowe22
                0x0800defc                String_Odczyt_Serwis9
                0x0800bba8                Param_In_1
                0x0800cf84                Var_Wejscie_Ster24
                0x0800cad4                Var_Listwy21
                0x0800daf4                Var_Odczyt_Serwis11
                0x0800c618                String_Fabryczne3
                0x0800c090                Screen_Menu1
                0x0800b9b0                Param_Temperature
                0x0800c948                String_Prad1
                0x0800c15c                String_Submenu2_2
                0x0800d464                Var_Lock1
                0x0800b59c                Settings_Default
                0x0800bb54                Param_Inputs3
                0x0800cc84                Var_Wejscie23
                0x0800c954                Screen_Prad1
                0x0800c024                String_Enable4
                0x0800d1d0                Var_Czujniki1_3
                0x0800cda4                Var_Wejscie31
                0x0800c0cc                Screen_Submenu1
                0x0800d5fc                String_LP4
                0x0800db9c                Var_Odczyt_Serwis4
                0x0800c504                String_Data1
                0x0800d260                String_Czujniki2_1
                0x0800c6fc                Var_Info3
                0x0800d8c0                String_Ust_Serwisowe9
                0x0800d6ec                String_WeWy2
                0x0800b73c                Ranges_0_50
                0x0800d590                Var_LP3
                0x0800d974                Var_Ust_Serwisowe13
                0x0800cfd8                String_Wejscia_Ster21
                0x0800bc34                Param_Gate_Type
                0x0800c234                Var_Submenu2_3b
                0x0800bd14                Param_Delay
                0x0800d2e4                String_Podglad4
                0x0800c7bc                String_Password2
                0x0800cdec                String_Wejscia32
                0x0800cde0                String_Wejscia33
                0x0800bf34                Var_Enable6
                0x0800c534                String_Lic6
                0x0800c654                String_Kontakt4
                0x0800b6dc                Ranges_counters
                0x0800d4a0                String_Lock2
                0x0800c5c4                Screen_Licencja
                0x0800c864                String_BM2
                0x0800bee0                String_Standby3
                0x0800d6d4                String_WeWy4
                0x0800cb34                Screen_Listwy2
                0x0800de54                Var_Odczyt_Serwis3_7
                0x0800ceac                Var_Wejscie_Ster5
                0x0800cb28                String_Listwy21
 .rodata        0x0800e01c       0x8c C:\tien\PROJEKTY\procesory\STM\T108_V100a\usb_desc.o
                0x0800e088                CustomHID_StringProduct
                0x0800e078                CustomHID_StringVendor
                0x0800e02e                CustomHID_ConfigDescriptor
                0x0800e057                CustomHID_ReportDescriptor
                0x0800e01c                CustomHID_DeviceDescriptor
                0x0800e074                CustomHID_StringLangID
 .rodata        0x0800e0a8       0x14 C:\Program Files (x86)\Raisonance\Ride\Lib\ARM\STM32F10x_thumb.lib(stm32f10x_rcc.o)
 *(.rodata*)
 .rodata.str1.1
                0x0800e0bc       0x2e C:\tien\PROJEKTY\procesory\STM\T108_V100a\RTC.o
 .rodata.str1.1
                0x0800e0ea       0x11 C:\tien\PROJEKTY\procesory\STM\T108_V100a\lcd.o
 .rodata.str1.1
                0x0800e0fb      0xfe7 C:\tien\PROJEKTY\procesory\STM\T108_V100a\gui.o
                               0x103f (size before relaxing)
 *(.glue_7)
 *fill*         0x0800f0e2        0x2 00
 .glue_7        0x0800f0e4        0x0 C:\Program Files (x86)\Raisonance\Ride\lib\ARM\crt0_STM32x_HD.o
 .glue_7        0x0800f0e4        0x0 C:\tien\PROJEKTY\procesory\STM\T108_V100a\stm32f10x_flash.o
 .glue_7        0x0800f0e4        0x0 C:\tien\PROJEKTY\procesory\STM\T108_V100a\control.o
 .glue_7        0x0800f0e4        0x0 C:\tien\PROJEKTY\procesory\STM\T108_V100a\sys.o
 .glue_7        0x0800f0e4        0x0 C:\tien\PROJEKTY\procesory\STM\T108_V100a\stm32f10x_it.o
 .glue_7        0x0800f0e4        0x0 C:\tien\PROJEKTY\procesory\STM\T108_V100a\RTC.o
 .glue_7        0x0800f0e4        0x0 C:\tien\PROJEKTY\procesory\STM\T108_V100a\main.o
 .glue_7        0x0800f0e4        0x0 C:\tien\PROJEKTY\procesory\STM\T108_V100a\lcd.o
 .glue_7        0x0800f0e4        0x0 C:\tien\PROJEKTY\procesory\STM\T108_V100a\hardware.o
 .glue_7        0x0800f0e4        0x0 C:\tien\PROJEKTY\procesory\STM\T108_V100a\gui.o
 .glue_7        0x0800f0e4        0x0 C:\tien\PROJEKTY\procesory\STM\T108_V100a\usb_core.o
 .glue_7        0x0800f0e4        0x0 C:\tien\PROJEKTY\procesory\STM\T108_V100a\usb_init.o
 .glue_7        0x0800f0e4        0x0 C:\tien\PROJEKTY\procesory\STM\T108_V100a\usb_int.o
 .glue_7        0x0800f0e4        0x0 C:\tien\PROJEKTY\procesory\STM\T108_V100a\usb_mem.o
 .glue_7        0x0800f0e4        0x0 C:\tien\PROJEKTY\procesory\STM\T108_V100a\usb_regs.o
 .glue_7        0x0800f0e4        0x0 C:\tien\PROJEKTY\procesory\STM\T108_V100a\usb_desc.o
 .glue_7        0x0800f0e4        0x0 C:\tien\PROJEKTY\procesory\STM\T108_V100a\usb_istr.o
 .glue_7        0x0800f0e4        0x0 C:\tien\PROJEKTY\procesory\STM\T108_V100a\usb_prop.o
 .glue_7        0x0800f0e4        0x0 C:\tien\PROJEKTY\procesory\STM\T108_V100a\usb_pwr.o
 .glue_7        0x0800f0e4        0x0 C:\tien\PROJEKTY\procesory\STM\T108_V100a\usb_endp.o
 .glue_7        0x0800f0e4        0x0 c:/program files (x86)/raisonance/ride/arm-gcc/bin/../lib/gcc/arm-none-eabi/4.3.2/../../../../arm-none-eabi/lib/thumb2\libc.a(lib_a-memcpy.o)
 .glue_7        0x0800f0e4        0x0 C:\Program Files (x86)\Raisonance\Ride\Lib\ARM\STM32x_io_putchar_thumb.a(syscalls.o)
 .glue_7        0x0800f0e4        0x0 C:\Program Files (x86)\Raisonance\Ride\Lib\ARM\STM32x_io_putchar_thumb.a(STM32F10X_IO_putchar.o)
 .glue_7        0x0800f0e4        0x0 C:\Program Files (x86)\Raisonance\Ride\Lib\ARM\STM32F10x_thumb.lib(stm32f10x_dma.o)
 .glue_7        0x0800f0e4        0x0 C:\Program Files (x86)\Raisonance\Ride\Lib\ARM\STM32F10x_thumb.lib(stm32f10x_exti.o)
 .glue_7        0x0800f0e4        0x0 C:\Program Files (x86)\Raisonance\Ride\Lib\ARM\STM32F10x_thumb.lib(stm32f10x_gpio.o)
 .glue_7        0x0800f0e4        0x0 C:\Program Files (x86)\Raisonance\Ride\Lib\ARM\STM32F10x_thumb.lib(stm32f10x_iwdg.o)
 .glue_7        0x0800f0e4        0x0 C:\Program Files (x86)\Raisonance\Ride\Lib\ARM\STM32F10x_thumb.lib(stm32f10x_nvic.o)
 .glue_7        0x0800f0e4        0x0 C:\Program Files (x86)\Raisonance\Ride\Lib\ARM\STM32F10x_thumb.lib(stm32f10x_pwr.o)
 .glue_7        0x0800f0e4        0x0 C:\Program Files (x86)\Raisonance\Ride\Lib\ARM\STM32F10x_thumb.lib(stm32f10x_rcc.o)
 .glue_7        0x0800f0e4        0x0 C:\Program Files (x86)\Raisonance\Ride\Lib\ARM\STM32F10x_thumb.lib(stm32f10x_rtc.o)
 .glue_7        0x0800f0e4        0x0 C:\Program Files (x86)\Raisonance\Ride\Lib\ARM\STM32F10x_thumb.lib(stm32f10x_spi.o)
 .glue_7        0x0800f0e4        0x0 C:\Program Files (x86)\Raisonance\Ride\Lib\ARM\STM32F10x_thumb.lib(stm32f10x_systick.o)
 .glue_7        0x0800f0e4        0x0 C:\Program Files (x86)\Raisonance\Ride\Lib\ARM\STM32F10x_thumb.lib(stm32f10x_tim.o)
 .glue_7        0x0800f0e4        0x0 C:\Program Files (x86)\Raisonance\Ride\Lib\ARM\STM32F10x_thumb.lib(stm32f10x_usart.o)
 .glue_7        0x0800f0e4        0x0 C:\Program Files (x86)\Raisonance\Ride\Lib\ARM\STM32F10x_thumb.lib(stm32f10x_wwdg.o)
 .glue_7        0x0800f0e4        0x0 C:\Program Files (x86)\Raisonance\Ride\Lib\ARM\STM32F10x_thumb.lib(stm32f10x_adc.o)
 .glue_7        0x0800f0e4        0x0 C:\Program Files (x86)\Raisonance\Ride\Lib\ARM\STM32F10x_thumb.lib(stm32f10x_bkp.o)
 .glue_7        0x0800f0e4        0x0 C:\Program Files (x86)\Raisonance\Ride\Lib\ARM\STM32F10x_thumb.lib(cortexm3_macro.o)
 .glue_7        0x0800f0e4        0x0 c:/program files (x86)/raisonance/ride/arm-gcc/bin/../lib/gcc/arm-none-eabi/4.3.2/../../../../arm-none-eabi/lib/thumb2\libc.a(lib_a-abort.o)
 .glue_7        0x0800f0e4        0x0 c:/program files (x86)/raisonance/ride/arm-gcc/bin/../lib/gcc/arm-none-eabi/4.3.2/../../../../arm-none-eabi/lib/thumb2\libc.a(lib_a-errno.o)
 .glue_7        0x0800f0e4        0x0 c:/program files (x86)/raisonance/ride/arm-gcc/bin/../lib/gcc/arm-none-eabi/4.3.2/../../../../arm-none-eabi/lib/thumb2\libc.a(lib_a-impure.o)
 .glue_7        0x0800f0e4        0x0 c:/program files (x86)/raisonance/ride/arm-gcc/bin/../lib/gcc/arm-none-eabi/4.3.2/../../../../arm-none-eabi/lib/thumb2\libc.a(lib_a-signal.o)
 .glue_7        0x0800f0e4        0x0 c:/program files (x86)/raisonance/ride/arm-gcc/bin/../lib/gcc/arm-none-eabi/4.3.2/../../../../arm-none-eabi/lib/thumb2\libc.a(lib_a-signalr.o)
 .glue_7        0x0800f0e4        0x0 c:/program files (x86)/raisonance/ride/arm-gcc/bin/../lib/gcc/arm-none-eabi/4.3.2/../../../../arm-none-eabi/lib/thumb2\libc.a(lib_a-mallocr.o)
 .glue_7        0x0800f0e4        0x0 c:/program files (x86)/raisonance/ride/arm-gcc/bin/../lib/gcc/arm-none-eabi/4.3.2/../../../../arm-none-eabi/lib/thumb2\libc.a(lib_a-mlock.o)
 .glue_7        0x0800f0e4        0x0 c:/program files (x86)/raisonance/ride/arm-gcc/bin/../lib/gcc/arm-none-eabi/4.3.2/../../../../arm-none-eabi/lib/thumb2\libc.a(lib_a-reent.o)
 .glue_7        0x0800f0e4        0x0 c:/program files (x86)/raisonance/ride/arm-gcc/bin/../lib/gcc/arm-none-eabi/4.3.2/../../../../arm-none-eabi/lib/thumb2\libc.a(lib_a-sbrkr.o)
 .glue_7        0x0800f0e4        0x0 c:/program files (x86)/raisonance/ride/arm-gcc/bin/../lib/gcc/arm-none-eabi/4.3.2/../../../../arm-none-eabi/lib/thumb2\libc.a(lib_a-freer.o)
 *(.glue_7t)
 .glue_7t       0x0800f0e4        0x0 C:\Program Files (x86)\Raisonance\Ride\lib\ARM\crt0_STM32x_HD.o
 .glue_7t       0x0800f0e4        0x0 C:\tien\PROJEKTY\procesory\STM\T108_V100a\stm32f10x_flash.o
 .glue_7t       0x0800f0e4        0x0 C:\tien\PROJEKTY\procesory\STM\T108_V100a\control.o
 .glue_7t       0x0800f0e4        0x0 C:\tien\PROJEKTY\procesory\STM\T108_V100a\sys.o
 .glue_7t       0x0800f0e4        0x0 C:\tien\PROJEKTY\procesory\STM\T108_V100a\stm32f10x_it.o
 .glue_7t       0x0800f0e4        0x0 C:\tien\PROJEKTY\procesory\STM\T108_V100a\RTC.o
 .glue_7t       0x0800f0e4        0x0 C:\tien\PROJEKTY\procesory\STM\T108_V100a\main.o
 .glue_7t       0x0800f0e4        0x0 C:\tien\PROJEKTY\procesory\STM\T108_V100a\lcd.o
 .glue_7t       0x0800f0e4        0x0 C:\tien\PROJEKTY\procesory\STM\T108_V100a\hardware.o
 .glue_7t       0x0800f0e4        0x0 C:\tien\PROJEKTY\procesory\STM\T108_V100a\gui.o
 .glue_7t       0x0800f0e4        0x0 C:\tien\PROJEKTY\procesory\STM\T108_V100a\usb_core.o
 .glue_7t       0x0800f0e4        0x0 C:\tien\PROJEKTY\procesory\STM\T108_V100a\usb_init.o
 .glue_7t       0x0800f0e4        0x0 C:\tien\PROJEKTY\procesory\STM\T108_V100a\usb_int.o
 .glue_7t       0x0800f0e4        0x0 C:\tien\PROJEKTY\procesory\STM\T108_V100a\usb_mem.o
 .glue_7t       0x0800f0e4        0x0 C:\tien\PROJEKTY\procesory\STM\T108_V100a\usb_regs.o
 .glue_7t       0x0800f0e4        0x0 C:\tien\PROJEKTY\procesory\STM\T108_V100a\usb_desc.o
 .glue_7t       0x0800f0e4        0x0 C:\tien\PROJEKTY\procesory\STM\T108_V100a\usb_istr.o
 .glue_7t       0x0800f0e4        0x0 C:\tien\PROJEKTY\procesory\STM\T108_V100a\usb_prop.o
 .glue_7t       0x0800f0e4        0x0 C:\tien\PROJEKTY\procesory\STM\T108_V100a\usb_pwr.o
 .glue_7t       0x0800f0e4        0x0 C:\tien\PROJEKTY\procesory\STM\T108_V100a\usb_endp.o
 .glue_7t       0x0800f0e4        0x0 c:/program files (x86)/raisonance/ride/arm-gcc/bin/../lib/gcc/arm-none-eabi/4.3.2/../../../../arm-none-eabi/lib/thumb2\libc.a(lib_a-memcpy.o)
 .glue_7t       0x0800f0e4        0x0 C:\Program Files (x86)\Raisonance\Ride\Lib\ARM\STM32x_io_putchar_thumb.a(syscalls.o)
 .glue_7t       0x0800f0e4        0x0 C:\Program Files (x86)\Raisonance\Ride\Lib\ARM\STM32x_io_putchar_thumb.a(STM32F10X_IO_putchar.o)
 .glue_7t       0x0800f0e4        0x0 C:\Program Files (x86)\Raisonance\Ride\Lib\ARM\STM32F10x_thumb.lib(stm32f10x_dma.o)
 .glue_7t       0x0800f0e4        0x0 C:\Program Files (x86)\Raisonance\Ride\Lib\ARM\STM32F10x_thumb.lib(stm32f10x_exti.o)
 .glue_7t       0x0800f0e4        0x0 C:\Program Files (x86)\Raisonance\Ride\Lib\ARM\STM32F10x_thumb.lib(stm32f10x_gpio.o)
 .glue_7t       0x0800f0e4        0x0 C:\Program Files (x86)\Raisonance\Ride\Lib\ARM\STM32F10x_thumb.lib(stm32f10x_iwdg.o)
 .glue_7t       0x0800f0e4        0x0 C:\Program Files (x86)\Raisonance\Ride\Lib\ARM\STM32F10x_thumb.lib(stm32f10x_nvic.o)
 .glue_7t       0x0800f0e4        0x0 C:\Program Files (x86)\Raisonance\Ride\Lib\ARM\STM32F10x_thumb.lib(stm32f10x_pwr.o)
 .glue_7t       0x0800f0e4        0x0 C:\Program Files (x86)\Raisonance\Ride\Lib\ARM\STM32F10x_thumb.lib(stm32f10x_rcc.o)
 .glue_7t       0x0800f0e4        0x0 C:\Program Files (x86)\Raisonance\Ride\Lib\ARM\STM32F10x_thumb.lib(stm32f10x_rtc.o)
 .glue_7t       0x0800f0e4        0x0 C:\Program Files (x86)\Raisonance\Ride\Lib\ARM\STM32F10x_thumb.lib(stm32f10x_spi.o)
 .glue_7t       0x0800f0e4        0x0 C:\Program Files (x86)\Raisonance\Ride\Lib\ARM\STM32F10x_thumb.lib(stm32f10x_systick.o)
 .glue_7t       0x0800f0e4        0x0 C:\Program Files (x86)\Raisonance\Ride\Lib\ARM\STM32F10x_thumb.lib(stm32f10x_tim.o)
 .glue_7t       0x0800f0e4        0x0 C:\Program Files (x86)\Raisonance\Ride\Lib\ARM\STM32F10x_thumb.lib(stm32f10x_usart.o)
 .glue_7t       0x0800f0e4        0x0 C:\Program Files (x86)\Raisonance\Ride\Lib\ARM\STM32F10x_thumb.lib(stm32f10x_wwdg.o)
 .glue_7t       0x0800f0e4        0x0 C:\Program Files (x86)\Raisonance\Ride\Lib\ARM\STM32F10x_thumb.lib(stm32f10x_adc.o)
 .glue_7t       0x0800f0e4        0x0 C:\Program Files (x86)\Raisonance\Ride\Lib\ARM\STM32F10x_thumb.lib(stm32f10x_bkp.o)
 .glue_7t       0x0800f0e4        0x0 C:\Program Files (x86)\Raisonance\Ride\Lib\ARM\STM32F10x_thumb.lib(cortexm3_macro.o)
 .glue_7t       0x0800f0e4        0x0 c:/program files (x86)/raisonance/ride/arm-gcc/bin/../lib/gcc/arm-none-eabi/4.3.2/../../../../arm-none-eabi/lib/thumb2\libc.a(lib_a-abort.o)
 .glue_7t       0x0800f0e4        0x0 c:/program files (x86)/raisonance/ride/arm-gcc/bin/../lib/gcc/arm-none-eabi/4.3.2/../../../../arm-none-eabi/lib/thumb2\libc.a(lib_a-errno.o)
 .glue_7t       0x0800f0e4        0x0 c:/program files (x86)/raisonance/ride/arm-gcc/bin/../lib/gcc/arm-none-eabi/4.3.2/../../../../arm-none-eabi/lib/thumb2\libc.a(lib_a-impure.o)
 .glue_7t       0x0800f0e4        0x0 c:/program files (x86)/raisonance/ride/arm-gcc/bin/../lib/gcc/arm-none-eabi/4.3.2/../../../../arm-none-eabi/lib/thumb2\libc.a(lib_a-signal.o)
 .glue_7t       0x0800f0e4        0x0 c:/program files (x86)/raisonance/ride/arm-gcc/bin/../lib/gcc/arm-none-eabi/4.3.2/../../../../arm-none-eabi/lib/thumb2\libc.a(lib_a-signalr.o)
 .glue_7t       0x0800f0e4        0x0 c:/program files (x86)/raisonance/ride/arm-gcc/bin/../lib/gcc/arm-none-eabi/4.3.2/../../../../arm-none-eabi/lib/thumb2\libc.a(lib_a-mallocr.o)
 .glue_7t       0x0800f0e4        0x0 c:/program files (x86)/raisonance/ride/arm-gcc/bin/../lib/gcc/arm-none-eabi/4.3.2/../../../../arm-none-eabi/lib/thumb2\libc.a(lib_a-mlock.o)
 .glue_7t       0x0800f0e4        0x0 c:/program files (x86)/raisonance/ride/arm-gcc/bin/../lib/gcc/arm-none-eabi/4.3.2/../../../../arm-none-eabi/lib/thumb2\libc.a(lib_a-reent.o)
 .glue_7t       0x0800f0e4        0x0 c:/program files (x86)/raisonance/ride/arm-gcc/bin/../lib/gcc/arm-none-eabi/4.3.2/../../../../arm-none-eabi/lib/thumb2\libc.a(lib_a-sbrkr.o)
 .glue_7t       0x0800f0e4        0x0 c:/program files (x86)/raisonance/ride/arm-gcc/bin/../lib/gcc/arm-none-eabi/4.3.2/../../../../arm-none-eabi/lib/thumb2\libc.a(lib_a-freer.o)
                0x0800f0e4                . = ALIGN (0x4)
                0x0800f0e4                _etext = .
                0x0800f0e4                _sidata = _etext

.vfp11_veneer   0x20000000        0x0
 .vfp11_veneer  0x20000000        0x0 C:\Program Files (x86)\Raisonance\Ride\lib\ARM\crt0_STM32x_HD.o
 .vfp11_veneer  0x20000000        0x0 C:\tien\PROJEKTY\procesory\STM\T108_V100a\stm32f10x_flash.o
 .vfp11_veneer  0x20000000        0x0 C:\tien\PROJEKTY\procesory\STM\T108_V100a\control.o
 .vfp11_veneer  0x20000000        0x0 C:\tien\PROJEKTY\procesory\STM\T108_V100a\sys.o
 .vfp11_veneer  0x20000000        0x0 C:\tien\PROJEKTY\procesory\STM\T108_V100a\stm32f10x_it.o
 .vfp11_veneer  0x20000000        0x0 C:\tien\PROJEKTY\procesory\STM\T108_V100a\RTC.o
 .vfp11_veneer  0x20000000        0x0 C:\tien\PROJEKTY\procesory\STM\T108_V100a\main.o
 .vfp11_veneer  0x20000000        0x0 C:\tien\PROJEKTY\procesory\STM\T108_V100a\lcd.o
 .vfp11_veneer  0x20000000        0x0 C:\tien\PROJEKTY\procesory\STM\T108_V100a\hardware.o
 .vfp11_veneer  0x20000000        0x0 C:\tien\PROJEKTY\procesory\STM\T108_V100a\gui.o
 .vfp11_veneer  0x20000000        0x0 C:\tien\PROJEKTY\procesory\STM\T108_V100a\usb_core.o
 .vfp11_veneer  0x20000000        0x0 C:\tien\PROJEKTY\procesory\STM\T108_V100a\usb_init.o
 .vfp11_veneer  0x20000000        0x0 C:\tien\PROJEKTY\procesory\STM\T108_V100a\usb_int.o
 .vfp11_veneer  0x20000000        0x0 C:\tien\PROJEKTY\procesory\STM\T108_V100a\usb_mem.o
 .vfp11_veneer  0x20000000        0x0 C:\tien\PROJEKTY\procesory\STM\T108_V100a\usb_regs.o
 .vfp11_veneer  0x20000000        0x0 C:\tien\PROJEKTY\procesory\STM\T108_V100a\usb_desc.o
 .vfp11_veneer  0x20000000        0x0 C:\tien\PROJEKTY\procesory\STM\T108_V100a\usb_istr.o
 .vfp11_veneer  0x20000000        0x0 C:\tien\PROJEKTY\procesory\STM\T108_V100a\usb_prop.o
 .vfp11_veneer  0x20000000        0x0 C:\tien\PROJEKTY\procesory\STM\T108_V100a\usb_pwr.o
 .vfp11_veneer  0x20000000        0x0 C:\tien\PROJEKTY\procesory\STM\T108_V100a\usb_endp.o
 .vfp11_veneer  0x20000000        0x0 C:\Program Files (x86)\Raisonance\Ride\Lib\ARM\STM32x_io_putchar_thumb.a(syscalls.o)
 .vfp11_veneer  0x20000000        0x0 C:\Program Files (x86)\Raisonance\Ride\Lib\ARM\STM32x_io_putchar_thumb.a(STM32F10X_IO_putchar.o)
 .vfp11_veneer  0x20000000        0x0 C:\Program Files (x86)\Raisonance\Ride\Lib\ARM\STM32F10x_thumb.lib(stm32f10x_dma.o)
 .vfp11_veneer  0x20000000        0x0 C:\Program Files (x86)\Raisonance\Ride\Lib\ARM\STM32F10x_thumb.lib(stm32f10x_exti.o)
 .vfp11_veneer  0x20000000        0x0 C:\Program Files (x86)\Raisonance\Ride\Lib\ARM\STM32F10x_thumb.lib(stm32f10x_gpio.o)
 .vfp11_veneer  0x20000000        0x0 C:\Program Files (x86)\Raisonance\Ride\Lib\ARM\STM32F10x_thumb.lib(stm32f10x_iwdg.o)
 .vfp11_veneer  0x20000000        0x0 C:\Program Files (x86)\Raisonance\Ride\Lib\ARM\STM32F10x_thumb.lib(stm32f10x_nvic.o)
 .vfp11_veneer  0x20000000        0x0 C:\Program Files (x86)\Raisonance\Ride\Lib\ARM\STM32F10x_thumb.lib(stm32f10x_pwr.o)
 .vfp11_veneer  0x20000000        0x0 C:\Program Files (x86)\Raisonance\Ride\Lib\ARM\STM32F10x_thumb.lib(stm32f10x_rcc.o)
 .vfp11_veneer  0x20000000        0x0 C:\Program Files (x86)\Raisonance\Ride\Lib\ARM\STM32F10x_thumb.lib(stm32f10x_rtc.o)
 .vfp11_veneer  0x20000000        0x0 C:\Program Files (x86)\Raisonance\Ride\Lib\ARM\STM32F10x_thumb.lib(stm32f10x_spi.o)
 .vfp11_veneer  0x20000000        0x0 C:\Program Files (x86)\Raisonance\Ride\Lib\ARM\STM32F10x_thumb.lib(stm32f10x_systick.o)
 .vfp11_veneer  0x20000000        0x0 C:\Program Files (x86)\Raisonance\Ride\Lib\ARM\STM32F10x_thumb.lib(stm32f10x_tim.o)
 .vfp11_veneer  0x20000000        0x0 C:\Program Files (x86)\Raisonance\Ride\Lib\ARM\STM32F10x_thumb.lib(stm32f10x_usart.o)
 .vfp11_veneer  0x20000000        0x0 C:\Program Files (x86)\Raisonance\Ride\Lib\ARM\STM32F10x_thumb.lib(stm32f10x_wwdg.o)
 .vfp11_veneer  0x20000000        0x0 C:\Program Files (x86)\Raisonance\Ride\Lib\ARM\STM32F10x_thumb.lib(stm32f10x_adc.o)
 .vfp11_veneer  0x20000000        0x0 C:\Program Files (x86)\Raisonance\Ride\Lib\ARM\STM32F10x_thumb.lib(stm32f10x_bkp.o)
 .vfp11_veneer  0x20000000        0x0 C:\Program Files (x86)\Raisonance\Ride\Lib\ARM\STM32F10x_thumb.lib(cortexm3_macro.o)
 .vfp11_veneer  0x20000000        0x0 c:/program files (x86)/raisonance/ride/arm-gcc/bin/../lib/gcc/arm-none-eabi/4.3.2/../../../../arm-none-eabi/lib/thumb2\libc.a(lib_a-abort.o)
 .vfp11_veneer  0x20000000        0x0 c:/program files (x86)/raisonance/ride/arm-gcc/bin/../lib/gcc/arm-none-eabi/4.3.2/../../../../arm-none-eabi/lib/thumb2\libc.a(lib_a-errno.o)
 .vfp11_veneer  0x20000000        0x0 c:/program files (x86)/raisonance/ride/arm-gcc/bin/../lib/gcc/arm-none-eabi/4.3.2/../../../../arm-none-eabi/lib/thumb2\libc.a(lib_a-impure.o)
 .vfp11_veneer  0x20000000        0x0 c:/program files (x86)/raisonance/ride/arm-gcc/bin/../lib/gcc/arm-none-eabi/4.3.2/../../../../arm-none-eabi/lib/thumb2\libc.a(lib_a-signal.o)
 .vfp11_veneer  0x20000000        0x0 c:/program files (x86)/raisonance/ride/arm-gcc/bin/../lib/gcc/arm-none-eabi/4.3.2/../../../../arm-none-eabi/lib/thumb2\libc.a(lib_a-signalr.o)
 .vfp11_veneer  0x20000000        0x0 c:/program files (x86)/raisonance/ride/arm-gcc/bin/../lib/gcc/arm-none-eabi/4.3.2/../../../../arm-none-eabi/lib/thumb2\libc.a(lib_a-mallocr.o)
 .vfp11_veneer  0x20000000        0x0 c:/program files (x86)/raisonance/ride/arm-gcc/bin/../lib/gcc/arm-none-eabi/4.3.2/../../../../arm-none-eabi/lib/thumb2\libc.a(lib_a-mlock.o)
 .vfp11_veneer  0x20000000        0x0 c:/program files (x86)/raisonance/ride/arm-gcc/bin/../lib/gcc/arm-none-eabi/4.3.2/../../../../arm-none-eabi/lib/thumb2\libc.a(lib_a-reent.o)
 .vfp11_veneer  0x20000000        0x0 c:/program files (x86)/raisonance/ride/arm-gcc/bin/../lib/gcc/arm-none-eabi/4.3.2/../../../../arm-none-eabi/lib/thumb2\libc.a(lib_a-sbrkr.o)
 .vfp11_veneer  0x20000000        0x0 c:/program files (x86)/raisonance/ride/arm-gcc/bin/../lib/gcc/arm-none-eabi/4.3.2/../../../../arm-none-eabi/lib/thumb2\libc.a(lib_a-freer.o)

.janus_2cc_veneer
                0x20000000        0x0
 .janus_2cc_veneer
                0x20000000        0x0 C:\Program Files (x86)\Raisonance\Ride\lib\ARM\crt0_STM32x_HD.o
 .janus_2cc_veneer
                0x20000000        0x0 C:\tien\PROJEKTY\procesory\STM\T108_V100a\stm32f10x_flash.o
 .janus_2cc_veneer
                0x20000000        0x0 C:\tien\PROJEKTY\procesory\STM\T108_V100a\control.o
 .janus_2cc_veneer
                0x20000000        0x0 C:\tien\PROJEKTY\procesory\STM\T108_V100a\sys.o
 .janus_2cc_veneer
                0x20000000        0x0 C:\tien\PROJEKTY\procesory\STM\T108_V100a\stm32f10x_it.o
 .janus_2cc_veneer
                0x20000000        0x0 C:\tien\PROJEKTY\procesory\STM\T108_V100a\RTC.o
 .janus_2cc_veneer
                0x20000000        0x0 C:\tien\PROJEKTY\procesory\STM\T108_V100a\main.o
 .janus_2cc_veneer
                0x20000000        0x0 C:\tien\PROJEKTY\procesory\STM\T108_V100a\lcd.o
 .janus_2cc_veneer
                0x20000000        0x0 C:\tien\PROJEKTY\procesory\STM\T108_V100a\hardware.o
 .janus_2cc_veneer
                0x20000000        0x0 C:\tien\PROJEKTY\procesory\STM\T108_V100a\gui.o
 .janus_2cc_veneer
                0x20000000        0x0 C:\tien\PROJEKTY\procesory\STM\T108_V100a\usb_core.o
 .janus_2cc_veneer
                0x20000000        0x0 C:\tien\PROJEKTY\procesory\STM\T108_V100a\usb_init.o
 .janus_2cc_veneer
                0x20000000        0x0 C:\tien\PROJEKTY\procesory\STM\T108_V100a\usb_int.o
 .janus_2cc_veneer
                0x20000000        0x0 C:\tien\PROJEKTY\procesory\STM\T108_V100a\usb_mem.o
 .janus_2cc_veneer
                0x20000000        0x0 C:\tien\PROJEKTY\procesory\STM\T108_V100a\usb_regs.o
 .janus_2cc_veneer
                0x20000000        0x0 C:\tien\PROJEKTY\procesory\STM\T108_V100a\usb_desc.o
 .janus_2cc_veneer
                0x20000000        0x0 C:\tien\PROJEKTY\procesory\STM\T108_V100a\usb_istr.o
 .janus_2cc_veneer
                0x20000000        0x0 C:\tien\PROJEKTY\procesory\STM\T108_V100a\usb_prop.o
 .janus_2cc_veneer
                0x20000000        0x0 C:\tien\PROJEKTY\procesory\STM\T108_V100a\usb_pwr.o
 .janus_2cc_veneer
                0x20000000        0x0 C:\tien\PROJEKTY\procesory\STM\T108_V100a\usb_endp.o
 .janus_2cc_veneer
                0x20000000        0x0 C:\Program Files (x86)\Raisonance\Ride\Lib\ARM\STM32x_io_putchar_thumb.a(syscalls.o)
 .janus_2cc_veneer
                0x20000000        0x0 C:\Program Files (x86)\Raisonance\Ride\Lib\ARM\STM32x_io_putchar_thumb.a(STM32F10X_IO_putchar.o)
 .janus_2cc_veneer
                0x20000000        0x0 C:\Program Files (x86)\Raisonance\Ride\Lib\ARM\STM32F10x_thumb.lib(stm32f10x_dma.o)
 .janus_2cc_veneer
                0x20000000        0x0 C:\Program Files (x86)\Raisonance\Ride\Lib\ARM\STM32F10x_thumb.lib(stm32f10x_exti.o)
 .janus_2cc_veneer
                0x20000000        0x0 C:\Program Files (x86)\Raisonance\Ride\Lib\ARM\STM32F10x_thumb.lib(stm32f10x_gpio.o)
 .janus_2cc_veneer
                0x20000000        0x0 C:\Program Files (x86)\Raisonance\Ride\Lib\ARM\STM32F10x_thumb.lib(stm32f10x_iwdg.o)
 .janus_2cc_veneer
                0x20000000        0x0 C:\Program Files (x86)\Raisonance\Ride\Lib\ARM\STM32F10x_thumb.lib(stm32f10x_nvic.o)
 .janus_2cc_veneer
                0x20000000        0x0 C:\Program Files (x86)\Raisonance\Ride\Lib\ARM\STM32F10x_thumb.lib(stm32f10x_pwr.o)
 .janus_2cc_veneer
                0x20000000        0x0 C:\Program Files (x86)\Raisonance\Ride\Lib\ARM\STM32F10x_thumb.lib(stm32f10x_rcc.o)
 .janus_2cc_veneer
                0x20000000        0x0 C:\Program Files (x86)\Raisonance\Ride\Lib\ARM\STM32F10x_thumb.lib(stm32f10x_rtc.o)
 .janus_2cc_veneer
                0x20000000        0x0 C:\Program Files (x86)\Raisonance\Ride\Lib\ARM\STM32F10x_thumb.lib(stm32f10x_spi.o)
 .janus_2cc_veneer
                0x20000000        0x0 C:\Program Files (x86)\Raisonance\Ride\Lib\ARM\STM32F10x_thumb.lib(stm32f10x_systick.o)
 .janus_2cc_veneer
                0x20000000        0x0 C:\Program Files (x86)\Raisonance\Ride\Lib\ARM\STM32F10x_thumb.lib(stm32f10x_tim.o)
 .janus_2cc_veneer
                0x20000000        0x0 C:\Program Files (x86)\Raisonance\Ride\Lib\ARM\STM32F10x_thumb.lib(stm32f10x_usart.o)
 .janus_2cc_veneer
                0x20000000        0x0 C:\Program Files (x86)\Raisonance\Ride\Lib\ARM\STM32F10x_thumb.lib(stm32f10x_wwdg.o)
 .janus_2cc_veneer
                0x20000000        0x0 C:\Program Files (x86)\Raisonance\Ride\Lib\ARM\STM32F10x_thumb.lib(stm32f10x_adc.o)
 .janus_2cc_veneer
                0x20000000        0x0 C:\Program Files (x86)\Raisonance\Ride\Lib\ARM\STM32F10x_thumb.lib(stm32f10x_bkp.o)
 .janus_2cc_veneer
                0x20000000        0x0 C:\Program Files (x86)\Raisonance\Ride\Lib\ARM\STM32F10x_thumb.lib(cortexm3_macro.o)
 .janus_2cc_veneer
                0x20000000        0x0 c:/program files (x86)/raisonance/ride/arm-gcc/bin/../lib/gcc/arm-none-eabi/4.3.2/../../../../arm-none-eabi/lib/thumb2\libc.a(lib_a-abort.o)
 .janus_2cc_veneer
                0x20000000        0x0 c:/program files (x86)/raisonance/ride/arm-gcc/bin/../lib/gcc/arm-none-eabi/4.3.2/../../../../arm-none-eabi/lib/thumb2\libc.a(lib_a-errno.o)
 .janus_2cc_veneer
                0x20000000        0x0 c:/program files (x86)/raisonance/ride/arm-gcc/bin/../lib/gcc/arm-none-eabi/4.3.2/../../../../arm-none-eabi/lib/thumb2\libc.a(lib_a-impure.o)
 .janus_2cc_veneer
                0x20000000        0x0 c:/program files (x86)/raisonance/ride/arm-gcc/bin/../lib/gcc/arm-none-eabi/4.3.2/../../../../arm-none-eabi/lib/thumb2\libc.a(lib_a-signal.o)
 .janus_2cc_veneer
                0x20000000        0x0 c:/program files (x86)/raisonance/ride/arm-gcc/bin/../lib/gcc/arm-none-eabi/4.3.2/../../../../arm-none-eabi/lib/thumb2\libc.a(lib_a-signalr.o)
 .janus_2cc_veneer
                0x20000000        0x0 c:/program files (x86)/raisonance/ride/arm-gcc/bin/../lib/gcc/arm-none-eabi/4.3.2/../../../../arm-none-eabi/lib/thumb2\libc.a(lib_a-mallocr.o)
 .janus_2cc_veneer
                0x20000000        0x0 c:/program files (x86)/raisonance/ride/arm-gcc/bin/../lib/gcc/arm-none-eabi/4.3.2/../../../../arm-none-eabi/lib/thumb2\libc.a(lib_a-mlock.o)
 .janus_2cc_veneer
                0x20000000        0x0 c:/program files (x86)/raisonance/ride/arm-gcc/bin/../lib/gcc/arm-none-eabi/4.3.2/../../../../arm-none-eabi/lib/thumb2\libc.a(lib_a-reent.o)
 .janus_2cc_veneer
                0x20000000        0x0 c:/program files (x86)/raisonance/ride/arm-gcc/bin/../lib/gcc/arm-none-eabi/4.3.2/../../../../arm-none-eabi/lib/thumb2\libc.a(lib_a-sbrkr.o)
 .janus_2cc_veneer
                0x20000000        0x0 c:/program files (x86)/raisonance/ride/arm-gcc/bin/../lib/gcc/arm-none-eabi/4.3.2/../../../../arm-none-eabi/lib/thumb2\libc.a(lib_a-freer.o)

.v4_bx          0x20000000        0x0
 .v4_bx         0x20000000        0x0 C:\Program Files (x86)\Raisonance\Ride\lib\ARM\crt0_STM32x_HD.o
 .v4_bx         0x20000000        0x0 C:\tien\PROJEKTY\procesory\STM\T108_V100a\stm32f10x_flash.o
 .v4_bx         0x20000000        0x0 C:\tien\PROJEKTY\procesory\STM\T108_V100a\control.o
 .v4_bx         0x20000000        0x0 C:\tien\PROJEKTY\procesory\STM\T108_V100a\sys.o
 .v4_bx         0x20000000        0x0 C:\tien\PROJEKTY\procesory\STM\T108_V100a\stm32f10x_it.o
 .v4_bx         0x20000000        0x0 C:\tien\PROJEKTY\procesory\STM\T108_V100a\RTC.o
 .v4_bx         0x20000000        0x0 C:\tien\PROJEKTY\procesory\STM\T108_V100a\main.o
 .v4_bx         0x20000000        0x0 C:\tien\PROJEKTY\procesory\STM\T108_V100a\lcd.o
 .v4_bx         0x20000000        0x0 C:\tien\PROJEKTY\procesory\STM\T108_V100a\hardware.o
 .v4_bx         0x20000000        0x0 C:\tien\PROJEKTY\procesory\STM\T108_V100a\gui.o
 .v4_bx         0x20000000        0x0 C:\tien\PROJEKTY\procesory\STM\T108_V100a\usb_core.o
 .v4_bx         0x20000000        0x0 C:\tien\PROJEKTY\procesory\STM\T108_V100a\usb_init.o
 .v4_bx         0x20000000        0x0 C:\tien\PROJEKTY\procesory\STM\T108_V100a\usb_int.o
 .v4_bx         0x20000000        0x0 C:\tien\PROJEKTY\procesory\STM\T108_V100a\usb_mem.o
 .v4_bx         0x20000000        0x0 C:\tien\PROJEKTY\procesory\STM\T108_V100a\usb_regs.o
 .v4_bx         0x20000000        0x0 C:\tien\PROJEKTY\procesory\STM\T108_V100a\usb_desc.o
 .v4_bx         0x20000000        0x0 C:\tien\PROJEKTY\procesory\STM\T108_V100a\usb_istr.o
 .v4_bx         0x20000000        0x0 C:\tien\PROJEKTY\procesory\STM\T108_V100a\usb_prop.o
 .v4_bx         0x20000000        0x0 C:\tien\PROJEKTY\procesory\STM\T108_V100a\usb_pwr.o
 .v4_bx         0x20000000        0x0 C:\tien\PROJEKTY\procesory\STM\T108_V100a\usb_endp.o
 .v4_bx         0x20000000        0x0 C:\Program Files (x86)\Raisonance\Ride\Lib\ARM\STM32x_io_putchar_thumb.a(syscalls.o)
 .v4_bx         0x20000000        0x0 C:\Program Files (x86)\Raisonance\Ride\Lib\ARM\STM32x_io_putchar_thumb.a(STM32F10X_IO_putchar.o)
 .v4_bx         0x20000000        0x0 C:\Program Files (x86)\Raisonance\Ride\Lib\ARM\STM32F10x_thumb.lib(stm32f10x_dma.o)
 .v4_bx         0x20000000        0x0 C:\Program Files (x86)\Raisonance\Ride\Lib\ARM\STM32F10x_thumb.lib(stm32f10x_exti.o)
 .v4_bx         0x20000000        0x0 C:\Program Files (x86)\Raisonance\Ride\Lib\ARM\STM32F10x_thumb.lib(stm32f10x_gpio.o)
 .v4_bx         0x20000000        0x0 C:\Program Files (x86)\Raisonance\Ride\Lib\ARM\STM32F10x_thumb.lib(stm32f10x_iwdg.o)
 .v4_bx         0x20000000        0x0 C:\Program Files (x86)\Raisonance\Ride\Lib\ARM\STM32F10x_thumb.lib(stm32f10x_nvic.o)
 .v4_bx         0x20000000        0x0 C:\Program Files (x86)\Raisonance\Ride\Lib\ARM\STM32F10x_thumb.lib(stm32f10x_pwr.o)
 .v4_bx         0x20000000        0x0 C:\Program Files (x86)\Raisonance\Ride\Lib\ARM\STM32F10x_thumb.lib(stm32f10x_rcc.o)
 .v4_bx         0x20000000        0x0 C:\Program Files (x86)\Raisonance\Ride\Lib\ARM\STM32F10x_thumb.lib(stm32f10x_rtc.o)
 .v4_bx         0x20000000        0x0 C:\Program Files (x86)\Raisonance\Ride\Lib\ARM\STM32F10x_thumb.lib(stm32f10x_spi.o)
 .v4_bx         0x20000000        0x0 C:\Program Files (x86)\Raisonance\Ride\Lib\ARM\STM32F10x_thumb.lib(stm32f10x_systick.o)
 .v4_bx         0x20000000        0x0 C:\Program Files (x86)\Raisonance\Ride\Lib\ARM\STM32F10x_thumb.lib(stm32f10x_tim.o)
 .v4_bx         0x20000000        0x0 C:\Program Files (x86)\Raisonance\Ride\Lib\ARM\STM32F10x_thumb.lib(stm32f10x_usart.o)
 .v4_bx         0x20000000        0x0 C:\Program Files (x86)\Raisonance\Ride\Lib\ARM\STM32F10x_thumb.lib(stm32f10x_wwdg.o)
 .v4_bx         0x20000000        0x0 C:\Program Files (x86)\Raisonance\Ride\Lib\ARM\STM32F10x_thumb.lib(stm32f10x_adc.o)
 .v4_bx         0x20000000        0x0 C:\Program Files (x86)\Raisonance\Ride\Lib\ARM\STM32F10x_thumb.lib(stm32f10x_bkp.o)
 .v4_bx         0x20000000        0x0 C:\Program Files (x86)\Raisonance\Ride\Lib\ARM\STM32F10x_thumb.lib(cortexm3_macro.o)
 .v4_bx         0x20000000        0x0 c:/program files (x86)/raisonance/ride/arm-gcc/bin/../lib/gcc/arm-none-eabi/4.3.2/../../../../arm-none-eabi/lib/thumb2\libc.a(lib_a-abort.o)
 .v4_bx         0x20000000        0x0 c:/program files (x86)/raisonance/ride/arm-gcc/bin/../lib/gcc/arm-none-eabi/4.3.2/../../../../arm-none-eabi/lib/thumb2\libc.a(lib_a-errno.o)
 .v4_bx         0x20000000        0x0 c:/program files (x86)/raisonance/ride/arm-gcc/bin/../lib/gcc/arm-none-eabi/4.3.2/../../../../arm-none-eabi/lib/thumb2\libc.a(lib_a-impure.o)
 .v4_bx         0x20000000        0x0 c:/program files (x86)/raisonance/ride/arm-gcc/bin/../lib/gcc/arm-none-eabi/4.3.2/../../../../arm-none-eabi/lib/thumb2\libc.a(lib_a-signal.o)
 .v4_bx         0x20000000        0x0 c:/program files (x86)/raisonance/ride/arm-gcc/bin/../lib/gcc/arm-none-eabi/4.3.2/../../../../arm-none-eabi/lib/thumb2\libc.a(lib_a-signalr.o)
 .v4_bx         0x20000000        0x0 c:/program files (x86)/raisonance/ride/arm-gcc/bin/../lib/gcc/arm-none-eabi/4.3.2/../../../../arm-none-eabi/lib/thumb2\libc.a(lib_a-mallocr.o)
 .v4_bx         0x20000000        0x0 c:/program files (x86)/raisonance/ride/arm-gcc/bin/../lib/gcc/arm-none-eabi/4.3.2/../../../../arm-none-eabi/lib/thumb2\libc.a(lib_a-mlock.o)
 .v4_bx         0x20000000        0x0 c:/program files (x86)/raisonance/ride/arm-gcc/bin/../lib/gcc/arm-none-eabi/4.3.2/../../../../arm-none-eabi/lib/thumb2\libc.a(lib_a-reent.o)
 .v4_bx         0x20000000        0x0 c:/program files (x86)/raisonance/ride/arm-gcc/bin/../lib/gcc/arm-none-eabi/4.3.2/../../../../arm-none-eabi/lib/thumb2\libc.a(lib_a-sbrkr.o)
 .v4_bx         0x20000000        0x0 c:/program files (x86)/raisonance/ride/arm-gcc/bin/../lib/gcc/arm-none-eabi/4.3.2/../../../../arm-none-eabi/lib/thumb2\libc.a(lib_a-freer.o)

.flashpatch     0x00000000        0x0
                0x00000000                . = ALIGN (0x4)
 *(.flashpatch)
                0x00000000                . = ALIGN (0x4)

.endflash       0x00000000        0x0
                0x00000000                . = ALIGN (0x4)
 *(.endflash)
                0x00000000                . = ALIGN (0x4)

.data           0x20000000      0xf7c load address 0x0800f0e4
                0x20000000                . = ALIGN (0x4)
                0x20000000                _sdata = .
 *(.data)
 .data          0x20000000      0x690 C:\tien\PROJEKTY\procesory\STM\T108_V100a\control.o
                0x2000057c                Cl_Alert_Back
                0x20000684                Pre_Worning_Cl
                0x20000534                Opening_Relay
                0x200005d0                LearnStandby
                0x2000060c                Wg_Power_On_Wait
                0x2000063c                Wg_Stop_Release
                0x20000648                Gate_Opened_Time_Wait
                0x20000528                Manual_Control_Enable
                0x20000600                LearnClosed
                0x20000004                Control_Variables
                0x200005c4                Waiting_4_Learn
                0x200005f4                LearnClosing
                0x20000000                SLOW_ENABLE_FLAG_1
                0x20000618                Wg_Power_On_Closing
                0x200005ac                Op_Alert_Stop
                0x2000066c                Opening_Start_MS
                0x200005a0                Closing_Start
                0x20000678                Pre_Worning_Op
                0x20000570                Op_Alert_Back
                0x200005dc                LearnOpening
                0x20000654                Inverters_Setting
                0x20000624                Wg_Opening
                0x20000594                Opening_Start
                0x20000001                SLOW_ENABLE_FLAG_2
                0x20000564                Closing_Al_Relay
                0x20000558                Opening_Al_Relay
                0x20000630                Wg_Closing
                0x20000540                Closing_Relay
                0x20000588                Learning_Relay
                0x20000660                Closing_Start_MS
                0x200005b8                Cl_Alert_Stop
                0x200005e8                LearnOpened
                0x2000054c                Power_On_Closing_Relay
 .data          0x20000690        0x1 C:\tien\PROJEKTY\procesory\STM\T108_V100a\sys.o
                0x20000690                INV_PROGRAMMING
 *fill*         0x20000691        0x3 00
 .data          0x20000694        0xc C:\tien\PROJEKTY\procesory\STM\T108_V100a\RTC.o
                0x2000069c                RTC_Text
                0x20000698                RTC1
                0x20000694                RTC_Text1
 .data          0x200006a0        0x4 C:\tien\PROJEKTY\procesory\STM\T108_V100a\lcd.o
                0x200006a0                Start_Text
 .data          0x200006a4      0x7f8 C:\tien\PROJEKTY\procesory\STM\T108_V100a\gui.o
                0x200006a4                Polish_Tab
                0x20000aa0                English_Tab
 .data          0x20000e9c        0xc C:\tien\PROJEKTY\procesory\STM\T108_V100a\usb_desc.o
                0x20000e9c                CustomHID_StringSerial
 .data          0x20000ea8       0x38 C:\tien\PROJEKTY\procesory\STM\T108_V100a\usb_istr.o
                0x20000ec4                pEpInt_OUT
                0x20000ea8                pEpInt_IN
 .data          0x20000ee0       0x98 C:\tien\PROJEKTY\procesory\STM\T108_V100a\usb_prop.o
                0x20000f18                Device_Descriptor
                0x20000f20                Device_Property
                0x20000ef0                String_Descriptor
                0x20000ee8                CustomHID_Report_Descriptor
                0x20000f54                User_Standard_Requests
                0x20000ee0                CustomHID_Hid_Descriptor
                0x20000f10                Config_Descriptor
                0x20000f50                Device_Table
 .data          0x20000f78        0x1 C:\tien\PROJEKTY\procesory\STM\T108_V100a\usb_pwr.o
                0x20000f78                fSuspendEnabled
 *(.data.*)
 *(.RAMtext)
                0x20000f7c                . = ALIGN (0x4)
 *fill*         0x20000f79        0x3 00
                0x20000f7c                _edata = .

.bss            0x20000f7c      0xac4 load address 0x08010060
                0x20000f7c                . = ALIGN (0x4)
                0x20000f7c                _sbss = .
 *(.bss)
 .bss           0x20000f7c       0x42 C:\tien\PROJEKTY\procesory\STM\T108_V100a\control.o
                0x20000f89                PHOTO_PRIORITY_ENABLE
                0x20000fba                RS485_Comm_Err_Counter1
                0x20000f82                OPEN_ON_LEVEL_18
                0x20000f80                OPEN_ON_LEVEL_16
                0x20000f9e                F2_Current_Counter
                0x20000f86                ALERTS_FLAG
                0x20000f87                BRAKING_FLAG_1
                0x20000f9c                OPENED_WAIT
                0x20000fb1                RECEIVER_DISABLED
                0x20000f7c                Machine_State
                0x20000fa4                Enable_Pulse_Relays_Off
                0x20000fb6                RS485_Inverter_Error
                0x20000f7e                OPEN_ON_LEVEL_14
                0x20000f81                OPEN_ON_LEVEL_17
                0x20000f88                BRAKING_FLAG_2
                0x20000fbc                Motors_Enable
                0x20000f84                OPEN_ON_LEVEL_20
                0x20000f9d                F1_Current_Counter
                0x20000fb2                RS485_TRANSMIT_ENABLE
                0x20000f7f                OPEN_ON_LEVEL_15
                0x20000f8a                LEARN_WAY_FLAG
                0x20000fa0                CLOSE_GATE_FLAG
                0x20000fb3                RS485_PACKET_SENT
                0x20000fb4                OPENING_MARKER
                0x20000f85                WG_TIMER_FLAG
                0x20000f83                OPEN_ON_LEVEL_19
                0x20000faa                Enable_Pulse_Oc_Outs_Off
                0x20000f9f                READY_4_CLOSING
                0x20000fb8                RS485_Counter
                0x20000fbb                RS485_Comm_Err_Counter2
                0x20000f7d                PRE_WORNING_FLAG
                0x20000fb5                RS485_Inverter_Counter
                0x20000fb0                ENCODER_ENABLE_FLAG
 *fill*         0x20000fbe        0x2 00
 .bss           0x20000fc0       0x18 C:\tien\PROJEKTY\procesory\STM\T108_V100a\sys.o
                0x20000fd6                Keyboard_Inputs_Select_Counter1
                0x20000fcc                Inputs_Level
                0x20000fd0                Inputs_Level_Test
                0x20000fca                Keyboards_Level
                0x20000fd5                ADC_MEASURED
                0x20000fd4                Keyboard_Inputs_Select_Counter
 .bss           0x20000fd8        0x6 C:\tien\PROJEKTY\procesory\STM\T108_V100a\stm32f10x_it.o
                0x20000fd9                Usart1_Preamble_Detect
                0x20000fdc                Crc
                0x20000fd8                bytes_received
                0x20000fda                Usart1_Packet_Counter
 *fill*         0x20000fde        0x2 00
 .bss           0x20000fe0        0x8 C:\tien\PROJEKTY\procesory\STM\T108_V100a\RTC.o
                0x20000fe0                LSE_FAILED_FLAG
                0x20000fe4                LSE_Timeout
 .bss           0x20000fe8       0x58 C:\tien\PROJEKTY\procesory\STM\T108_V100a\gui.o
                0x2000103c                NbrOfPage
                0x20000ff9                Menu_Keys
                0x2000100c                Edit_Parameter_Counter
                0x20001035                Lcd_Write_Strobe
                0x20001034                Enable_Lcd_Write
                0x20001038                Lock_Counter
 .bss           0x20001040        0x1 C:\tien\PROJEKTY\procesory\STM\T108_V100a\usb_core.o
                0x20001040                Data_Mul_MaxPacketSize
 .bss           0x20001041        0x1 C:\tien\PROJEKTY\procesory\STM\T108_V100a\usb_istr.o
                0x20001041                bIntPackSOF
 *fill*         0x20001042        0x2 00
 .bss           0x20001044        0x4 C:\tien\PROJEKTY\procesory\STM\T108_V100a\usb_pwr.o
                0x20001044                bDeviceState
 .bss           0x20001048        0x1 C:\Program Files (x86)\Raisonance\Ride\Lib\ARM\STM32x_io_putchar_thumb.a(STM32F10X_IO_putchar.o)
                0x20001048                __io_init_done
 *(COMMON)
 *fill*         0x20001049        0x3 00
 COMMON         0x2000104c       0x86 C:\tien\PROJEKTY\procesory\STM\T108_V100a\control.o
                0x2000104c                Angle2_Memory
                0x2000104e                RS485_Packet_Counter
                0x20001050                Angle1_Max
                0x20001054                Opening_Closing_Timer
                0x20001058                Slow_1_Timer
                0x2000105c                Angle1_Memory
                0x2000105e                OPENING_HALF_FLAG
                0x20001060                Time_4_Gate1
                0x20001064                Opened_Timer
                0x20001068                Angle2_Max
                0x2000106c                Encoder_Timer
                0x20001070                Pre_Worning_Timer
                0x20001074                Slow_2_Timer
                0x20001078                ENCODER_SIGNAL_DETECTED
                0x2000107c                Lamp_Timer
                0x20001080                RS485_Packet_Length
                0x20001084                Relay_Timer
                0x20001088                Mosfets_Pwm
                0x2000108c                PULSE_LAMP_FLAG
                0x2000108e                Pulse_Relay_Timer
                0x200010a0                Braking_2_Timer
                0x200010a4                Time_4_Gate2
                0x200010a8                WG_Timer
                0x200010ac                Pulse_OC_Timer
                0x200010c0                Braking_1_Timer
                0x200010c4                Manual_Values
 *fill*         0x200010d2        0x2 00
 COMMON         0x200010d4       0xe8 C:\tien\PROJEKTY\procesory\STM\T108_V100a\sys.o
                0x200010d4                Keyboard_Timer
                0x200010d8                Keyboard
                0x200010dc                Startup_Timer
                0x200010e0                Inputs_Timer
                0x200010e4                RS485_Timer
                0x200010e8                Pulse_RL1_Timer
                0x200010ec                Interval_Sec
                0x200010f0                Pulse_OC2_Timer
                0x200010f4                Uart_Rx_Packet
                0x20001134                Crc_received
                0x20001138                Pulse_RL5_Timer
                0x2000113c                System_Timers
                0x20001150                Interval
                0x20001154                Pulse_RL4_Timer
                0x20001158                Uart_Tx_Packet
                0x20001198                Inputs
                0x2000119c                Pulse_OC1_Timer
                0x200011a0                Screen_Reload_Timer
                0x200011a4                Pulse_RL6_Timer
                0x200011a8                Crc_check
                0x200011ac                Pulse_RL2_Timer
                0x200011b0                Crc_value
                0x200011b4                Pulse_RL3_Timer
                0x200011b8                Temperature_Timer
 COMMON         0x200011bc        0xa C:\tien\PROJEKTY\procesory\STM\T108_V100a\stm32f10x_it.o
                0x200011bc                Msens1_High_Measured
                0x200011be                Msens2_High_Measured
                0x200011c0                Msens2_Low_Measured
                0x200011c2                Usart1_Rx_Data
                0x200011c4                Msens1_Low_Measured
 COMMON         0x200011c6       0x12 C:\tien\PROJEKTY\procesory\STM\T108_V100a\RTC.o
                0x200011c6                Date
                0x200011cc                Time_Set
                0x200011cf                Time
                0x200011d2                Date_Set
 COMMON         0x200011d8       0x55 C:\tien\PROJEKTY\procesory\STM\T108_V100a\lcd.o
                0x200011d8                Lcd_Buffer
                0x20001228                k
                0x20001229                Object_Pos
                0x2000122b                Object_Pos_Temp
 *fill*         0x2000122d        0x3 00
 COMMON         0x20001230       0xac C:\tien\PROJEKTY\procesory\STM\T108_V100a\hardware.o
                0x20001230                HSEStartUpStatus
                0x20001232                TIM_TimeBaseStructure
                0x2000123c                while_timeout
                0x20001240                ADC_InitStructure
                0x20001254                ADC_ConvertedValueTab
                0x20001262                TIM_OCInitStructure
                0x20001272                GPIO_InitStructure
                0x20001276                SPI_InitStructure
                0x20001288                USART_InitStructure
                0x20001298                TIM_ICInitStructure
                0x200012a2                NVIC_InitStructure
                0x200012a8                EXTI_InitStructure
                0x200012b0                DMA_InitStructure
 COMMON         0x200012dc      0x69e C:\tien\PROJEKTY\procesory\STM\T108_V100a\gui.o
                0x200012dc                Service_Variables
                0x2000135c                Screen_Number
                0x20001360                Div_Temp
                0x20001364                Screen_Before_Password
                0x20001368                Controlling_Variables_Set
                0x200013a8                Controller_Variables
                0x200013f4                Counters_Variables
                0x200013f8                Inputs_Error_Mask
                0x200013fc                Enable_String_Mask
                0x20001400                Usb_Tx_Buf_Tab
                0x20001600                String_Lic_Mask
                0x20001604                Other_Variables
                0x20001640                Menu_Backup_Keys_Set
                0x20001643                Screen_After_Password
                0x20001644                Reload_Screen
                0x20001648                Var_Lic_Mask
                0x2000164c                Service_Variables_Set
                0x200016cc                Usb_Rx_Buf_Tab
                0x200018cc                Controller_Variables_Set
                0x20001918                Controlling_Variables
                0x20001958                Counters_Variables_Set
                0x2000195c                Lcd_Write_Ptr
                0x20001960                Variable_Editing_Ptr
                0x20001964                Manual_Test_Mask
                0x20001968                Menu_Backup_Keys_Sensors
                0x2000196b                Count_Add
                0x2000196c                Menu_Backup_Keys
                0x20001970                Flash_Address
                0x20001974                Test_String_Mask
                0x20001978                Language_Num
                0x20001979                FLASHStatus
 COMMON         0x2000197a        0x2 C:\tien\PROJEKTY\procesory\STM\T108_V100a\usb_core.o
                0x2000197a                StatusInfo
 COMMON         0x2000197c       0x32 C:\tien\PROJEKTY\procesory\STM\T108_V100a\usb_init.o
                0x2000197c                SaveState
                0x20001980                pProperty
                0x20001984                EPindex
                0x20001988                Device_Info
                0x200019a4                pUser_Standard_Requests
                0x200019a8                pInformation
                0x200019ac                wInterrupt_Mask
 COMMON         0x200019ae        0x4 C:\tien\PROJEKTY\procesory\STM\T108_V100a\usb_int.o
                0x200019ae                SaveRState
                0x200019b0                SaveTState
 COMMON         0x200019b2        0x2 C:\tien\PROJEKTY\procesory\STM\T108_V100a\usb_istr.o
                0x200019b2                wIstr
 COMMON         0x200019b4        0x4 C:\tien\PROJEKTY\procesory\STM\T108_V100a\usb_prop.o
                0x200019b4                ProtocolValue
 COMMON         0x200019b8        0x2 C:\tien\PROJEKTY\procesory\STM\T108_V100a\usb_pwr.o
                0x200019b8                ResumeS
 COMMON         0x200019ba       0x86 C:\tien\PROJEKTY\procesory\STM\T108_V100a\usb_endp.o
                0x200019ba                j
                0x200019bc                Bkp_Reg_Temp
                0x200019be                i
                0x200019c0                Usb_Rx_Buffer
                0x20001a00                Usb_Tx_Buffer
                0x20001a40                . = ALIGN (0x4)
                0x20001a40                _ebss = .
                0x20001a40                PROVIDE (end, _ebss)
                0x20001a40                PROVIDE (_end, _ebss)

._usrstack      0x20001a40      0x100 load address 0x08010b24
                0x20001a40                . = ALIGN (0x4)
                0x20001a40                _susrstack = .
                0x20001b40                . = (. + _Minimum_Stack_Size)
 *fill*         0x20001a40      0x100 00
                0x20001b40                . = ALIGN (0x4)
                0x20001b40                _eusrstack = .

.b1text
 *(.b1text)
 *(.b1rodata)
 *(.b1rodata*)

.eb0text
 *(.eb0text)
 *(.eb0rodata)
 *(.eb0rodata*)

.eb1text
 *(.eb1text)
 *(.eb1rodata)
 *(.eb1rodata*)

.eb2text
 *(.eb2text)
 *(.eb2rodata)
 *(.eb2rodata*)

.eb3text
 *(.eb3text)
 *(.eb3rodata)
 *(.eb3rodata*)
                0x20001b40                __exidx_start = .
                0x20001b40                __exidx_end = .

/DISCARD/
 libc.a(*)
 libm.a(*)
 libgcc.a(*)

.stab
 *(.stab)

.stabstr
 *(.stabstr)

.stab.excl
 *(.stab.excl)

.stab.exclstr
 *(.stab.exclstr)

.stab.index
 *(.stab.index)

.stab.indexstr
 *(.stab.indexstr)

.comment        0x00000000      0x614
 *(.comment)
 .comment       0x00000000       0x2a C:\Program Files (x86)\Raisonance\Ride\lib\ARM\crt0_STM32x_HD.o
 .comment       0x0000002a       0x2a C:\tien\PROJEKTY\procesory\STM\T108_V100a\stm32f10x_flash.o
 .comment       0x00000054       0x2a C:\tien\PROJEKTY\procesory\STM\T108_V100a\control.o
 .comment       0x0000007e       0x2a C:\tien\PROJEKTY\procesory\STM\T108_V100a\sys.o
 .comment       0x000000a8       0x2a C:\tien\PROJEKTY\procesory\STM\T108_V100a\stm32f10x_it.o
 .comment       0x000000d2       0x2a C:\tien\PROJEKTY\procesory\STM\T108_V100a\RTC.o
 .comment       0x000000fc       0x2a C:\tien\PROJEKTY\procesory\STM\T108_V100a\main.o
 .comment       0x00000126       0x2a C:\tien\PROJEKTY\procesory\STM\T108_V100a\lcd.o
 .comment       0x00000150       0x2a C:\tien\PROJEKTY\procesory\STM\T108_V100a\hardware.o
 .comment       0x0000017a       0x2a C:\tien\PROJEKTY\procesory\STM\T108_V100a\gui.o
 .comment       0x000001a4       0x2a C:\tien\PROJEKTY\procesory\STM\T108_V100a\usb_core.o
 .comment       0x000001ce       0x2a C:\tien\PROJEKTY\procesory\STM\T108_V100a\usb_init.o
 .comment       0x000001f8       0x2a C:\tien\PROJEKTY\procesory\STM\T108_V100a\usb_int.o
 .comment       0x00000222       0x2a C:\tien\PROJEKTY\procesory\STM\T108_V100a\usb_mem.o
 .comment       0x0000024c       0x2a C:\tien\PROJEKTY\procesory\STM\T108_V100a\usb_regs.o
 .comment       0x00000276       0x2a C:\tien\PROJEKTY\procesory\STM\T108_V100a\usb_desc.o
 .comment       0x000002a0       0x2a C:\tien\PROJEKTY\procesory\STM\T108_V100a\usb_istr.o
 .comment       0x000002ca       0x2a C:\tien\PROJEKTY\procesory\STM\T108_V100a\usb_prop.o
 .comment       0x000002f4       0x2a C:\tien\PROJEKTY\procesory\STM\T108_V100a\usb_pwr.o
 .comment       0x0000031e       0x2a C:\tien\PROJEKTY\procesory\STM\T108_V100a\usb_endp.o
 .comment       0x00000348       0x2b C:\Program Files (x86)\Raisonance\Ride\Lib\ARM\STM32x_io_putchar_thumb.a(syscalls.o)
 .comment       0x00000373       0x2b C:\Program Files (x86)\Raisonance\Ride\Lib\ARM\STM32x_io_putchar_thumb.a(STM32F10X_IO_putchar.o)
 .comment       0x0000039e       0x2a C:\Program Files (x86)\Raisonance\Ride\Lib\ARM\STM32F10x_thumb.lib(stm32f10x_dma.o)
 .comment       0x000003c8       0x2a C:\Program Files (x86)\Raisonance\Ride\Lib\ARM\STM32F10x_thumb.lib(stm32f10x_exti.o)
 .comment       0x000003f2       0x2a C:\Program Files (x86)\Raisonance\Ride\Lib\ARM\STM32F10x_thumb.lib(stm32f10x_gpio.o)
 .comment       0x0000041c       0x2a C:\Program Files (x86)\Raisonance\Ride\Lib\ARM\STM32F10x_thumb.lib(stm32f10x_iwdg.o)
 .comment       0x00000446       0x2a C:\Program Files (x86)\Raisonance\Ride\Lib\ARM\STM32F10x_thumb.lib(stm32f10x_nvic.o)
 .comment       0x00000470       0x2a C:\Program Files (x86)\Raisonance\Ride\Lib\ARM\STM32F10x_thumb.lib(stm32f10x_pwr.o)
 .comment       0x0000049a       0x2a C:\Program Files (x86)\Raisonance\Ride\Lib\ARM\STM32F10x_thumb.lib(stm32f10x_rcc.o)
 .comment       0x000004c4       0x2a C:\Program Files (x86)\Raisonance\Ride\Lib\ARM\STM32F10x_thumb.lib(stm32f10x_rtc.o)
 .comment       0x000004ee       0x2a C:\Program Files (x86)\Raisonance\Ride\Lib\ARM\STM32F10x_thumb.lib(stm32f10x_spi.o)
 .comment       0x00000518       0x2a C:\Program Files (x86)\Raisonance\Ride\Lib\ARM\STM32F10x_thumb.lib(stm32f10x_systick.o)
 .comment       0x00000542       0x2a C:\Program Files (x86)\Raisonance\Ride\Lib\ARM\STM32F10x_thumb.lib(stm32f10x_tim.o)
 .comment       0x0000056c       0x2a C:\Program Files (x86)\Raisonance\Ride\Lib\ARM\STM32F10x_thumb.lib(stm32f10x_usart.o)
 .comment       0x00000596       0x2a C:\Program Files (x86)\Raisonance\Ride\Lib\ARM\STM32F10x_thumb.lib(stm32f10x_wwdg.o)
 .comment       0x000005c0       0x2a C:\Program Files (x86)\Raisonance\Ride\Lib\ARM\STM32F10x_thumb.lib(stm32f10x_adc.o)
 .comment       0x000005ea       0x2a C:\Program Files (x86)\Raisonance\Ride\Lib\ARM\STM32F10x_thumb.lib(stm32f10x_bkp.o)

.debug
 *(.debug)

.line
 *(.line)

.debug_srcinfo
 *(.debug_srcinfo)

.debug_sfnames
 *(.debug_sfnames)

.debug_aranges  0x00000000      0xd18
 *(.debug_aranges)
 .debug_aranges
                0x00000000       0xd0 C:\tien\PROJEKTY\procesory\STM\T108_V100a\stm32f10x_flash.o
 .debug_aranges
                0x000000d0      0x1c8 C:\tien\PROJEKTY\procesory\STM\T108_V100a\control.o
 .debug_aranges
                0x00000298       0xc8 C:\tien\PROJEKTY\procesory\STM\T108_V100a\sys.o
 .debug_aranges
                0x00000360      0x240 C:\tien\PROJEKTY\procesory\STM\T108_V100a\stm32f10x_it.o
 .debug_aranges
                0x000005a0       0x80 C:\tien\PROJEKTY\procesory\STM\T108_V100a\RTC.o
 .debug_aranges
                0x00000620       0x20 C:\tien\PROJEKTY\procesory\STM\T108_V100a\main.o
 .debug_aranges
                0x00000640       0x68 C:\tien\PROJEKTY\procesory\STM\T108_V100a\lcd.o
 .debug_aranges
                0x000006a8       0xb8 C:\tien\PROJEKTY\procesory\STM\T108_V100a\hardware.o
 .debug_aranges
                0x00000760      0x1a8 C:\tien\PROJEKTY\procesory\STM\T108_V100a\gui.o
 .debug_aranges
                0x00000908       0x98 C:\tien\PROJEKTY\procesory\STM\T108_V100a\usb_core.o
 .debug_aranges
                0x000009a0       0x20 C:\tien\PROJEKTY\procesory\STM\T108_V100a\usb_init.o
 .debug_aranges
                0x000009c0       0x28 C:\tien\PROJEKTY\procesory\STM\T108_V100a\usb_int.o
 .debug_aranges
                0x000009e8       0x28 C:\tien\PROJEKTY\procesory\STM\T108_V100a\usb_mem.o
 .debug_aranges
                0x00000a10      0x1f0 C:\tien\PROJEKTY\procesory\STM\T108_V100a\usb_regs.o
 .debug_aranges
                0x00000c00       0x20 C:\tien\PROJEKTY\procesory\STM\T108_V100a\usb_istr.o
 .debug_aranges
                0x00000c20       0x98 C:\tien\PROJEKTY\procesory\STM\T108_V100a\usb_prop.o
 .debug_aranges
                0x00000cb8       0x40 C:\tien\PROJEKTY\procesory\STM\T108_V100a\usb_pwr.o
 .debug_aranges
                0x00000cf8       0x20 C:\tien\PROJEKTY\procesory\STM\T108_V100a\usb_endp.o

.debug_pubnames
                0x00000000     0x58ab
 *(.debug_pubnames)
 .debug_pubnames
                0x00000000      0x26e C:\tien\PROJEKTY\procesory\STM\T108_V100a\stm32f10x_flash.o
 .debug_pubnames
                0x0000026e      0x878 C:\tien\PROJEKTY\procesory\STM\T108_V100a\control.o
 .debug_pubnames
                0x00000ae6      0x435 C:\tien\PROJEKTY\procesory\STM\T108_V100a\sys.o
 .debug_pubnames
                0x00000f1b      0x707 C:\tien\PROJEKTY\procesory\STM\T108_V100a\stm32f10x_it.o
 .debug_pubnames
                0x00001622      0x164 C:\tien\PROJEKTY\procesory\STM\T108_V100a\RTC.o
 .debug_pubnames
                0x00001786       0x1b C:\tien\PROJEKTY\procesory\STM\T108_V100a\main.o
 .debug_pubnames
                0x000017a1      0x121 C:\tien\PROJEKTY\procesory\STM\T108_V100a\lcd.o
 .debug_pubnames
                0x000018c2      0x2cc C:\tien\PROJEKTY\procesory\STM\T108_V100a\hardware.o
 .debug_pubnames
                0x00001b8e     0x3171 C:\tien\PROJEKTY\procesory\STM\T108_V100a\gui.o
 .debug_pubnames
                0x00004cff      0x1a5 C:\tien\PROJEKTY\procesory\STM\T108_V100a\usb_core.o
 .debug_pubnames
                0x00004ea4       0x98 C:\tien\PROJEKTY\procesory\STM\T108_V100a\usb_init.o
 .debug_pubnames
                0x00004f3c       0x46 C:\tien\PROJEKTY\procesory\STM\T108_V100a\usb_int.o
 .debug_pubnames
                0x00004f82       0x42 C:\tien\PROJEKTY\procesory\STM\T108_V100a\usb_mem.o
 .debug_pubnames
                0x00004fc4      0x419 C:\tien\PROJEKTY\procesory\STM\T108_V100a\usb_regs.o
 .debug_pubnames
                0x000053dd       0xdc C:\tien\PROJEKTY\procesory\STM\T108_V100a\usb_desc.o
 .debug_pubnames
                0x000054b9       0x56 C:\tien\PROJEKTY\procesory\STM\T108_V100a\usb_istr.o
 .debug_pubnames
                0x0000550f      0x2b1 C:\tien\PROJEKTY\procesory\STM\T108_V100a\usb_prop.o
 .debug_pubnames
                0x000057c0       0x83 C:\tien\PROJEKTY\procesory\STM\T108_V100a\usb_pwr.o
 .debug_pubnames
                0x00005843       0x68 C:\tien\PROJEKTY\procesory\STM\T108_V100a\usb_endp.o

.debug_info     0x00000000    0x10c22
 *(.debug_info .gnu.linkonce.wi.*)
 .debug_info    0x00000000      0x6fa C:\tien\PROJEKTY\procesory\STM\T108_V100a\stm32f10x_flash.o
 .debug_info    0x000006fa     0x25f2 C:\tien\PROJEKTY\procesory\STM\T108_V100a\control.o
 .debug_info    0x00002cec     0x1bcf C:\tien\PROJEKTY\procesory\STM\T108_V100a\sys.o
 .debug_info    0x000048bb      0xee0 C:\tien\PROJEKTY\procesory\STM\T108_V100a\stm32f10x_it.o
 .debug_info    0x0000579b      0x69e C:\tien\PROJEKTY\procesory\STM\T108_V100a\RTC.o
 .debug_info    0x00005e39       0x8f C:\tien\PROJEKTY\procesory\STM\T108_V100a\main.o
 .debug_info    0x00005ec8      0x429 C:\tien\PROJEKTY\procesory\STM\T108_V100a\lcd.o
 .debug_info    0x000062f1     0x159b C:\tien\PROJEKTY\procesory\STM\T108_V100a\hardware.o
 .debug_info    0x0000788c     0x549b C:\tien\PROJEKTY\procesory\STM\T108_V100a\gui.o
 .debug_info    0x0000cd27      0xbef C:\tien\PROJEKTY\procesory\STM\T108_V100a\usb_core.o
 .debug_info    0x0000d916      0x450 C:\tien\PROJEKTY\procesory\STM\T108_V100a\usb_init.o
 .debug_info    0x0000dd66      0x1a3 C:\tien\PROJEKTY\procesory\STM\T108_V100a\usb_int.o
 .debug_info    0x0000df09      0x160 C:\tien\PROJEKTY\procesory\STM\T108_V100a\usb_mem.o
 .debug_info    0x0000e069      0xcb3 C:\tien\PROJEKTY\procesory\STM\T108_V100a\usb_regs.o
 .debug_info    0x0000ed1c      0x165 C:\tien\PROJEKTY\procesory\STM\T108_V100a\usb_desc.o
 .debug_info    0x0000ee81      0x2ad C:\tien\PROJEKTY\procesory\STM\T108_V100a\usb_istr.o
 .debug_info    0x0000f12e      0xa5f C:\tien\PROJEKTY\procesory\STM\T108_V100a\usb_prop.o
 .debug_info    0x0000fb8d      0x240 C:\tien\PROJEKTY\procesory\STM\T108_V100a\usb_pwr.o
 .debug_info    0x0000fdcd      0xe55 C:\tien\PROJEKTY\procesory\STM\T108_V100a\usb_endp.o

.debug_abbrev   0x00000000     0x1f67
 *(.debug_abbrev)
 .debug_abbrev  0x00000000      0x1e6 C:\tien\PROJEKTY\procesory\STM\T108_V100a\stm32f10x_flash.o
 .debug_abbrev  0x000001e6      0x271 C:\tien\PROJEKTY\procesory\STM\T108_V100a\control.o
 .debug_abbrev  0x00000457      0x2a0 C:\tien\PROJEKTY\procesory\STM\T108_V100a\sys.o
 .debug_abbrev  0x000006f7      0x1a5 C:\tien\PROJEKTY\procesory\STM\T108_V100a\stm32f10x_it.o
 .debug_abbrev  0x0000089c      0x2a7 C:\tien\PROJEKTY\procesory\STM\T108_V100a\RTC.o
 .debug_abbrev  0x00000b43       0x4a C:\tien\PROJEKTY\procesory\STM\T108_V100a\main.o
 .debug_abbrev  0x00000b8d      0x1de C:\tien\PROJEKTY\procesory\STM\T108_V100a\lcd.o
 .debug_abbrev  0x00000d6b      0x260 C:\tien\PROJEKTY\procesory\STM\T108_V100a\hardware.o
 .debug_abbrev  0x00000fcb      0x2aa C:\tien\PROJEKTY\procesory\STM\T108_V100a\gui.o
 .debug_abbrev  0x00001275      0x2f1 C:\tien\PROJEKTY\procesory\STM\T108_V100a\usb_core.o
 .debug_abbrev  0x00001566      0x100 C:\tien\PROJEKTY\procesory\STM\T108_V100a\usb_init.o
 .debug_abbrev  0x00001666       0xd2 C:\tien\PROJEKTY\procesory\STM\T108_V100a\usb_int.o
 .debug_abbrev  0x00001738       0x93 C:\tien\PROJEKTY\procesory\STM\T108_V100a\usb_mem.o
 .debug_abbrev  0x000017cb      0x1d2 C:\tien\PROJEKTY\procesory\STM\T108_V100a\usb_regs.o
 .debug_abbrev  0x0000199d       0x5d C:\tien\PROJEKTY\procesory\STM\T108_V100a\usb_desc.o
 .debug_abbrev  0x000019fa       0xf7 C:\tien\PROJEKTY\procesory\STM\T108_V100a\usb_istr.o
 .debug_abbrev  0x00001af1      0x1fb C:\tien\PROJEKTY\procesory\STM\T108_V100a\usb_prop.o
 .debug_abbrev  0x00001cec      0x11e C:\tien\PROJEKTY\procesory\STM\T108_V100a\usb_pwr.o
 .debug_abbrev  0x00001e0a      0x15d C:\tien\PROJEKTY\procesory\STM\T108_V100a\usb_endp.o

.debug_line     0x00000000     0x4609
 *(.debug_line)
 .debug_line    0x00000000      0x37b C:\tien\PROJEKTY\procesory\STM\T108_V100a\stm32f10x_flash.o
 .debug_line    0x0000037b      0xb23 C:\tien\PROJEKTY\procesory\STM\T108_V100a\control.o
 .debug_line    0x00000e9e      0x6d4 C:\tien\PROJEKTY\procesory\STM\T108_V100a\sys.o
 .debug_line    0x00001572      0x664 C:\tien\PROJEKTY\procesory\STM\T108_V100a\stm32f10x_it.o
 .debug_line    0x00001bd6      0x2f1 C:\tien\PROJEKTY\procesory\STM\T108_V100a\RTC.o
 .debug_line    0x00001ec7       0x74 C:\tien\PROJEKTY\procesory\STM\T108_V100a\main.o
 .debug_line    0x00001f3b      0x294 C:\tien\PROJEKTY\procesory\STM\T108_V100a\lcd.o
 .debug_line    0x000021cf      0x5e0 C:\tien\PROJEKTY\procesory\STM\T108_V100a\hardware.o
 .debug_line    0x000027af      0x9ca C:\tien\PROJEKTY\procesory\STM\T108_V100a\gui.o
 .debug_line    0x00003179      0x348 C:\tien\PROJEKTY\procesory\STM\T108_V100a\usb_core.o
 .debug_line    0x000034c1      0x112 C:\tien\PROJEKTY\procesory\STM\T108_V100a\usb_init.o
 .debug_line    0x000035d3      0x15e C:\tien\PROJEKTY\procesory\STM\T108_V100a\usb_int.o
 .debug_line    0x00003731       0xe1 C:\tien\PROJEKTY\procesory\STM\T108_V100a\usb_mem.o
 .debug_line    0x00003812      0x536 C:\tien\PROJEKTY\procesory\STM\T108_V100a\usb_regs.o
 .debug_line    0x00003d48       0xae C:\tien\PROJEKTY\procesory\STM\T108_V100a\usb_desc.o
 .debug_line    0x00003df6      0x179 C:\tien\PROJEKTY\procesory\STM\T108_V100a\usb_istr.o
 .debug_line    0x00003f6f      0x2df C:\tien\PROJEKTY\procesory\STM\T108_V100a\usb_prop.o
 .debug_line    0x0000424e      0x1d0 C:\tien\PROJEKTY\procesory\STM\T108_V100a\usb_pwr.o
 .debug_line    0x0000441e      0x1eb C:\tien\PROJEKTY\procesory\STM\T108_V100a\usb_endp.o

.debug_frame    0x00000000     0x2214
 *(.debug_frame)
 .debug_frame   0x00000000      0x1f0 C:\tien\PROJEKTY\procesory\STM\T108_V100a\stm32f10x_flash.o
 .debug_frame   0x000001f0      0x50c C:\tien\PROJEKTY\procesory\STM\T108_V100a\control.o
 .debug_frame   0x000006fc      0x20c C:\tien\PROJEKTY\procesory\STM\T108_V100a\sys.o
 .debug_frame   0x00000908      0x498 C:\tien\PROJEKTY\procesory\STM\T108_V100a\stm32f10x_it.o
 .debug_frame   0x00000da0      0x13c C:\tien\PROJEKTY\procesory\STM\T108_V100a\RTC.o
 .debug_frame   0x00000edc       0x28 C:\tien\PROJEKTY\procesory\STM\T108_V100a\main.o
 .debug_frame   0x00000f04       0xf8 C:\tien\PROJEKTY\procesory\STM\T108_V100a\lcd.o
 .debug_frame   0x00000ffc      0x1fc C:\tien\PROJEKTY\procesory\STM\T108_V100a\hardware.o
 .debug_frame   0x000011f8      0x504 C:\tien\PROJEKTY\procesory\STM\T108_V100a\gui.o
 .debug_frame   0x000016fc      0x1a8 C:\tien\PROJEKTY\procesory\STM\T108_V100a\usb_core.o
 .debug_frame   0x000018a4       0x28 C:\tien\PROJEKTY\procesory\STM\T108_V100a\usb_init.o
 .debug_frame   0x000018cc       0x44 C:\tien\PROJEKTY\procesory\STM\T108_V100a\usb_int.o
 .debug_frame   0x00001910       0x40 C:\tien\PROJEKTY\procesory\STM\T108_V100a\usb_mem.o
 .debug_frame   0x00001950      0x3ec C:\tien\PROJEKTY\procesory\STM\T108_V100a\usb_regs.o
 .debug_frame   0x00001d3c       0x28 C:\tien\PROJEKTY\procesory\STM\T108_V100a\usb_istr.o
 .debug_frame   0x00001d64      0x160 C:\tien\PROJEKTY\procesory\STM\T108_V100a\usb_prop.o
 .debug_frame   0x00001ec4       0x78 C:\tien\PROJEKTY\procesory\STM\T108_V100a\usb_pwr.o
 .debug_frame   0x00001f3c       0x2c C:\tien\PROJEKTY\procesory\STM\T108_V100a\usb_endp.o
 .debug_frame   0x00001f68       0x20 c:/program files (x86)/raisonance/ride/arm-gcc/bin/../lib/gcc/arm-none-eabi/4.3.2/../../../../arm-none-eabi/lib/thumb2\libc.a(lib_a-abort.o)
 .debug_frame   0x00001f88       0x20 c:/program files (x86)/raisonance/ride/arm-gcc/bin/../lib/gcc/arm-none-eabi/4.3.2/../../../../arm-none-eabi/lib/thumb2\libc.a(lib_a-errno.o)
 .debug_frame   0x00001fa8       0xe0 c:/program files (x86)/raisonance/ride/arm-gcc/bin/../lib/gcc/arm-none-eabi/4.3.2/../../../../arm-none-eabi/lib/thumb2\libc.a(lib_a-signal.o)
 .debug_frame   0x00002088       0x44 c:/program files (x86)/raisonance/ride/arm-gcc/bin/../lib/gcc/arm-none-eabi/4.3.2/../../../../arm-none-eabi/lib/thumb2\libc.a(lib_a-signalr.o)
 .debug_frame   0x000020cc       0x38 c:/program files (x86)/raisonance/ride/arm-gcc/bin/../lib/gcc/arm-none-eabi/4.3.2/../../../../arm-none-eabi/lib/thumb2\libc.a(lib_a-mallocr.o)
 .debug_frame   0x00002104       0x30 c:/program files (x86)/raisonance/ride/arm-gcc/bin/../lib/gcc/arm-none-eabi/4.3.2/../../../../arm-none-eabi/lib/thumb2\libc.a(lib_a-mlock.o)
 .debug_frame   0x00002134       0x64 c:/program files (x86)/raisonance/ride/arm-gcc/bin/../lib/gcc/arm-none-eabi/4.3.2/../../../../arm-none-eabi/lib/thumb2\libc.a(lib_a-reent.o)
 .debug_frame   0x00002198       0x2c c:/program files (x86)/raisonance/ride/arm-gcc/bin/../lib/gcc/arm-none-eabi/4.3.2/../../../../arm-none-eabi/lib/thumb2\libc.a(lib_a-sbrkr.o)
 .debug_frame   0x000021c4       0x50 c:/program files (x86)/raisonance/ride/arm-gcc/bin/../lib/gcc/arm-none-eabi/4.3.2/../../../../arm-none-eabi/lib/thumb2\libc.a(lib_a-freer.o)

.debug_str      0x00000000     0x847e
 *(.debug_str)
 .debug_str     0x00000000      0x41f C:\tien\PROJEKTY\procesory\STM\T108_V100a\stm32f10x_flash.o
                                0x47f (size before relaxing)
 .debug_str     0x0000041f     0x1da7 C:\tien\PROJEKTY\procesory\STM\T108_V100a\control.o
                               0x1feb (size before relaxing)
 .debug_str     0x000021c6      0x765 C:\tien\PROJEKTY\procesory\STM\T108_V100a\sys.o
                               0x1868 (size before relaxing)
 .debug_str     0x0000292b      0x60a C:\tien\PROJEKTY\procesory\STM\T108_V100a\stm32f10x_it.o
                                0xb18 (size before relaxing)
 .debug_str     0x00002f35      0x1e6 C:\tien\PROJEKTY\procesory\STM\T108_V100a\RTC.o
                                0x36b (size before relaxing)
 .debug_str     0x0000311b       0x3e C:\tien\PROJEKTY\procesory\STM\T108_V100a\main.o
                                 0xd3 (size before relaxing)
 .debug_str     0x00003159      0x149 C:\tien\PROJEKTY\procesory\STM\T108_V100a\lcd.o
                                0x253 (size before relaxing)
 .debug_str     0x000032a2      0x9e9 C:\tien\PROJEKTY\procesory\STM\T108_V100a\hardware.o
                                0xfae (size before relaxing)
 .debug_str     0x00003c8b     0x365c C:\tien\PROJEKTY\procesory\STM\T108_V100a\gui.o
                               0x494b (size before relaxing)
 .debug_str     0x000072e7      0x6af C:\tien\PROJEKTY\procesory\STM\T108_V100a\usb_core.o
                                0x955 (size before relaxing)
 .debug_str     0x00007996       0x70 C:\tien\PROJEKTY\procesory\STM\T108_V100a\usb_init.o
                                0x444 (size before relaxing)
 .debug_str     0x00007a06       0x74 C:\tien\PROJEKTY\procesory\STM\T108_V100a\usb_int.o
                                 0xf9 (size before relaxing)
 .debug_str     0x00007a7a       0x9c C:\tien\PROJEKTY\procesory\STM\T108_V100a\usb_mem.o
                                 0xfa (size before relaxing)
 .debug_str     0x00007b16      0x408 C:\tien\PROJEKTY\procesory\STM\T108_V100a\usb_regs.o
                                0x482 (size before relaxing)
 .debug_str     0x00007f1e       0xdb C:\tien\PROJEKTY\procesory\STM\T108_V100a\usb_desc.o
                                0x150 (size before relaxing)
 .debug_str     0x00007ff9       0xde C:\tien\PROJEKTY\procesory\STM\T108_V100a\usb_istr.o
                                0x2a7 (size before relaxing)
 .debug_str     0x000080d7      0x295 C:\tien\PROJEKTY\procesory\STM\T108_V100a\usb_prop.o
                                0x991 (size before relaxing)
 .debug_str     0x0000836c       0x94 C:\tien\PROJEKTY\procesory\STM\T108_V100a\usb_pwr.o
                                0x201 (size before relaxing)
 .debug_str     0x00008400       0x7e C:\tien\PROJEKTY\procesory\STM\T108_V100a\usb_endp.o
                                0xb17 (size before relaxing)

.debug_loc      0x00000000     0x3515
 *(.debug_loc)
 .debug_loc     0x00000000      0x5c6 C:\tien\PROJEKTY\procesory\STM\T108_V100a\stm32f10x_flash.o
 .debug_loc     0x000005c6      0x7ce C:\tien\PROJEKTY\procesory\STM\T108_V100a\control.o
 .debug_loc     0x00000d94      0x78c C:\tien\PROJEKTY\procesory\STM\T108_V100a\sys.o
 .debug_loc     0x00001520       0xd9 C:\tien\PROJEKTY\procesory\STM\T108_V100a\stm32f10x_it.o
 .debug_loc     0x000015f9      0x279 C:\tien\PROJEKTY\procesory\STM\T108_V100a\RTC.o
 .debug_loc     0x00001872       0x1f C:\tien\PROJEKTY\procesory\STM\T108_V100a\main.o
 .debug_loc     0x00001891      0x20c C:\tien\PROJEKTY\procesory\STM\T108_V100a\lcd.o
 .debug_loc     0x00001a9d      0x22c C:\tien\PROJEKTY\procesory\STM\T108_V100a\hardware.o
 .debug_loc     0x00001cc9      0x6d7 C:\tien\PROJEKTY\procesory\STM\T108_V100a\gui.o
 .debug_loc     0x000023a0      0x6e3 C:\tien\PROJEKTY\procesory\STM\T108_V100a\usb_core.o
 .debug_loc     0x00002a83       0x1f C:\tien\PROJEKTY\procesory\STM\T108_V100a\usb_init.o
 .debug_loc     0x00002aa2      0x108 C:\tien\PROJEKTY\procesory\STM\T108_V100a\usb_int.o
 .debug_loc     0x00002baa       0x8a C:\tien\PROJEKTY\procesory\STM\T108_V100a\usb_mem.o
 .debug_loc     0x00002c34      0x58d C:\tien\PROJEKTY\procesory\STM\T108_V100a\usb_regs.o
 .debug_loc     0x000031c1       0x1f C:\tien\PROJEKTY\procesory\STM\T108_V100a\usb_istr.o
 .debug_loc     0x000031e0      0x25f C:\tien\PROJEKTY\procesory\STM\T108_V100a\usb_prop.o
 .debug_loc     0x0000343f       0xb7 C:\tien\PROJEKTY\procesory\STM\T108_V100a\usb_pwr.o
 .debug_loc     0x000034f6       0x1f C:\tien\PROJEKTY\procesory\STM\T108_V100a\usb_endp.o

.debug_macinfo
 *(.debug_macinfo)

.debug_weaknames
 *(.debug_weaknames)

.debug_funcnames
 *(.debug_funcnames)

.debug_typenames
 *(.debug_typenames)

.debug_varnames
 *(.debug_varnames)
LOAD C:\Program Files (x86)\Raisonance\Ride\Lib\ARM\STM32x_io_putchar_thumb.a
LOAD C:\Program Files (x86)\Raisonance\Ride\Lib\ARM\e_stdio_thumb.a
LOAD C:\Program Files (x86)\Raisonance\Ride\Lib\ARM\STM32F10x_thumb.lib
START GROUP
LOAD c:/program files (x86)/raisonance/ride/arm-gcc/bin/../lib/gcc/arm-none-eabi/4.3.2/thumb2\libgcc.a
LOAD c:/program files (x86)/raisonance/ride/arm-gcc/bin/../lib/gcc/arm-none-eabi/4.3.2/../../../../arm-none-eabi/lib/thumb2\libc.a
END GROUP
OUTPUT(C:\tien\PROJEKTY\procesory\STM\T108_V100a\T104_GA_V100a.elf elf32-littlearm)

.ARM.attributes
                0x00000000       0x31
 .ARM.attributes
                0x00000000       0x31 C:\Program Files (x86)\Raisonance\Ride\lib\ARM\crt0_STM32x_HD.o
 .ARM.attributes
                0x00000031       0x31 C:\tien\PROJEKTY\procesory\STM\T108_V100a\stm32f10x_flash.o
 .ARM.attributes
                0x00000062       0x31 C:\tien\PROJEKTY\procesory\STM\T108_V100a\control.o
 .ARM.attributes
                0x00000093       0x31 C:\tien\PROJEKTY\procesory\STM\T108_V100a\sys.o
 .ARM.attributes
                0x000000c4       0x31 C:\tien\PROJEKTY\procesory\STM\T108_V100a\stm32f10x_it.o
 .ARM.attributes
                0x000000f5       0x31 C:\tien\PROJEKTY\procesory\STM\T108_V100a\RTC.o
 .ARM.attributes
                0x00000126       0x31 C:\tien\PROJEKTY\procesory\STM\T108_V100a\main.o
 .ARM.attributes
                0x00000157       0x31 C:\tien\PROJEKTY\procesory\STM\T108_V100a\lcd.o
 .ARM.attributes
                0x00000188       0x31 C:\tien\PROJEKTY\procesory\STM\T108_V100a\hardware.o
 .ARM.attributes
                0x000001b9       0x31 C:\tien\PROJEKTY\procesory\STM\T108_V100a\gui.o
 .ARM.attributes
                0x000001ea       0x31 C:\tien\PROJEKTY\procesory\STM\T108_V100a\usb_core.o
 .ARM.attributes
                0x0000021b       0x31 C:\tien\PROJEKTY\procesory\STM\T108_V100a\usb_init.o
 .ARM.attributes
                0x0000024c       0x31 C:\tien\PROJEKTY\procesory\STM\T108_V100a\usb_int.o
 .ARM.attributes
                0x0000027d       0x31 C:\tien\PROJEKTY\procesory\STM\T108_V100a\usb_mem.o
 .ARM.attributes
                0x000002ae       0x31 C:\tien\PROJEKTY\procesory\STM\T108_V100a\usb_regs.o
 .ARM.attributes
                0x000002df       0x2f C:\tien\PROJEKTY\procesory\STM\T108_V100a\usb_desc.o
 .ARM.attributes
                0x0000030e       0x31 C:\tien\PROJEKTY\procesory\STM\T108_V100a\usb_istr.o
 .ARM.attributes
                0x0000033f       0x31 C:\tien\PROJEKTY\procesory\STM\T108_V100a\usb_prop.o
 .ARM.attributes
                0x00000370       0x31 C:\tien\PROJEKTY\procesory\STM\T108_V100a\usb_pwr.o
 .ARM.attributes
                0x000003a1       0x31 C:\tien\PROJEKTY\procesory\STM\T108_V100a\usb_endp.o
 .ARM.attributes
                0x000003d2       0x31 C:\Program Files (x86)\Raisonance\Ride\Lib\ARM\STM32x_io_putchar_thumb.a(syscalls.o)
 .ARM.attributes
                0x00000403       0x31 C:\Program Files (x86)\Raisonance\Ride\Lib\ARM\STM32x_io_putchar_thumb.a(STM32F10X_IO_putchar.o)
 .ARM.attributes
                0x00000434       0x31 C:\Program Files (x86)\Raisonance\Ride\Lib\ARM\STM32F10x_thumb.lib(stm32f10x_dma.o)
 .ARM.attributes
                0x00000465       0x31 C:\Program Files (x86)\Raisonance\Ride\Lib\ARM\STM32F10x_thumb.lib(stm32f10x_exti.o)
 .ARM.attributes
                0x00000496       0x31 C:\Program Files (x86)\Raisonance\Ride\Lib\ARM\STM32F10x_thumb.lib(stm32f10x_gpio.o)
 .ARM.attributes
                0x000004c7       0x31 C:\Program Files (x86)\Raisonance\Ride\Lib\ARM\STM32F10x_thumb.lib(stm32f10x_iwdg.o)
 .ARM.attributes
                0x000004f8       0x31 C:\Program Files (x86)\Raisonance\Ride\Lib\ARM\STM32F10x_thumb.lib(stm32f10x_nvic.o)
 .ARM.attributes
                0x00000529       0x31 C:\Program Files (x86)\Raisonance\Ride\Lib\ARM\STM32F10x_thumb.lib(stm32f10x_pwr.o)
 .ARM.attributes
                0x0000055a       0x31 C:\Program Files (x86)\Raisonance\Ride\Lib\ARM\STM32F10x_thumb.lib(stm32f10x_rcc.o)
 .ARM.attributes
                0x0000058b       0x31 C:\Program Files (x86)\Raisonance\Ride\Lib\ARM\STM32F10x_thumb.lib(stm32f10x_rtc.o)
 .ARM.attributes
                0x000005bc       0x31 C:\Program Files (x86)\Raisonance\Ride\Lib\ARM\STM32F10x_thumb.lib(stm32f10x_spi.o)
 .ARM.attributes
                0x000005ed       0x31 C:\Program Files (x86)\Raisonance\Ride\Lib\ARM\STM32F10x_thumb.lib(stm32f10x_systick.o)
 .ARM.attributes
                0x0000061e       0x31 C:\Program Files (x86)\Raisonance\Ride\Lib\ARM\STM32F10x_thumb.lib(stm32f10x_tim.o)
 .ARM.attributes
                0x0000064f       0x31 C:\Program Files (x86)\Raisonance\Ride\Lib\ARM\STM32F10x_thumb.lib(stm32f10x_usart.o)
 .ARM.attributes
                0x00000680       0x31 C:\Program Files (x86)\Raisonance\Ride\Lib\ARM\STM32F10x_thumb.lib(stm32f10x_wwdg.o)
 .ARM.attributes
                0x000006b1       0x31 C:\Program Files (x86)\Raisonance\Ride\Lib\ARM\STM32F10x_thumb.lib(stm32f10x_adc.o)
 .ARM.attributes
                0x000006e2       0x31 C:\Program Files (x86)\Raisonance\Ride\Lib\ARM\STM32F10x_thumb.lib(stm32f10x_bkp.o)
 .ARM.attributes
                0x00000713       0x21 C:\Program Files (x86)\Raisonance\Ride\Lib\ARM\STM32F10x_thumb.lib(cortexm3_macro.o)
 .ARM.attributes
                0x00000734       0x27 c:/program files (x86)/raisonance/ride/arm-gcc/bin/../lib/gcc/arm-none-eabi/4.3.2/../../../../arm-none-eabi/lib/thumb2\libc.a(lib_a-abort.o)
 .ARM.attributes
                0x0000075b       0x27 c:/program files (x86)/raisonance/ride/arm-gcc/bin/../lib/gcc/arm-none-eabi/4.3.2/../../../../arm-none-eabi/lib/thumb2\libc.a(lib_a-errno.o)
 .ARM.attributes
                0x00000782       0x25 c:/program files (x86)/raisonance/ride/arm-gcc/bin/../lib/gcc/arm-none-eabi/4.3.2/../../../../arm-none-eabi/lib/thumb2\libc.a(lib_a-impure.o)
 .ARM.attributes
                0x000007a7       0x27 c:/program files (x86)/raisonance/ride/arm-gcc/bin/../lib/gcc/arm-none-eabi/4.3.2/../../../../arm-none-eabi/lib/thumb2\libc.a(lib_a-signal.o)
 .ARM.attributes
                0x000007ce       0x27 c:/program files (x86)/raisonance/ride/arm-gcc/bin/../lib/gcc/arm-none-eabi/4.3.2/../../../../arm-none-eabi/lib/thumb2\libc.a(lib_a-signalr.o)
 .ARM.attributes
                0x000007f5       0x27 c:/program files (x86)/raisonance/ride/arm-gcc/bin/../lib/gcc/arm-none-eabi/4.3.2/../../../../arm-none-eabi/lib/thumb2\libc.a(lib_a-mallocr.o)
 .ARM.attributes
                0x0000081c       0x27 c:/program files (x86)/raisonance/ride/arm-gcc/bin/../lib/gcc/arm-none-eabi/4.3.2/../../../../arm-none-eabi/lib/thumb2\libc.a(lib_a-mlock.o)
 .ARM.attributes
                0x00000843       0x27 c:/program files (x86)/raisonance/ride/arm-gcc/bin/../lib/gcc/arm-none-eabi/4.3.2/../../../../arm-none-eabi/lib/thumb2\libc.a(lib_a-reent.o)
 .ARM.attributes
                0x0000086a       0x27 c:/program files (x86)/raisonance/ride/arm-gcc/bin/../lib/gcc/arm-none-eabi/4.3.2/../../../../arm-none-eabi/lib/thumb2\libc.a(lib_a-sbrkr.o)
 .ARM.attributes
                0x00000891       0x27 c:/program files (x86)/raisonance/ride/arm-gcc/bin/../lib/gcc/arm-none-eabi/4.3.2/../../../../arm-none-eabi/lib/thumb2\libc.a(lib_a-freer.o)

.debug_ranges   0x00000000      0xde8
 .debug_ranges  0x00000000       0xc8 C:\tien\PROJEKTY\procesory\STM\T108_V100a\stm32f10x_flash.o
 .debug_ranges  0x000000c8      0x1c0 C:\tien\PROJEKTY\procesory\STM\T108_V100a\control.o
 .debug_ranges  0x00000288       0xc0 C:\tien\PROJEKTY\procesory\STM\T108_V100a\sys.o
 .debug_ranges  0x00000348      0x238 C:\tien\PROJEKTY\procesory\STM\T108_V100a\stm32f10x_it.o
 .debug_ranges  0x00000580       0xa0 C:\tien\PROJEKTY\procesory\STM\T108_V100a\RTC.o
 .debug_ranges  0x00000620       0x18 C:\tien\PROJEKTY\procesory\STM\T108_V100a\main.o
 .debug_ranges  0x00000638       0x60 C:\tien\PROJEKTY\procesory\STM\T108_V100a\lcd.o
 .debug_ranges  0x00000698       0xb0 C:\tien\PROJEKTY\procesory\STM\T108_V100a\hardware.o
 .debug_ranges  0x00000748      0x1a0 C:\tien\PROJEKTY\procesory\STM\T108_V100a\gui.o
 .debug_ranges  0x000008e8      0x168 C:\tien\PROJEKTY\procesory\STM\T108_V100a\usb_core.o
 .debug_ranges  0x00000a50       0x18 C:\tien\PROJEKTY\procesory\STM\T108_V100a\usb_init.o
 .debug_ranges  0x00000a68       0x50 C:\tien\PROJEKTY\procesory\STM\T108_V100a\usb_int.o
 .debug_ranges  0x00000ab8       0x20 C:\tien\PROJEKTY\procesory\STM\T108_V100a\usb_mem.o
 .debug_ranges  0x00000ad8      0x218 C:\tien\PROJEKTY\procesory\STM\T108_V100a\usb_regs.o
 .debug_ranges  0x00000cf0       0x18 C:\tien\PROJEKTY\procesory\STM\T108_V100a\usb_istr.o
 .debug_ranges  0x00000d08       0x90 C:\tien\PROJEKTY\procesory\STM\T108_V100a\usb_prop.o
 .debug_ranges  0x00000d98       0x38 C:\tien\PROJEKTY\procesory\STM\T108_V100a\usb_pwr.o
 .debug_ranges  0x00000dd0       0x18 C:\tien\PROJEKTY\procesory\STM\T108_V100a\usb_endp.o
